   1              		.syntax unified
   2              		.cpu cortex-m3
   3              		.fpu softvfp
   4              		.eabi_attribute 20, 1
   5              		.eabi_attribute 21, 1
   6              		.eabi_attribute 23, 3
   7              		.eabi_attribute 24, 1
   8              		.eabi_attribute 25, 1
   9              		.eabi_attribute 26, 1
  10              		.eabi_attribute 30, 4
  11              		.eabi_attribute 34, 1
  12              		.eabi_attribute 18, 4
  13              		.thumb
  14              		.file	"lpc_ssp_glcd.c"
  15              		.text
  16              	.Ltext0:
  17              		.cfi_sections	.debug_frame
  18              		.align	1
  19              		.thumb
  20              		.thumb_func
  22              	wr_dat_start:
  23              	.LFB65:
  24              		.file 1 "../Source Files/lpc_ssp_glcd.c"
   1:../Source Files/lpc_ssp_glcd.c **** /**********************************************************************
   2:../Source Files/lpc_ssp_glcd.c **** * $Id$		lpc_ssp_glcd.c
   3:../Source Files/lpc_ssp_glcd.c **** *//**
   4:../Source Files/lpc_ssp_glcd.c **** * @file		lpc_ssp_glcd.c
   5:../Source Files/lpc_ssp_glcd.c **** * @brief	Contains all functions support for SSP based GLCD
   6:../Source Files/lpc_ssp_glcd.c **** *           library on LPC17xx
   7:../Source Files/lpc_ssp_glcd.c **** * @version	1.0
   8:../Source Files/lpc_ssp_glcd.c **** * @date		18. Dec. 2013
   9:../Source Files/lpc_ssp_glcd.c **** * @author	Dwijay.Edutech Learning Solutions
  10:../Source Files/lpc_ssp_glcd.c **** ***********************************************************************
  11:../Source Files/lpc_ssp_glcd.c **** * Software that is described herein is for illustrative purposes only
  12:../Source Files/lpc_ssp_glcd.c **** * which provides customers with programming information regarding the
  13:../Source Files/lpc_ssp_glcd.c **** * products. This software is supplied "AS IS" without any warranties.
  14:../Source Files/lpc_ssp_glcd.c **** * NXP Semiconductors assumes no responsibility or liability for the
  15:../Source Files/lpc_ssp_glcd.c **** * use of the software, conveys no license or title under any patent,
  16:../Source Files/lpc_ssp_glcd.c **** * copyright, or mask work right to the product. NXP Semiconductors
  17:../Source Files/lpc_ssp_glcd.c **** * reserves the right to make changes in the software without
  18:../Source Files/lpc_ssp_glcd.c **** * notification. NXP Semiconductors also make no representation or
  19:../Source Files/lpc_ssp_glcd.c **** * warranty that such application will be suitable for the specified
  20:../Source Files/lpc_ssp_glcd.c **** * use without further testing or modification.
  21:../Source Files/lpc_ssp_glcd.c **** **********************************************************************/
  22:../Source Files/lpc_ssp_glcd.c **** 
  23:../Source Files/lpc_ssp_glcd.c **** /* Peripheral group ----------------------------------------------------------- */
  24:../Source Files/lpc_ssp_glcd.c **** /** @addtogroup GLCD
  25:../Source Files/lpc_ssp_glcd.c ****  * @{
  26:../Source Files/lpc_ssp_glcd.c ****  */
  27:../Source Files/lpc_ssp_glcd.c **** 
  28:../Source Files/lpc_ssp_glcd.c **** /* Includes ------------------------------------------------------------------- */
  29:../Source Files/lpc_ssp_glcd.c **** #include "lpc_ssp_glcd.h"
  30:../Source Files/lpc_ssp_glcd.c **** #include "math.h"
  31:../Source Files/lpc_ssp_glcd.c **** #include "Font_24x16.h"
  32:../Source Files/lpc_ssp_glcd.c **** #include "Font_5x7.h"
  33:../Source Files/lpc_ssp_glcd.c **** 
  34:../Source Files/lpc_ssp_glcd.c **** 
  35:../Source Files/lpc_ssp_glcd.c **** /* If this source file built with example, the LPC17xx FW library configuration
  36:../Source Files/lpc_ssp_glcd.c ****  * file in each example directory ("lpc17xx_libcfg.h") must be included,
  37:../Source Files/lpc_ssp_glcd.c ****  * otherwise the default FW library configuration file must be included instead
  38:../Source Files/lpc_ssp_glcd.c ****  */
  39:../Source Files/lpc_ssp_glcd.c **** 
  40:../Source Files/lpc_ssp_glcd.c **** /******************************************************************************/
  41:../Source Files/lpc_ssp_glcd.c **** static volatile uint16_t TextColor = Black, BackColor = White;
  42:../Source Files/lpc_ssp_glcd.c **** 
  43:../Source Files/lpc_ssp_glcd.c **** // Swap two bytes
  44:../Source Files/lpc_ssp_glcd.c **** #define SWAP(x,y) do { (x)=(x)^(y); (y)=(x)^(y); (x)=(x)^(y); } while(0)
  45:../Source Files/lpc_ssp_glcd.c **** #define bit_test(D,i) (D & (0x01 << i))
  46:../Source Files/lpc_ssp_glcd.c **** 
  47:../Source Files/lpc_ssp_glcd.c **** /** @addtogroup GLCD_Public_Functions
  48:../Source Files/lpc_ssp_glcd.c ****  * @{
  49:../Source Files/lpc_ssp_glcd.c ****  */
  50:../Source Files/lpc_ssp_glcd.c **** 
  51:../Source Files/lpc_ssp_glcd.c **** /* Public Functions ----------------------------------------------------------- */
  52:../Source Files/lpc_ssp_glcd.c **** 
  53:../Source Files/lpc_ssp_glcd.c **** /*********************************************************************//**
  54:../Source Files/lpc_ssp_glcd.c ****  * @brief	    This function controls Backlight
  55:../Source Files/lpc_ssp_glcd.c ****  * @param[in]	NewState	ENABLE/DISABLE the Backlight
  56:../Source Files/lpc_ssp_glcd.c ****  * @return 		None
  57:../Source Files/lpc_ssp_glcd.c ****  **********************************************************************/
  58:../Source Files/lpc_ssp_glcd.c **** void GLCD_Backlight (FunctionalState NewState)
  59:../Source Files/lpc_ssp_glcd.c **** {
  60:../Source Files/lpc_ssp_glcd.c **** 	if(NewState)
  61:../Source Files/lpc_ssp_glcd.c **** 	{
  62:../Source Files/lpc_ssp_glcd.c **** 		GPIO_SetValue(2, LCD_BK);
  63:../Source Files/lpc_ssp_glcd.c **** 	}
  64:../Source Files/lpc_ssp_glcd.c **** 	else
  65:../Source Files/lpc_ssp_glcd.c **** 	{
  66:../Source Files/lpc_ssp_glcd.c **** 		GPIO_ClearValue(2, LCD_BK);
  67:../Source Files/lpc_ssp_glcd.c **** 	}
  68:../Source Files/lpc_ssp_glcd.c **** }
  69:../Source Files/lpc_ssp_glcd.c **** 
  70:../Source Files/lpc_ssp_glcd.c **** 
  71:../Source Files/lpc_ssp_glcd.c **** /*********************************************************************//**
  72:../Source Files/lpc_ssp_glcd.c ****  * @brief	    This function resets GLCD
  73:../Source Files/lpc_ssp_glcd.c ****  * @param[in]	None
  74:../Source Files/lpc_ssp_glcd.c ****  * @return 		None
  75:../Source Files/lpc_ssp_glcd.c ****  **********************************************************************/
  76:../Source Files/lpc_ssp_glcd.c **** void GLCD_Reset (void)
  77:../Source Files/lpc_ssp_glcd.c **** {
  78:../Source Files/lpc_ssp_glcd.c **** 	GPIO_SetValue(0, LCD_RST);
  79:../Source Files/lpc_ssp_glcd.c **** 	delay_ms(2);
  80:../Source Files/lpc_ssp_glcd.c **** 	GPIO_ClearValue(0, LCD_RST);  //reset low
  81:../Source Files/lpc_ssp_glcd.c **** 	delay_ms(4);
  82:../Source Files/lpc_ssp_glcd.c **** 	GPIO_SetValue(0, LCD_RST);  //reset low
  83:../Source Files/lpc_ssp_glcd.c **** }
  84:../Source Files/lpc_ssp_glcd.c **** 
  85:../Source Files/lpc_ssp_glcd.c **** 
  86:../Source Files/lpc_ssp_glcd.c **** /*********************************************************************//**
  87:../Source Files/lpc_ssp_glcd.c ****  * @brief	    This function controls GLCD Output
  88:../Source Files/lpc_ssp_glcd.c ****  * @param[in]	drv	    Output Format
  89:../Source Files/lpc_ssp_glcd.c ****  * 						- TOP_LEFT
  90:../Source Files/lpc_ssp_glcd.c ****  * 						- TOP_RIGHT
  91:../Source Files/lpc_ssp_glcd.c ****  * 						- BOTTOM_LEFT
  92:../Source Files/lpc_ssp_glcd.c ****  * 						- BOTTOM_RIGHT
  93:../Source Files/lpc_ssp_glcd.c ****  * @return 		None
  94:../Source Files/lpc_ssp_glcd.c ****  **********************************************************************/
  95:../Source Files/lpc_ssp_glcd.c **** void GLCD_Driver_OutCtrl (DRIVER_OUT_Type drv)
  96:../Source Files/lpc_ssp_glcd.c **** {
  97:../Source Files/lpc_ssp_glcd.c **** 	Write_Command_Glcd(0x01);    // Driver Output Control
  98:../Source Files/lpc_ssp_glcd.c **** 
  99:../Source Files/lpc_ssp_glcd.c **** 	switch (drv)
 100:../Source Files/lpc_ssp_glcd.c **** 	{
 101:../Source Files/lpc_ssp_glcd.c **** 	case TOP_LEFT:
 102:../Source Files/lpc_ssp_glcd.c **** 		Write_Data_Glcd(0x72EF);       // Page 36-39 of SSD2119 datasheet
 103:../Source Files/lpc_ssp_glcd.c **** 		break;
 104:../Source Files/lpc_ssp_glcd.c **** 
 105:../Source Files/lpc_ssp_glcd.c **** 	case TOP_RIGHT:
 106:../Source Files/lpc_ssp_glcd.c **** 		Write_Data_Glcd(0x70EF);       // Page 36-39 of SSD2119 datasheet
 107:../Source Files/lpc_ssp_glcd.c **** 		break;
 108:../Source Files/lpc_ssp_glcd.c **** 
 109:../Source Files/lpc_ssp_glcd.c **** 	case BOTTOM_LEFT:
 110:../Source Files/lpc_ssp_glcd.c **** 		Write_Data_Glcd(0x32EF);       // Page 36-39 of SSD2119 datasheet
 111:../Source Files/lpc_ssp_glcd.c **** 		break;
 112:../Source Files/lpc_ssp_glcd.c **** 
 113:../Source Files/lpc_ssp_glcd.c **** 	case BOTTOM_RIGHT:
 114:../Source Files/lpc_ssp_glcd.c **** 		Write_Data_Glcd(0x30EF);       // Page 36-39 of SSD2119 datasheet
 115:../Source Files/lpc_ssp_glcd.c **** 		break;
 116:../Source Files/lpc_ssp_glcd.c **** 
 117:../Source Files/lpc_ssp_glcd.c **** 	default:
 118:../Source Files/lpc_ssp_glcd.c **** 		break;
 119:../Source Files/lpc_ssp_glcd.c **** 	}
 120:../Source Files/lpc_ssp_glcd.c **** }
 121:../Source Files/lpc_ssp_glcd.c **** 
 122:../Source Files/lpc_ssp_glcd.c **** 
 123:../Source Files/lpc_ssp_glcd.c **** /*********************************************************************//**
 124:../Source Files/lpc_ssp_glcd.c ****  * @brief	    Set draw window region to required width and height
 125:../Source Files/lpc_ssp_glcd.c ****  *              as well as location
 126:../Source Files/lpc_ssp_glcd.c ****  * @param[in]	x        horizontal position
 127:../Source Files/lpc_ssp_glcd.c ****  *              y        vertical position
 128:../Source Files/lpc_ssp_glcd.c ****  *              w        width of bitmap
 129:../Source Files/lpc_ssp_glcd.c ****  *              h        height of bitmap
 130:../Source Files/lpc_ssp_glcd.c ****  * @return 		None
 131:../Source Files/lpc_ssp_glcd.c ****  **********************************************************************/
 132:../Source Files/lpc_ssp_glcd.c **** void GLCD_Window (uint16_t x, uint16_t y, uint16_t w, uint16_t h)
 133:../Source Files/lpc_ssp_glcd.c **** {
 134:../Source Files/lpc_ssp_glcd.c **** 	Write_Command_Glcd(0x45);      /* Horizontal GRAM Start Address      */
 135:../Source Files/lpc_ssp_glcd.c **** 	Write_Data_Glcd(x);
 136:../Source Files/lpc_ssp_glcd.c **** 
 137:../Source Files/lpc_ssp_glcd.c **** 	Write_Command_Glcd(0x46);      /* Horizontal GRAM End   Address (-1) */
 138:../Source Files/lpc_ssp_glcd.c **** 	Write_Data_Glcd(x+w-1);
 139:../Source Files/lpc_ssp_glcd.c **** 
 140:../Source Files/lpc_ssp_glcd.c **** 	Write_Command_Glcd(0x44);      /* Vertical   GRAM Start Address      */
 141:../Source Files/lpc_ssp_glcd.c **** 	Write_Data_Glcd(y);
 142:../Source Files/lpc_ssp_glcd.c **** 
 143:../Source Files/lpc_ssp_glcd.c **** 	Write_Command_Glcd(0x44);      /* Vertical   GRAM End   Address (-1) */
 144:../Source Files/lpc_ssp_glcd.c **** 	Write_Data_Glcd((y+h-1)<<8);
 145:../Source Files/lpc_ssp_glcd.c **** }
 146:../Source Files/lpc_ssp_glcd.c **** 
 147:../Source Files/lpc_ssp_glcd.c **** 
 148:../Source Files/lpc_ssp_glcd.c **** /*********************************************************************//**
 149:../Source Files/lpc_ssp_glcd.c ****  * @brief	    This function Sets Cursor to to desired location
 150:../Source Files/lpc_ssp_glcd.c ****  * @param[in]	x        horizontal position
 151:../Source Files/lpc_ssp_glcd.c ****  *              y        vertical position
 152:../Source Files/lpc_ssp_glcd.c ****  *              w        width of bitmap
 153:../Source Files/lpc_ssp_glcd.c ****  *              h        height of bitmap
 154:../Source Files/lpc_ssp_glcd.c ****  * @return 		None
 155:../Source Files/lpc_ssp_glcd.c ****  **********************************************************************/
 156:../Source Files/lpc_ssp_glcd.c **** void GLCD_Set_Loc (uint16_t x, uint16_t y, uint16_t w, uint16_t h)
 157:../Source Files/lpc_ssp_glcd.c **** {
 158:../Source Files/lpc_ssp_glcd.c **** 	GLCD_Window (x,y,w,h);
 159:../Source Files/lpc_ssp_glcd.c **** 
 160:../Source Files/lpc_ssp_glcd.c **** 	Write_Command_Glcd(0x4E);    // GDDRAM Horizontal
 161:../Source Files/lpc_ssp_glcd.c **** 	Write_Data_Glcd(x);       // Page 58 of SSD2119 datasheet
 162:../Source Files/lpc_ssp_glcd.c **** 
 163:../Source Files/lpc_ssp_glcd.c **** 	Write_Command_Glcd(0x4F);    // GDDRAM Vertical
 164:../Source Files/lpc_ssp_glcd.c **** 	Write_Data_Glcd(y);       // Page 58 of SSD2119 datasheet
 165:../Source Files/lpc_ssp_glcd.c **** 
 166:../Source Files/lpc_ssp_glcd.c **** 	Write_Command_Glcd(0x22);    // RAM data write/read
 167:../Source Files/lpc_ssp_glcd.c **** }
 168:../Source Files/lpc_ssp_glcd.c **** 
 169:../Source Files/lpc_ssp_glcd.c **** 
 170:../Source Files/lpc_ssp_glcd.c **** /*********************************************************************//**
 171:../Source Files/lpc_ssp_glcd.c ****  * @brief	    This function Sets Cursor to Home
 172:../Source Files/lpc_ssp_glcd.c ****  * @param[in]	None
 173:../Source Files/lpc_ssp_glcd.c ****  * @return 		None
 174:../Source Files/lpc_ssp_glcd.c ****  **********************************************************************/
 175:../Source Files/lpc_ssp_glcd.c **** void GLCD_Display_Home (void)
 176:../Source Files/lpc_ssp_glcd.c **** {
 177:../Source Files/lpc_ssp_glcd.c **** 	GLCD_Set_Loc (0,0,320,240);
 178:../Source Files/lpc_ssp_glcd.c **** }
 179:../Source Files/lpc_ssp_glcd.c **** 
 180:../Source Files/lpc_ssp_glcd.c **** 
 181:../Source Files/lpc_ssp_glcd.c **** /*********************************************************************//**
 182:../Source Files/lpc_ssp_glcd.c ****  * @brief	    This function Initializes GLCD
 183:../Source Files/lpc_ssp_glcd.c ****  * @param[in]	None
 184:../Source Files/lpc_ssp_glcd.c ****  * @return 		None
 185:../Source Files/lpc_ssp_glcd.c ****  **********************************************************************/
 186:../Source Files/lpc_ssp_glcd.c **** void GLCD_Init (void)
 187:../Source Files/lpc_ssp_glcd.c **** {
 188:../Source Files/lpc_ssp_glcd.c **** 	GPIO_SetDir(2, LCD_RS, 1);   // RS as output
 189:../Source Files/lpc_ssp_glcd.c **** 	GPIO_SetDir(0, LCD_RST, 1);  // Reset as Output
 190:../Source Files/lpc_ssp_glcd.c **** 	GPIO_SetDir(2, LCD_BK, 1);   // Backlight as output
 191:../Source Files/lpc_ssp_glcd.c **** 
 192:../Source Files/lpc_ssp_glcd.c **** 	delay_ms(2);
 193:../Source Files/lpc_ssp_glcd.c **** 	GLCD_Reset();                // Reset GLCD
 194:../Source Files/lpc_ssp_glcd.c **** 	GLCD_Backlight(ENABLE);
 195:../Source Files/lpc_ssp_glcd.c **** 	delay_ms(2);
 196:../Source Files/lpc_ssp_glcd.c **** 
 197:../Source Files/lpc_ssp_glcd.c **** 	Write_Command_Glcd(0x28);    // VCOM OTP
 198:../Source Files/lpc_ssp_glcd.c **** 	Write_Data_Glcd(0x0006);     // Page 55-56 of SSD2119 datasheet
 199:../Source Files/lpc_ssp_glcd.c **** 
 200:../Source Files/lpc_ssp_glcd.c **** 	Write_Command_Glcd(0x00);    // start Oscillator
 201:../Source Files/lpc_ssp_glcd.c **** 	Write_Data_Glcd(0x0001);     // Page 36 of SSD2119 datasheet
 202:../Source Files/lpc_ssp_glcd.c **** 
 203:../Source Files/lpc_ssp_glcd.c **** 	Write_Command_Glcd(0x10);    // Sleep mode
 204:../Source Files/lpc_ssp_glcd.c **** 	Write_Data_Glcd(0x0000);     // Page 49 of SSD2119 datasheet
 205:../Source Files/lpc_ssp_glcd.c **** 
 206:../Source Files/lpc_ssp_glcd.c **** 	GLCD_Driver_OutCtrl (TOP_LEFT);
 207:../Source Files/lpc_ssp_glcd.c **** 
 208:../Source Files/lpc_ssp_glcd.c **** 	Write_Command_Glcd(0x02);    // LCD Driving Waveform Control
 209:../Source Files/lpc_ssp_glcd.c **** 	Write_Data_Glcd(0x0600);     // Page 40-42 of SSD2119 datasheet
 210:../Source Files/lpc_ssp_glcd.c **** 
 211:../Source Files/lpc_ssp_glcd.c **** 	Write_Command_Glcd(0x03);    // Power Control 1
 212:../Source Files/lpc_ssp_glcd.c **** 	Write_Data_Glcd(0x6A38);     // Page 43-44 of SSD2119 datasheet 6A38
 213:../Source Files/lpc_ssp_glcd.c **** 
 214:../Source Files/lpc_ssp_glcd.c **** 	Write_Command_Glcd(0x11);    // Entry Mode
 215:../Source Files/lpc_ssp_glcd.c **** 	Write_Data_Glcd(0x6870);     // Page 50-52 of SSD2119 datasheet
 216:../Source Files/lpc_ssp_glcd.c **** 
 217:../Source Files/lpc_ssp_glcd.c **** 	Write_Command_Glcd(0x0F);    // Gate Scan Position
 218:../Source Files/lpc_ssp_glcd.c **** 	Write_Data_Glcd(0x0000);     // Page 49 of SSD2119 datasheet
 219:../Source Files/lpc_ssp_glcd.c **** 
 220:../Source Files/lpc_ssp_glcd.c **** 	Write_Command_Glcd(0x0B);    // Frame Cycle Control
 221:../Source Files/lpc_ssp_glcd.c **** 	Write_Data_Glcd(0x5308);     // Page 45 of SSD2119 datasheet
 222:../Source Files/lpc_ssp_glcd.c **** 
 223:../Source Files/lpc_ssp_glcd.c **** 	Write_Command_Glcd(0x0C);    // Power Control 2
 224:../Source Files/lpc_ssp_glcd.c **** 	Write_Data_Glcd(0x0003);     // Page 47 of SSD2119 datasheet
 225:../Source Files/lpc_ssp_glcd.c **** 
 226:../Source Files/lpc_ssp_glcd.c **** 	Write_Command_Glcd(0x0D);    // Power Control 3
 227:../Source Files/lpc_ssp_glcd.c **** 	Write_Data_Glcd(0x000A);     // Page 48 of SSD2119 datasheet
 228:../Source Files/lpc_ssp_glcd.c **** 
 229:../Source Files/lpc_ssp_glcd.c **** 	Write_Command_Glcd(0x0E);    // Power Control 4
 230:../Source Files/lpc_ssp_glcd.c **** 	Write_Data_Glcd(0x2E00);     // Page 48 of SSD2119 datasheet
 231:../Source Files/lpc_ssp_glcd.c **** 
 232:../Source Files/lpc_ssp_glcd.c **** 	Write_Command_Glcd(0x1E);    // Power Control 5
 233:../Source Files/lpc_ssp_glcd.c **** 	Write_Data_Glcd(0x00BE);     // Page 53 of SSD2119 datasheet
 234:../Source Files/lpc_ssp_glcd.c **** 
 235:../Source Files/lpc_ssp_glcd.c **** 	Write_Command_Glcd(0x25);    // Frame Frequency Control
 236:../Source Files/lpc_ssp_glcd.c **** 	Write_Data_Glcd(0x8000);     // Page 53 of SSD2119 datasheet  8000
 237:../Source Files/lpc_ssp_glcd.c **** 
 238:../Source Files/lpc_ssp_glcd.c **** 	Write_Command_Glcd(0x26);    // Analog setting
 239:../Source Files/lpc_ssp_glcd.c **** 	Write_Data_Glcd(0x7800);     // Page 54 of SSD2119 datasheet
 240:../Source Files/lpc_ssp_glcd.c **** 
 241:../Source Files/lpc_ssp_glcd.c **** 	Write_Command_Glcd(0x4E);    // Ram Address Set
 242:../Source Files/lpc_ssp_glcd.c **** 	Write_Data_Glcd(0x0000);     // Page 58 of SSD2119 datasheet
 243:../Source Files/lpc_ssp_glcd.c **** 
 244:../Source Files/lpc_ssp_glcd.c **** 	Write_Command_Glcd(0x4F);    // Ram Address Set
 245:../Source Files/lpc_ssp_glcd.c **** 	Write_Data_Glcd(0x0000);     // Page 58 of SSD2119 datasheet
 246:../Source Files/lpc_ssp_glcd.c **** 
 247:../Source Files/lpc_ssp_glcd.c **** 	Write_Command_Glcd(0x12);    // Sleep mode
 248:../Source Files/lpc_ssp_glcd.c **** 	Write_Data_Glcd(0x08D9);     // Page 49 of SSD2119 datasheet
 249:../Source Files/lpc_ssp_glcd.c **** 
 250:../Source Files/lpc_ssp_glcd.c **** 	// Gamma Control (R30h to R3Bh) -- Page 56 of SSD2119 datasheet
 251:../Source Files/lpc_ssp_glcd.c **** 	Write_Command_Glcd(0x30);
 252:../Source Files/lpc_ssp_glcd.c **** 	Write_Data_Glcd(0x0000);
 253:../Source Files/lpc_ssp_glcd.c **** 
 254:../Source Files/lpc_ssp_glcd.c **** 	Write_Command_Glcd(0x31);
 255:../Source Files/lpc_ssp_glcd.c **** 	Write_Data_Glcd(0x0104);
 256:../Source Files/lpc_ssp_glcd.c **** 
 257:../Source Files/lpc_ssp_glcd.c **** 	Write_Command_Glcd(0x32);
 258:../Source Files/lpc_ssp_glcd.c **** 	Write_Data_Glcd(0x0100);
 259:../Source Files/lpc_ssp_glcd.c **** 
 260:../Source Files/lpc_ssp_glcd.c **** 	Write_Command_Glcd(0x33);
 261:../Source Files/lpc_ssp_glcd.c **** 	Write_Data_Glcd(0x0305);
 262:../Source Files/lpc_ssp_glcd.c **** 
 263:../Source Files/lpc_ssp_glcd.c **** 	Write_Command_Glcd(0x34);
 264:../Source Files/lpc_ssp_glcd.c **** 	Write_Data_Glcd(0x0505);
 265:../Source Files/lpc_ssp_glcd.c **** 
 266:../Source Files/lpc_ssp_glcd.c **** 	Write_Command_Glcd(0x35);
 267:../Source Files/lpc_ssp_glcd.c **** 	Write_Data_Glcd(0x0305);
 268:../Source Files/lpc_ssp_glcd.c **** 
 269:../Source Files/lpc_ssp_glcd.c **** 	Write_Command_Glcd(0x36);
 270:../Source Files/lpc_ssp_glcd.c **** 	Write_Data_Glcd(0x0707);
 271:../Source Files/lpc_ssp_glcd.c **** 
 272:../Source Files/lpc_ssp_glcd.c **** 	Write_Command_Glcd(0x37);
 273:../Source Files/lpc_ssp_glcd.c **** 	Write_Data_Glcd(0x0300);
 274:../Source Files/lpc_ssp_glcd.c **** 
 275:../Source Files/lpc_ssp_glcd.c **** 	Write_Command_Glcd(0x3A);
 276:../Source Files/lpc_ssp_glcd.c **** 	Write_Data_Glcd(0x1200);
 277:../Source Files/lpc_ssp_glcd.c **** 
 278:../Source Files/lpc_ssp_glcd.c **** 	Write_Command_Glcd(0x3B);
 279:../Source Files/lpc_ssp_glcd.c **** 	Write_Data_Glcd(0x0800);
 280:../Source Files/lpc_ssp_glcd.c **** 
 281:../Source Files/lpc_ssp_glcd.c **** 	Write_Command_Glcd(0x07);      // Display Control
 282:../Source Files/lpc_ssp_glcd.c **** 	Write_Data_Glcd(0x0033);       // Page 45 of SSD2119 datasheet
 283:../Source Files/lpc_ssp_glcd.c **** 
 284:../Source Files/lpc_ssp_glcd.c **** 	delay_ms(5);
 285:../Source Files/lpc_ssp_glcd.c **** 
 286:../Source Files/lpc_ssp_glcd.c **** 	Write_Command_Glcd(0x22);    // RAM data write/read
 287:../Source Files/lpc_ssp_glcd.c **** }
 288:../Source Files/lpc_ssp_glcd.c **** 
 289:../Source Files/lpc_ssp_glcd.c **** 
 290:../Source Files/lpc_ssp_glcd.c **** /*********************************************************************//**
 291:../Source Files/lpc_ssp_glcd.c ****  * @brief	    Draw a pixel in foreground color
 292:../Source Files/lpc_ssp_glcd.c ****  * @param[in]	x        horizontal position
 293:../Source Files/lpc_ssp_glcd.c ****  *              y        vertical position
 294:../Source Files/lpc_ssp_glcd.c ****  * @return 		None
 295:../Source Files/lpc_ssp_glcd.c ****  **********************************************************************/
 296:../Source Files/lpc_ssp_glcd.c **** void GLCD_PutPixel (uint16_t x, uint16_t y, uint16_t color)
 297:../Source Files/lpc_ssp_glcd.c **** {
 298:../Source Files/lpc_ssp_glcd.c **** 	Write_Command_Glcd(0x4E);     /* GDDRAM Horizontal */
 299:../Source Files/lpc_ssp_glcd.c **** 	Write_Data_Glcd(x);
 300:../Source Files/lpc_ssp_glcd.c **** 
 301:../Source Files/lpc_ssp_glcd.c **** 	Write_Command_Glcd(0x4F);     /* GDDRAM Vertical */
 302:../Source Files/lpc_ssp_glcd.c **** 	Write_Data_Glcd(y);
 303:../Source Files/lpc_ssp_glcd.c **** 
 304:../Source Files/lpc_ssp_glcd.c **** 	Write_Command_Glcd(0x22);      /* RAM data write     */
 305:../Source Files/lpc_ssp_glcd.c **** 	Write_Data_Glcd(color);
 306:../Source Files/lpc_ssp_glcd.c **** }
 307:../Source Files/lpc_ssp_glcd.c **** 
 308:../Source Files/lpc_ssp_glcd.c **** 
 309:../Source Files/lpc_ssp_glcd.c **** /*********************************************************************//**
 310:../Source Files/lpc_ssp_glcd.c ****  * @brief	    Set foreground color
 311:../Source Files/lpc_ssp_glcd.c ****  * @param[in]	color    foreground color
 312:../Source Files/lpc_ssp_glcd.c ****  * @return 		None
 313:../Source Files/lpc_ssp_glcd.c ****  **********************************************************************/
 314:../Source Files/lpc_ssp_glcd.c **** void GLCD_SetTextColor (uint16_t color)
 315:../Source Files/lpc_ssp_glcd.c **** {
 316:../Source Files/lpc_ssp_glcd.c **** 	TextColor = color;
 317:../Source Files/lpc_ssp_glcd.c **** }
 318:../Source Files/lpc_ssp_glcd.c **** 
 319:../Source Files/lpc_ssp_glcd.c **** 
 320:../Source Files/lpc_ssp_glcd.c **** /*********************************************************************//**
 321:../Source Files/lpc_ssp_glcd.c ****  * @brief	    Set background color
 322:../Source Files/lpc_ssp_glcd.c ****  * @param[in]	color    background color
 323:../Source Files/lpc_ssp_glcd.c ****  * @return 		None
 324:../Source Files/lpc_ssp_glcd.c ****  **********************************************************************/
 325:../Source Files/lpc_ssp_glcd.c **** void GLCD_SetBackColor (uint16_t color)
 326:../Source Files/lpc_ssp_glcd.c **** {
 327:../Source Files/lpc_ssp_glcd.c **** 	BackColor = color;
 328:../Source Files/lpc_ssp_glcd.c **** }
 329:../Source Files/lpc_ssp_glcd.c **** 
 330:../Source Files/lpc_ssp_glcd.c **** 
 331:../Source Files/lpc_ssp_glcd.c **** /*********************************************************************//**
 332:../Source Files/lpc_ssp_glcd.c ****  * @brief	    Start of data writing to LCD controller
 333:../Source Files/lpc_ssp_glcd.c ****  * @param[in]	None
 334:../Source Files/lpc_ssp_glcd.c ****  * @return 		None
 335:../Source Files/lpc_ssp_glcd.c ****  **********************************************************************/
 336:../Source Files/lpc_ssp_glcd.c **** static __INLINE void wr_dat_start (void)
 337:../Source Files/lpc_ssp_glcd.c **** {
  25              		.loc 1 337 0
  26              		.cfi_startproc
  27              		@ args = 0, pretend = 0, frame = 0
  28              		@ frame_needed = 0, uses_anonymous_args = 0
 338:../Source Files/lpc_ssp_glcd.c **** 	CS_Force1 (LPC_SSP1, DISABLE);
  29              		.loc 1 338 0
  30 0000 0021     		movs	r1, #0
 337:../Source Files/lpc_ssp_glcd.c **** {
  31              		.loc 1 337 0
  32 0002 08B5     		push	{r3, lr}
  33              	.LCFI0:
  34              		.cfi_def_cfa_offset 8
  35              		.cfi_offset 3, -8
  36              		.cfi_offset 14, -4
  37              		.loc 1 338 0
  38 0004 0448     		ldr	r0, .L2
  39 0006 FFF7FEFF 		bl	CS_Force1
  40              	.LVL0:
 339:../Source Files/lpc_ssp_glcd.c **** 	GPIO_SetValue(2, LCD_RS);  // select data mode
  41              		.loc 1 339 0
  42 000a 0220     		movs	r0, #2
  43 000c 0121     		movs	r1, #1
 340:../Source Files/lpc_ssp_glcd.c **** }
  44              		.loc 1 340 0
  45 000e BDE80840 		pop	{r3, lr}
 339:../Source Files/lpc_ssp_glcd.c **** 	GPIO_SetValue(2, LCD_RS);  // select data mode
  46              		.loc 1 339 0
  47 0012 FFF7FEBF 		b	GPIO_SetValue
  48              	.LVL1:
  49              	.L3:
  50 0016 00BF     		.align	2
  51              	.L2:
  52 0018 00000340 		.word	1073938432
  53              		.cfi_endproc
  54              	.LFE65:
  56              		.align	1
  57              		.thumb
  58              		.thumb_func
  60              	wr_dat_stop:
  61              	.LFB66:
 341:../Source Files/lpc_ssp_glcd.c **** 
 342:../Source Files/lpc_ssp_glcd.c **** 
 343:../Source Files/lpc_ssp_glcd.c **** /*********************************************************************//**
 344:../Source Files/lpc_ssp_glcd.c ****  * @brief	    Stop of data writing to LCD controller
 345:../Source Files/lpc_ssp_glcd.c ****  * @param[in]	None
 346:../Source Files/lpc_ssp_glcd.c ****  * @return 		None
 347:../Source Files/lpc_ssp_glcd.c ****  **********************************************************************/
 348:../Source Files/lpc_ssp_glcd.c **** static __INLINE void wr_dat_stop (void)
 349:../Source Files/lpc_ssp_glcd.c **** {
  62              		.loc 1 349 0
  63              		.cfi_startproc
  64              		@ args = 0, pretend = 0, frame = 0
  65              		@ frame_needed = 0, uses_anonymous_args = 0
  66              		@ link register save eliminated.
 350:../Source Files/lpc_ssp_glcd.c **** 	CS_Force1 (LPC_SSP1, ENABLE);
  67              		.loc 1 350 0
  68 001c 0148     		ldr	r0, .L5
  69 001e 0121     		movs	r1, #1
 351:../Source Files/lpc_ssp_glcd.c **** }
  70              		.loc 1 351 0
 350:../Source Files/lpc_ssp_glcd.c **** 	CS_Force1 (LPC_SSP1, ENABLE);
  71              		.loc 1 350 0
  72 0020 FFF7FEBF 		b	CS_Force1
  73              	.LVL2:
  74              	.L6:
  75              		.align	2
  76              	.L5:
  77 0024 00000340 		.word	1073938432
  78              		.cfi_endproc
  79              	.LFE66:
  81              		.align	1
  82              		.thumb
  83              		.thumb_func
  85              	wr_dat_only:
  86              	.LFB67:
 352:../Source Files/lpc_ssp_glcd.c **** 
 353:../Source Files/lpc_ssp_glcd.c **** 
 354:../Source Files/lpc_ssp_glcd.c **** /*********************************************************************//**
 355:../Source Files/lpc_ssp_glcd.c ****  * @brief	    Data writing to LCD controller
 356:../Source Files/lpc_ssp_glcd.c ****  * @param[in]	c     data to be written
 357:../Source Files/lpc_ssp_glcd.c ****  * @return 		None
 358:../Source Files/lpc_ssp_glcd.c ****  **********************************************************************/
 359:../Source Files/lpc_ssp_glcd.c **** static __INLINE void wr_dat_only (uint16_t c)
 360:../Source Files/lpc_ssp_glcd.c **** {
  87              		.loc 1 360 0
  88              		.cfi_startproc
  89              		@ args = 0, pretend = 0, frame = 24
  90              		@ frame_needed = 0, uses_anonymous_args = 0
  91              	.LVL3:
  92 0028 7FB5     		push	{r0, r1, r2, r3, r4, r5, r6, lr}
  93              	.LCFI1:
  94              		.cfi_def_cfa_offset 32
  95              		.cfi_offset 0, -32
  96              		.cfi_offset 1, -28
  97              		.cfi_offset 2, -24
  98              		.cfi_offset 3, -20
  99              		.cfi_offset 4, -16
 100              		.cfi_offset 5, -12
 101              		.cfi_offset 6, -8
 102              		.cfi_offset 14, -4
 361:../Source Files/lpc_ssp_glcd.c **** 	SSP_DATA_SETUP_Type xferConfig;
 362:../Source Files/lpc_ssp_glcd.c **** 
 363:../Source Files/lpc_ssp_glcd.c **** 	Tx_Buf1[0] = (uchar)(c>>8);    // 1st byte extract
 103              		.loc 1 363 0
 104 002a 074B     		ldr	r3, .L8
 105 002c 020A     		lsrs	r2, r0, #8
 364:../Source Files/lpc_ssp_glcd.c **** 	Tx_Buf1[1] = (uchar) c;        // 2nd byte extract
 106              		.loc 1 364 0
 107 002e 5870     		strb	r0, [r3, #1]
 365:../Source Files/lpc_ssp_glcd.c **** 
 366:../Source Files/lpc_ssp_glcd.c **** 	xferConfig.tx_data = Tx_Buf1;               /* Send Instruction Byte    */
 367:../Source Files/lpc_ssp_glcd.c **** 	xferConfig.rx_data = NULL;
 368:../Source Files/lpc_ssp_glcd.c **** 	xferConfig.length = 2;
 108              		.loc 1 368 0
 109 0030 0220     		movs	r0, #2
 110              	.LVL4:
 363:../Source Files/lpc_ssp_glcd.c **** 	Tx_Buf1[0] = (uchar)(c>>8);    // 1st byte extract
 111              		.loc 1 363 0
 112 0032 1A70     		strb	r2, [r3, #0]
 113              		.loc 1 368 0
 114 0034 0490     		str	r0, [sp, #16]
 367:../Source Files/lpc_ssp_glcd.c **** 	xferConfig.rx_data = NULL;
 115              		.loc 1 367 0
 116 0036 0022     		movs	r2, #0
 369:../Source Files/lpc_ssp_glcd.c **** 	SSP_ReadWrite(LPC_SSP1, &xferConfig, SSP_TRANSFER_POLLING);
 117              		.loc 1 369 0
 118 0038 6946     		mov	r1, sp
 119 003a 0448     		ldr	r0, .L8+4
 366:../Source Files/lpc_ssp_glcd.c **** 	xferConfig.tx_data = Tx_Buf1;               /* Send Instruction Byte    */
 120              		.loc 1 366 0
 121 003c 0093     		str	r3, [sp, #0]
 367:../Source Files/lpc_ssp_glcd.c **** 	xferConfig.rx_data = NULL;
 122              		.loc 1 367 0
 123 003e 0292     		str	r2, [sp, #8]
 124              		.loc 1 369 0
 125 0040 FFF7FEFF 		bl	SSP_ReadWrite
 126              	.LVL5:
 370:../Source Files/lpc_ssp_glcd.c **** }
 127              		.loc 1 370 0
 128 0044 07B0     		add	sp, sp, #28
 129 0046 00BD     		pop	{pc}
 130              	.L9:
 131              		.align	2
 132              	.L8:
 133 0048 00000000 		.word	Tx_Buf1
 134 004c 00000340 		.word	1073938432
 135              		.cfi_endproc
 136              	.LFE67:
 138              		.align	1
 139              		.global	GLCD_Backlight
 140              		.thumb
 141              		.thumb_func
 143              	GLCD_Backlight:
 144              	.LFB55:
  59:../Source Files/lpc_ssp_glcd.c **** {
 145              		.loc 1 59 0
 146              		.cfi_startproc
 147              		@ args = 0, pretend = 0, frame = 0
 148              		@ frame_needed = 0, uses_anonymous_args = 0
 149              		@ link register save eliminated.
 150              	.LVL6:
  60:../Source Files/lpc_ssp_glcd.c **** 	if(NewState)
 151              		.loc 1 60 0
 152 0050 20B1     		cbz	r0, .L11
  62:../Source Files/lpc_ssp_glcd.c **** 		GPIO_SetValue(2, LCD_BK);
 153              		.loc 1 62 0
 154 0052 0220     		movs	r0, #2
 155              	.LVL7:
 156 0054 4FF48071 		mov	r1, #256
  68:../Source Files/lpc_ssp_glcd.c **** }
 157              		.loc 1 68 0
  62:../Source Files/lpc_ssp_glcd.c **** 		GPIO_SetValue(2, LCD_BK);
 158              		.loc 1 62 0
 159 0058 FFF7FEBF 		b	GPIO_SetValue
 160              	.LVL8:
 161              	.L11:
  66:../Source Files/lpc_ssp_glcd.c **** 		GPIO_ClearValue(2, LCD_BK);
 162              		.loc 1 66 0
 163 005c 0220     		movs	r0, #2
 164              	.LVL9:
 165 005e 4FF48071 		mov	r1, #256
  68:../Source Files/lpc_ssp_glcd.c **** }
 166              		.loc 1 68 0
  66:../Source Files/lpc_ssp_glcd.c **** 		GPIO_ClearValue(2, LCD_BK);
 167              		.loc 1 66 0
 168 0062 FFF7FEBF 		b	GPIO_ClearValue
 169              	.LVL10:
 170              		.cfi_endproc
 171              	.LFE55:
 173              		.align	1
 174              		.global	GLCD_Reset
 175              		.thumb
 176              		.thumb_func
 178              	GLCD_Reset:
 179              	.LFB56:
  77:../Source Files/lpc_ssp_glcd.c **** {
 180              		.loc 1 77 0
 181              		.cfi_startproc
 182              		@ args = 0, pretend = 0, frame = 0
 183              		@ frame_needed = 0, uses_anonymous_args = 0
 184 0066 08B5     		push	{r3, lr}
 185              	.LCFI2:
 186              		.cfi_def_cfa_offset 8
 187              		.cfi_offset 3, -8
 188              		.cfi_offset 14, -4
  78:../Source Files/lpc_ssp_glcd.c **** 	GPIO_SetValue(0, LCD_RST);
 189              		.loc 1 78 0
 190 0068 2021     		movs	r1, #32
 191 006a 0020     		movs	r0, #0
 192 006c FFF7FEFF 		bl	GPIO_SetValue
 193              	.LVL11:
  79:../Source Files/lpc_ssp_glcd.c **** 	delay_ms(2);
 194              		.loc 1 79 0
 195 0070 0220     		movs	r0, #2
 196 0072 FFF7FEFF 		bl	delay_ms
 197              	.LVL12:
  80:../Source Files/lpc_ssp_glcd.c **** 	GPIO_ClearValue(0, LCD_RST);  //reset low
 198              		.loc 1 80 0
 199 0076 2021     		movs	r1, #32
 200 0078 0020     		movs	r0, #0
 201 007a FFF7FEFF 		bl	GPIO_ClearValue
 202              	.LVL13:
  81:../Source Files/lpc_ssp_glcd.c **** 	delay_ms(4);
 203              		.loc 1 81 0
 204 007e 0420     		movs	r0, #4
 205 0080 FFF7FEFF 		bl	delay_ms
 206              	.LVL14:
  82:../Source Files/lpc_ssp_glcd.c **** 	GPIO_SetValue(0, LCD_RST);  //reset low
 207              		.loc 1 82 0
 208 0084 0020     		movs	r0, #0
 209 0086 2021     		movs	r1, #32
  83:../Source Files/lpc_ssp_glcd.c **** }
 210              		.loc 1 83 0
 211 0088 BDE80840 		pop	{r3, lr}
  82:../Source Files/lpc_ssp_glcd.c **** 	GPIO_SetValue(0, LCD_RST);  //reset low
 212              		.loc 1 82 0
 213 008c FFF7FEBF 		b	GPIO_SetValue
 214              	.LVL15:
 215              		.cfi_endproc
 216              	.LFE56:
 218              		.align	1
 219              		.global	GLCD_SetTextColor
 220              		.thumb
 221              		.thumb_func
 223              	GLCD_SetTextColor:
 224              	.LFB63:
 315:../Source Files/lpc_ssp_glcd.c **** {
 225              		.loc 1 315 0
 226              		.cfi_startproc
 227              		@ args = 0, pretend = 0, frame = 0
 228              		@ frame_needed = 0, uses_anonymous_args = 0
 229              		@ link register save eliminated.
 230              	.LVL16:
 316:../Source Files/lpc_ssp_glcd.c **** 	TextColor = color;
 231              		.loc 1 316 0
 232 0090 014B     		ldr	r3, .L15
 233 0092 1880     		strh	r0, [r3, #0]	@ movhi
 234 0094 7047     		bx	lr
 235              	.L16:
 236 0096 00BF     		.align	2
 237              	.L15:
 238 0098 00000000 		.word	.LANCHOR0
 239              		.cfi_endproc
 240              	.LFE63:
 242              		.align	1
 243              		.global	GLCD_SetBackColor
 244              		.thumb
 245              		.thumb_func
 247              	GLCD_SetBackColor:
 248              	.LFB64:
 326:../Source Files/lpc_ssp_glcd.c **** {
 249              		.loc 1 326 0
 250              		.cfi_startproc
 251              		@ args = 0, pretend = 0, frame = 0
 252              		@ frame_needed = 0, uses_anonymous_args = 0
 253              		@ link register save eliminated.
 254              	.LVL17:
 327:../Source Files/lpc_ssp_glcd.c **** 	BackColor = color;
 255              		.loc 1 327 0
 256 009c 014B     		ldr	r3, .L18
 257 009e 1880     		strh	r0, [r3, #0]	@ movhi
 258 00a0 7047     		bx	lr
 259              	.L19:
 260 00a2 00BF     		.align	2
 261              	.L18:
 262 00a4 00000000 		.word	.LANCHOR1
 263              		.cfi_endproc
 264              	.LFE64:
 266              		.align	1
 267              		.global	Write_Command_Glcd
 268              		.thumb
 269              		.thumb_func
 271              	Write_Command_Glcd:
 272              	.LFB85:
 371:../Source Files/lpc_ssp_glcd.c **** 
 372:../Source Files/lpc_ssp_glcd.c **** 
 373:../Source Files/lpc_ssp_glcd.c **** /*********************************************************************//**
 374:../Source Files/lpc_ssp_glcd.c ****  * @brief	    Clear display
 375:../Source Files/lpc_ssp_glcd.c ****  * @param[in]	color    display clearing color
 376:../Source Files/lpc_ssp_glcd.c ****  * @return 		None
 377:../Source Files/lpc_ssp_glcd.c ****  **********************************************************************/
 378:../Source Files/lpc_ssp_glcd.c **** void GLCD_Clear (uint16_t color)
 379:../Source Files/lpc_ssp_glcd.c **** {
 380:../Source Files/lpc_ssp_glcd.c **** 	unsigned int   i;
 381:../Source Files/lpc_ssp_glcd.c **** 
 382:../Source Files/lpc_ssp_glcd.c **** 	GLCD_Window (0,0,320,240);    // Window Max
 383:../Source Files/lpc_ssp_glcd.c **** 
 384:../Source Files/lpc_ssp_glcd.c **** 	Write_Command_Glcd(0x4E);     /* GDDRAM Horizontal */
 385:../Source Files/lpc_ssp_glcd.c **** 	Write_Data_Glcd(0);
 386:../Source Files/lpc_ssp_glcd.c **** 
 387:../Source Files/lpc_ssp_glcd.c **** 	Write_Command_Glcd(0x4F);     /* GDDRAM Vertical */
 388:../Source Files/lpc_ssp_glcd.c **** 	Write_Data_Glcd(0);
 389:../Source Files/lpc_ssp_glcd.c **** 
 390:../Source Files/lpc_ssp_glcd.c **** 	Write_Command_Glcd(0x22);
 391:../Source Files/lpc_ssp_glcd.c **** 	wr_dat_start();
 392:../Source Files/lpc_ssp_glcd.c **** 	for(i = 0; i < (WIDTH*HEIGHT); i++)
 393:../Source Files/lpc_ssp_glcd.c **** 		wr_dat_only(color);
 394:../Source Files/lpc_ssp_glcd.c **** 	wr_dat_stop();
 395:../Source Files/lpc_ssp_glcd.c **** }
 396:../Source Files/lpc_ssp_glcd.c **** 
 397:../Source Files/lpc_ssp_glcd.c **** 
 398:../Source Files/lpc_ssp_glcd.c **** /*********************************************************************//**
 399:../Source Files/lpc_ssp_glcd.c ****  * @brief	    Draw character on given position
 400:../Source Files/lpc_ssp_glcd.c ****  * @param[in]	x       horizontal position
 401:../Source Files/lpc_ssp_glcd.c ****  *              y       vertical position
 402:../Source Files/lpc_ssp_glcd.c ****  *              c       pointer to character bitmap
 403:../Source Files/lpc_ssp_glcd.c ****  * @return 		None
 404:../Source Files/lpc_ssp_glcd.c ****  **********************************************************************/
 405:../Source Files/lpc_ssp_glcd.c **** void GLCD_Draw_Char (uint16_t x, uint16_t y, uint16_t *c)
 406:../Source Files/lpc_ssp_glcd.c **** {
 407:../Source Files/lpc_ssp_glcd.c **** 	int idx = 0, i, j;
 408:../Source Files/lpc_ssp_glcd.c **** 
 409:../Source Files/lpc_ssp_glcd.c **** 	x = x-CHAR_W;
 410:../Source Files/lpc_ssp_glcd.c **** 
 411:../Source Files/lpc_ssp_glcd.c **** 	Write_Command_Glcd(0x45);      /* Horizontal GRAM Start Address      */
 412:../Source Files/lpc_ssp_glcd.c **** 	Write_Data_Glcd(x);
 413:../Source Files/lpc_ssp_glcd.c **** 
 414:../Source Files/lpc_ssp_glcd.c **** 	Write_Command_Glcd(0x46);      /* Horizontal GRAM End   Address (-1) */
 415:../Source Files/lpc_ssp_glcd.c **** 	Write_Data_Glcd(x+CHAR_W-1);
 416:../Source Files/lpc_ssp_glcd.c **** 
 417:../Source Files/lpc_ssp_glcd.c **** 	Write_Command_Glcd(0x44);      /* Vertical   GRAM Start Address      */
 418:../Source Files/lpc_ssp_glcd.c **** 	Write_Data_Glcd(y);
 419:../Source Files/lpc_ssp_glcd.c **** 
 420:../Source Files/lpc_ssp_glcd.c **** 	Write_Command_Glcd(0x44);      /* Vertical   GRAM End   Address (-1) */
 421:../Source Files/lpc_ssp_glcd.c **** 	Write_Data_Glcd((y+CHAR_H-1)<<8);
 422:../Source Files/lpc_ssp_glcd.c **** 
 423:../Source Files/lpc_ssp_glcd.c **** 	Write_Command_Glcd(0x4E);     /* GDDRAM Horizontal */
 424:../Source Files/lpc_ssp_glcd.c **** 	Write_Data_Glcd(x);
 425:../Source Files/lpc_ssp_glcd.c **** 
 426:../Source Files/lpc_ssp_glcd.c **** 	Write_Command_Glcd(0x4F);     /* GDDRAM Vertical */
 427:../Source Files/lpc_ssp_glcd.c **** 	Write_Data_Glcd(y);
 428:../Source Files/lpc_ssp_glcd.c **** 
 429:../Source Files/lpc_ssp_glcd.c **** 	Write_Command_Glcd(0x22);
 430:../Source Files/lpc_ssp_glcd.c **** 
 431:../Source Files/lpc_ssp_glcd.c **** 	wr_dat_start();
 432:../Source Files/lpc_ssp_glcd.c **** 	for (j = 0; j < CHAR_H; j++)
 433:../Source Files/lpc_ssp_glcd.c **** 	{
 434:../Source Files/lpc_ssp_glcd.c **** 		for (i = 0; i<CHAR_W; i++)
 435:../Source Files/lpc_ssp_glcd.c **** 		{
 436:../Source Files/lpc_ssp_glcd.c **** 			if((c[idx] & (1 << i)) == 0x00)
 437:../Source Files/lpc_ssp_glcd.c **** 			{
 438:../Source Files/lpc_ssp_glcd.c **** 				wr_dat_only(BackColor);
 439:../Source Files/lpc_ssp_glcd.c **** 			}
 440:../Source Files/lpc_ssp_glcd.c **** 			else
 441:../Source Files/lpc_ssp_glcd.c **** 			{
 442:../Source Files/lpc_ssp_glcd.c **** 				wr_dat_only(TextColor);
 443:../Source Files/lpc_ssp_glcd.c **** 			}
 444:../Source Files/lpc_ssp_glcd.c **** 		}
 445:../Source Files/lpc_ssp_glcd.c **** 		c++;
 446:../Source Files/lpc_ssp_glcd.c **** 	}
 447:../Source Files/lpc_ssp_glcd.c **** 	wr_dat_stop();
 448:../Source Files/lpc_ssp_glcd.c **** }
 449:../Source Files/lpc_ssp_glcd.c **** 
 450:../Source Files/lpc_ssp_glcd.c **** 
 451:../Source Files/lpc_ssp_glcd.c **** /*********************************************************************//**
 452:../Source Files/lpc_ssp_glcd.c ****  * @brief	    Disply character on given line
 453:../Source Files/lpc_ssp_glcd.c ****  * @param[in]	ln       line number
 454:../Source Files/lpc_ssp_glcd.c ****  *              col      column number
 455:../Source Files/lpc_ssp_glcd.c ****  *              c        ascii character
 456:../Source Files/lpc_ssp_glcd.c ****  * @return 		None
 457:../Source Files/lpc_ssp_glcd.c ****  **********************************************************************/
 458:../Source Files/lpc_ssp_glcd.c **** void GLCD_Display_Char (uint16_t ln, uint16_t col, uchar c)
 459:../Source Files/lpc_ssp_glcd.c **** {
 460:../Source Files/lpc_ssp_glcd.c **** 	c -= 32;
 461:../Source Files/lpc_ssp_glcd.c **** 	GLCD_Draw_Char(col * CHAR_W, ln * CHAR_H, (uint16_t *)&Font_24x16[c * CHAR_H]);
 462:../Source Files/lpc_ssp_glcd.c **** }
 463:../Source Files/lpc_ssp_glcd.c **** 
 464:../Source Files/lpc_ssp_glcd.c **** 
 465:../Source Files/lpc_ssp_glcd.c **** /*********************************************************************//**
 466:../Source Files/lpc_ssp_glcd.c ****  * @brief	    Disply string on given line
 467:../Source Files/lpc_ssp_glcd.c ****  * @param[in]	ln       line number
 468:../Source Files/lpc_ssp_glcd.c ****  *              col      column number
 469:../Source Files/lpc_ssp_glcd.c ****  *              s        pointer to string
 470:../Source Files/lpc_ssp_glcd.c ****  * @return 		None
 471:../Source Files/lpc_ssp_glcd.c ****  **********************************************************************/
 472:../Source Files/lpc_ssp_glcd.c **** void GLCD_Display_String (uint16_t ln, uint16_t col, uchar *s)
 473:../Source Files/lpc_ssp_glcd.c **** {
 474:../Source Files/lpc_ssp_glcd.c **** 	GLCD_Window(0,0,320,240);  // Window Max
 475:../Source Files/lpc_ssp_glcd.c **** 	while (*s)
 476:../Source Files/lpc_ssp_glcd.c **** 	{
 477:../Source Files/lpc_ssp_glcd.c **** 		GLCD_Display_Char(ln, col++, *s++);
 478:../Source Files/lpc_ssp_glcd.c **** 	}
 479:../Source Files/lpc_ssp_glcd.c **** }
 480:../Source Files/lpc_ssp_glcd.c **** 
 481:../Source Files/lpc_ssp_glcd.c **** 
 482:../Source Files/lpc_ssp_glcd.c **** /*********************************************************************//**
 483:../Source Files/lpc_ssp_glcd.c ****  * @brief	    Clear given line
 484:../Source Files/lpc_ssp_glcd.c ****  * @param[in]	ln       line number
 485:../Source Files/lpc_ssp_glcd.c ****  * @return 		None
 486:../Source Files/lpc_ssp_glcd.c ****  **********************************************************************/
 487:../Source Files/lpc_ssp_glcd.c **** void GLCD_ClearLn (uint16_t ln)
 488:../Source Files/lpc_ssp_glcd.c **** {
 489:../Source Files/lpc_ssp_glcd.c **** 	GLCD_Window(0,0,320,240);  // Window Max
 490:../Source Files/lpc_ssp_glcd.c **** 	GLCD_Display_String(ln, 0, "                    ");
 491:../Source Files/lpc_ssp_glcd.c **** }
 492:../Source Files/lpc_ssp_glcd.c **** 
 493:../Source Files/lpc_ssp_glcd.c **** 
 494:../Source Files/lpc_ssp_glcd.c **** /*********************************************************************//**
 495:../Source Files/lpc_ssp_glcd.c ****  * @brief	    Draw bargraph
 496:../Source Files/lpc_ssp_glcd.c ****  * @param[in]	x        horizontal position
 497:../Source Files/lpc_ssp_glcd.c ****  *              y        vertical position
 498:../Source Files/lpc_ssp_glcd.c ****  *              w        maximum width of bargraph (in pixels)
 499:../Source Files/lpc_ssp_glcd.c ****  *              val      value of active bargraph (in 1/1024)
 500:../Source Files/lpc_ssp_glcd.c ****  * @return 		None
 501:../Source Files/lpc_ssp_glcd.c ****  **********************************************************************/
 502:../Source Files/lpc_ssp_glcd.c **** void GLCD_Bargraph (uint16_t x, uint16_t y, uint16_t w, uint16_t h, uint16_t val)
 503:../Source Files/lpc_ssp_glcd.c **** {
 504:../Source Files/lpc_ssp_glcd.c **** 	int i,j;
 505:../Source Files/lpc_ssp_glcd.c **** 
 506:../Source Files/lpc_ssp_glcd.c **** 	Write_Command_Glcd(0x45);      /* Horizontal GRAM Start Address      */
 507:../Source Files/lpc_ssp_glcd.c **** 	Write_Data_Glcd(x);
 508:../Source Files/lpc_ssp_glcd.c **** 
 509:../Source Files/lpc_ssp_glcd.c **** 	Write_Command_Glcd(0x46);      /* Horizontal GRAM End   Address (-1) */
 510:../Source Files/lpc_ssp_glcd.c **** 	Write_Data_Glcd(x+w-1);
 511:../Source Files/lpc_ssp_glcd.c **** 
 512:../Source Files/lpc_ssp_glcd.c **** 	Write_Command_Glcd(0x44);      /* Vertical   GRAM Start Address      */
 513:../Source Files/lpc_ssp_glcd.c **** 	Write_Data_Glcd(y);
 514:../Source Files/lpc_ssp_glcd.c **** 
 515:../Source Files/lpc_ssp_glcd.c **** 	Write_Command_Glcd(0x44);      /* Vertical   GRAM End   Address (-1) */
 516:../Source Files/lpc_ssp_glcd.c **** 	Write_Data_Glcd((y+CHAR_H-1)<<8);
 517:../Source Files/lpc_ssp_glcd.c **** 
 518:../Source Files/lpc_ssp_glcd.c **** 	Write_Command_Glcd(0x4E);     /* GDDRAM Horizontal */
 519:../Source Files/lpc_ssp_glcd.c **** 	Write_Data_Glcd(x);
 520:../Source Files/lpc_ssp_glcd.c **** 
 521:../Source Files/lpc_ssp_glcd.c **** 	Write_Command_Glcd(0x4F);     /* GDDRAM Vertical */
 522:../Source Files/lpc_ssp_glcd.c **** 	Write_Data_Glcd(y);
 523:../Source Files/lpc_ssp_glcd.c **** 
 524:../Source Files/lpc_ssp_glcd.c **** 	Write_Command_Glcd(0x22);
 525:../Source Files/lpc_ssp_glcd.c **** 
 526:../Source Files/lpc_ssp_glcd.c **** 	val = (val * w) >> 10;                /* Scale value for 24x12 characters   */
 527:../Source Files/lpc_ssp_glcd.c **** 
 528:../Source Files/lpc_ssp_glcd.c **** 	wr_dat_start();
 529:../Source Files/lpc_ssp_glcd.c **** 	for (i = h; i >0; i--)
 530:../Source Files/lpc_ssp_glcd.c **** 	{
 531:../Source Files/lpc_ssp_glcd.c **** 		for (j = 0; j <= w-1; j++)
 532:../Source Files/lpc_ssp_glcd.c **** 		{
 533:../Source Files/lpc_ssp_glcd.c **** 			if(j <= val)
 534:../Source Files/lpc_ssp_glcd.c **** 			{
 535:../Source Files/lpc_ssp_glcd.c **** 				wr_dat_only(BackColor);
 536:../Source Files/lpc_ssp_glcd.c **** 			}
 537:../Source Files/lpc_ssp_glcd.c **** 			else
 538:../Source Files/lpc_ssp_glcd.c **** 			{
 539:../Source Files/lpc_ssp_glcd.c **** 				wr_dat_only(TextColor);
 540:../Source Files/lpc_ssp_glcd.c **** 			}
 541:../Source Files/lpc_ssp_glcd.c **** 		}
 542:../Source Files/lpc_ssp_glcd.c **** 	}
 543:../Source Files/lpc_ssp_glcd.c **** 	wr_dat_stop();
 544:../Source Files/lpc_ssp_glcd.c **** }
 545:../Source Files/lpc_ssp_glcd.c **** 
 546:../Source Files/lpc_ssp_glcd.c **** 
 547:../Source Files/lpc_ssp_glcd.c **** /*********************************************************************//**
 548:../Source Files/lpc_ssp_glcd.c ****  * @brief	    Display graphical bitmap image at position x horizontally
 549:../Source Files/lpc_ssp_glcd.c ****  *              and y vertically (This function is optimized for
 550:../Source Files/lpc_ssp_glcd.c ****  *              16 bits per pixel format, it has to be adapted for
 551:../Source Files/lpc_ssp_glcd.c ****  *              any other bits per pixel format)
 552:../Source Files/lpc_ssp_glcd.c ****  * @param[in]	x        horizontal position
 553:../Source Files/lpc_ssp_glcd.c ****  *              y        vertical position
 554:../Source Files/lpc_ssp_glcd.c ****  *              w        width of bitmap
 555:../Source Files/lpc_ssp_glcd.c ****  *              h        height of bitmap
 556:../Source Files/lpc_ssp_glcd.c ****  *              bitmap   address at which the bitmap data resides
 557:../Source Files/lpc_ssp_glcd.c ****  * @return 		None
 558:../Source Files/lpc_ssp_glcd.c ****  **********************************************************************/
 559:../Source Files/lpc_ssp_glcd.c **** void GLCD_Bitmap (uint16_t x, uint16_t y, uint16_t w, uint16_t h, uint16_t *bitmap)
 560:../Source Files/lpc_ssp_glcd.c **** {
 561:../Source Files/lpc_ssp_glcd.c **** 	uint32_t i,j,k;
 562:../Source Files/lpc_ssp_glcd.c **** 
 563:../Source Files/lpc_ssp_glcd.c **** 	GLCD_Set_Loc (x,y,w,h);
 564:../Source Files/lpc_ssp_glcd.c **** 
 565:../Source Files/lpc_ssp_glcd.c **** 	wr_dat_start();
 566:../Source Files/lpc_ssp_glcd.c **** 	k = 16;
 567:../Source Files/lpc_ssp_glcd.c **** 	for (j = 0; j < h; j++)
 568:../Source Files/lpc_ssp_glcd.c **** 	{
 569:../Source Files/lpc_ssp_glcd.c **** 		for (i = 0; i < w; i++)
 570:../Source Files/lpc_ssp_glcd.c **** 		{
 571:../Source Files/lpc_ssp_glcd.c **** 			wr_dat_only(bitmap[k++]);
 572:../Source Files/lpc_ssp_glcd.c **** 		}
 573:../Source Files/lpc_ssp_glcd.c **** 	}
 574:../Source Files/lpc_ssp_glcd.c **** 	wr_dat_stop();
 575:../Source Files/lpc_ssp_glcd.c **** }
 576:../Source Files/lpc_ssp_glcd.c **** 
 577:../Source Files/lpc_ssp_glcd.c **** 
 578:../Source Files/lpc_ssp_glcd.c **** /*********************************************************************//**
 579:../Source Files/lpc_ssp_glcd.c ****  * @brief	    F at position x horizontally
 580:../Source Files/lpc_ssp_glcd.c ****  *              and y vertically (This function is optimized for
 581:../Source Files/lpc_ssp_glcd.c ****  *              16 bits per pixel format, it has to be adapted for
 582:../Source Files/lpc_ssp_glcd.c ****  *              any other bits per pixel format)
 583:../Source Files/lpc_ssp_glcd.c ****  * @param[in]	x        horizontal position
 584:../Source Files/lpc_ssp_glcd.c ****  *              y        vertical position
 585:../Source Files/lpc_ssp_glcd.c ****  *              w        width of bitmap
 586:../Source Files/lpc_ssp_glcd.c ****  *              h        height of bitmap
 587:../Source Files/lpc_ssp_glcd.c ****  *              color    window color
 588:../Source Files/lpc_ssp_glcd.c ****  * @return 		None
 589:../Source Files/lpc_ssp_glcd.c ****  **********************************************************************/
 590:../Source Files/lpc_ssp_glcd.c **** void GLCD_Window_Fill (uint16_t x, uint16_t y, uint16_t w, uint16_t h, uint16_t color)
 591:../Source Files/lpc_ssp_glcd.c **** {
 592:../Source Files/lpc_ssp_glcd.c **** 	uint32_t i,j;
 593:../Source Files/lpc_ssp_glcd.c **** 
 594:../Source Files/lpc_ssp_glcd.c **** 	GLCD_Set_Loc (x,y,w,h);
 595:../Source Files/lpc_ssp_glcd.c **** 
 596:../Source Files/lpc_ssp_glcd.c **** 	wr_dat_start();
 597:../Source Files/lpc_ssp_glcd.c **** 	for (j = 0; j < h; j++)
 598:../Source Files/lpc_ssp_glcd.c **** 	{
 599:../Source Files/lpc_ssp_glcd.c **** 		for (i = 0; i < w; i++)
 600:../Source Files/lpc_ssp_glcd.c **** 		{
 601:../Source Files/lpc_ssp_glcd.c **** 			wr_dat_only(color);
 602:../Source Files/lpc_ssp_glcd.c **** 		}
 603:../Source Files/lpc_ssp_glcd.c **** 	}
 604:../Source Files/lpc_ssp_glcd.c **** 	wr_dat_stop();
 605:../Source Files/lpc_ssp_glcd.c **** }
 606:../Source Files/lpc_ssp_glcd.c **** 
 607:../Source Files/lpc_ssp_glcd.c **** 
 608:../Source Files/lpc_ssp_glcd.c **** /*********************************************************************//**
 609:../Source Files/lpc_ssp_glcd.c ****  * @brief	    Draw a line on a graphic LCD using Bresenham's
 610:../Source Files/lpc_ssp_glcd.c ****  *              line drawing algorithm
 611:../Source Files/lpc_ssp_glcd.c ****  * @param[in]	(x1, y1)   the start coordinate
 612:../Source Files/lpc_ssp_glcd.c ****  *              (x2, y2)   the end coordinate
 613:../Source Files/lpc_ssp_glcd.c ****  *              color      line color
 614:../Source Files/lpc_ssp_glcd.c ****  * @return 		None
 615:../Source Files/lpc_ssp_glcd.c ****  **********************************************************************/
 616:../Source Files/lpc_ssp_glcd.c **** void GLCD_Line(int16_t x1, int16_t y1, int16_t x2, int16_t y2, uint16_t color)
 617:../Source Files/lpc_ssp_glcd.c **** {
 618:../Source Files/lpc_ssp_glcd.c **** 	int16_t  x, y, addx, addy, dx, dy;
 619:../Source Files/lpc_ssp_glcd.c **** 	int32_t P,i;
 620:../Source Files/lpc_ssp_glcd.c **** 
 621:../Source Files/lpc_ssp_glcd.c **** 	dx = abs((int16_t)(x2 - x1));
 622:../Source Files/lpc_ssp_glcd.c **** 	dy = abs((int16_t)(y2 - y1));
 623:../Source Files/lpc_ssp_glcd.c **** 	x = x1;
 624:../Source Files/lpc_ssp_glcd.c **** 	y = y1;
 625:../Source Files/lpc_ssp_glcd.c **** 
 626:../Source Files/lpc_ssp_glcd.c **** 	if(x1 > x2)
 627:../Source Files/lpc_ssp_glcd.c **** 		addx = -1;
 628:../Source Files/lpc_ssp_glcd.c **** 	else
 629:../Source Files/lpc_ssp_glcd.c **** 		addx = 1;
 630:../Source Files/lpc_ssp_glcd.c **** 	if(y1 > y2)
 631:../Source Files/lpc_ssp_glcd.c **** 		addy = -1;
 632:../Source Files/lpc_ssp_glcd.c **** 	else
 633:../Source Files/lpc_ssp_glcd.c **** 		addy = 1;
 634:../Source Files/lpc_ssp_glcd.c **** 
 635:../Source Files/lpc_ssp_glcd.c **** 
 636:../Source Files/lpc_ssp_glcd.c **** 	if(dx >= dy)
 637:../Source Files/lpc_ssp_glcd.c **** 	{
 638:../Source Files/lpc_ssp_glcd.c **** 		P = 2*dy - dx;
 639:../Source Files/lpc_ssp_glcd.c **** 
 640:../Source Files/lpc_ssp_glcd.c **** 		for(i=0; i<=dx; ++i)
 641:../Source Files/lpc_ssp_glcd.c **** 		{
 642:../Source Files/lpc_ssp_glcd.c **** 			GLCD_PutPixel(x, y, color);
 643:../Source Files/lpc_ssp_glcd.c **** 
 644:../Source Files/lpc_ssp_glcd.c **** 			if(P < 0)
 645:../Source Files/lpc_ssp_glcd.c **** 			{
 646:../Source Files/lpc_ssp_glcd.c **** 				P += 2*dy;
 647:../Source Files/lpc_ssp_glcd.c **** 				x += addx;
 648:../Source Files/lpc_ssp_glcd.c **** 			}
 649:../Source Files/lpc_ssp_glcd.c **** 			else
 650:../Source Files/lpc_ssp_glcd.c **** 			{
 651:../Source Files/lpc_ssp_glcd.c **** 				P += 2*dy - 2*dx;
 652:../Source Files/lpc_ssp_glcd.c **** 				x += addx;
 653:../Source Files/lpc_ssp_glcd.c **** 				y += addy;
 654:../Source Files/lpc_ssp_glcd.c **** 			}
 655:../Source Files/lpc_ssp_glcd.c **** 		}
 656:../Source Files/lpc_ssp_glcd.c **** 	}
 657:../Source Files/lpc_ssp_glcd.c **** 	else
 658:../Source Files/lpc_ssp_glcd.c **** 	{
 659:../Source Files/lpc_ssp_glcd.c **** 		P = 2*dx - dy;
 660:../Source Files/lpc_ssp_glcd.c **** 
 661:../Source Files/lpc_ssp_glcd.c **** 		for(i=0; i<=dy; ++i)
 662:../Source Files/lpc_ssp_glcd.c **** 		{
 663:../Source Files/lpc_ssp_glcd.c **** 			GLCD_PutPixel(x, y, color);
 664:../Source Files/lpc_ssp_glcd.c **** 
 665:../Source Files/lpc_ssp_glcd.c **** 			if(P < 0)
 666:../Source Files/lpc_ssp_glcd.c **** 			{
 667:../Source Files/lpc_ssp_glcd.c **** 				P += 2*dx;
 668:../Source Files/lpc_ssp_glcd.c **** 				y += addy;
 669:../Source Files/lpc_ssp_glcd.c **** 			}
 670:../Source Files/lpc_ssp_glcd.c **** 			else
 671:../Source Files/lpc_ssp_glcd.c **** 			{
 672:../Source Files/lpc_ssp_glcd.c **** 				P += 2*dx - 2*dy;
 673:../Source Files/lpc_ssp_glcd.c **** 				x += addx;
 674:../Source Files/lpc_ssp_glcd.c **** 				y += addy;
 675:../Source Files/lpc_ssp_glcd.c **** 			}
 676:../Source Files/lpc_ssp_glcd.c **** 		}
 677:../Source Files/lpc_ssp_glcd.c **** 	}
 678:../Source Files/lpc_ssp_glcd.c **** }
 679:../Source Files/lpc_ssp_glcd.c **** 
 680:../Source Files/lpc_ssp_glcd.c **** 
 681:../Source Files/lpc_ssp_glcd.c **** /*********************************************************************//**
 682:../Source Files/lpc_ssp_glcd.c ****  * @brief	    Draw a Rectangle on a graphic LCD
 683:../Source Files/lpc_ssp_glcd.c ****  * @param[in]	(x1, y1)     the start coordinate
 684:../Source Files/lpc_ssp_glcd.c ****  *              (x2, y2)     the end coordinate
 685:../Source Files/lpc_ssp_glcd.c ****  *              fill         Fill Rectangle TRUE/FALSE or ON/OFF
 686:../Source Files/lpc_ssp_glcd.c ****  *              color        Boundary color
 687:../Source Files/lpc_ssp_glcd.c ****  *              fill_color   fill color
 688:../Source Files/lpc_ssp_glcd.c ****  * @return 		None
 689:../Source Files/lpc_ssp_glcd.c ****  **********************************************************************/
 690:../Source Files/lpc_ssp_glcd.c **** void GLCD_Rect(COORDINATE_Type *p1, COORDINATE_Type *p2, Bool fill, uint16_t color, uint16_t fill_c
 691:../Source Files/lpc_ssp_glcd.c **** {
 692:../Source Files/lpc_ssp_glcd.c **** 	int16_t  width,height;                          // Find the y min and max
 693:../Source Files/lpc_ssp_glcd.c **** 
 694:../Source Files/lpc_ssp_glcd.c **** 	if(fill)
 695:../Source Files/lpc_ssp_glcd.c **** 	{
 696:../Source Files/lpc_ssp_glcd.c **** 		if(p2->x > p1->x)
 697:../Source Files/lpc_ssp_glcd.c **** 		{
 698:../Source Files/lpc_ssp_glcd.c **** 			if(p2->y > p1->y)
 699:../Source Files/lpc_ssp_glcd.c **** 			{
 700:../Source Files/lpc_ssp_glcd.c **** 				width = p2->x - p1->x;
 701:../Source Files/lpc_ssp_glcd.c **** 				height = p2->y - p1->y;
 702:../Source Files/lpc_ssp_glcd.c **** 				GLCD_Window_Fill(p1->x+1,p1->y+1,width-1,height-1,fill_color);
 703:../Source Files/lpc_ssp_glcd.c **** 			}
 704:../Source Files/lpc_ssp_glcd.c **** 			else
 705:../Source Files/lpc_ssp_glcd.c **** 			{
 706:../Source Files/lpc_ssp_glcd.c **** 				width = p2->x - p1->x;
 707:../Source Files/lpc_ssp_glcd.c **** 				height = p1->y - p2->y;
 708:../Source Files/lpc_ssp_glcd.c **** 				GLCD_Window_Fill(p1->x+1,p2->y+1,width-1,height-1,fill_color);
 709:../Source Files/lpc_ssp_glcd.c **** 			}
 710:../Source Files/lpc_ssp_glcd.c **** 		}
 711:../Source Files/lpc_ssp_glcd.c **** 		else
 712:../Source Files/lpc_ssp_glcd.c **** 		{
 713:../Source Files/lpc_ssp_glcd.c **** 			if(p2->y > p1->y)
 714:../Source Files/lpc_ssp_glcd.c **** 			{
 715:../Source Files/lpc_ssp_glcd.c **** 				width = p1->x - p2->x;
 716:../Source Files/lpc_ssp_glcd.c **** 				height = p2->y - p1->y;
 717:../Source Files/lpc_ssp_glcd.c **** 				GLCD_Window_Fill(p2->x+1,p1->y+1,width-1,height-1,fill_color);
 718:../Source Files/lpc_ssp_glcd.c **** 			}
 719:../Source Files/lpc_ssp_glcd.c **** 			else
 720:../Source Files/lpc_ssp_glcd.c **** 			{
 721:../Source Files/lpc_ssp_glcd.c **** 				width = p1->x - p2->x;
 722:../Source Files/lpc_ssp_glcd.c **** 				height = p1->y - p2->y;
 723:../Source Files/lpc_ssp_glcd.c **** 				GLCD_Window_Fill(p2->x+1,p2->y+1,width-1,height-1,fill_color);
 724:../Source Files/lpc_ssp_glcd.c **** 			}
 725:../Source Files/lpc_ssp_glcd.c **** 		}
 726:../Source Files/lpc_ssp_glcd.c **** 		fill = NO;
 727:../Source Files/lpc_ssp_glcd.c **** 	}
 728:../Source Files/lpc_ssp_glcd.c **** 	if(!fill)
 729:../Source Files/lpc_ssp_glcd.c **** 	{
 730:../Source Files/lpc_ssp_glcd.c **** 		GLCD_Line(p1->x, p1->y, p2->x, p1->y, color);      // Draw the outer border 4 sides
 731:../Source Files/lpc_ssp_glcd.c **** 		GLCD_Line(p1->x, p2->y, p2->x, p2->y, color);
 732:../Source Files/lpc_ssp_glcd.c **** 		GLCD_Line(p1->x, p1->y, p1->x, p2->y, color);
 733:../Source Files/lpc_ssp_glcd.c **** 		GLCD_Line(p2->x, p1->y, p2->x, p2->y, color);
 734:../Source Files/lpc_ssp_glcd.c **** 	}
 735:../Source Files/lpc_ssp_glcd.c **** }
 736:../Source Files/lpc_ssp_glcd.c **** 
 737:../Source Files/lpc_ssp_glcd.c **** 
 738:../Source Files/lpc_ssp_glcd.c **** /*********************************************************************//**
 739:../Source Files/lpc_ssp_glcd.c ****  * @brief	    Draw a frame on a graphic LCD
 740:../Source Files/lpc_ssp_glcd.c ****  * @param[in]	(x1, y1)     the start coordinate
 741:../Source Files/lpc_ssp_glcd.c ****  *              (x2, y2)     the end coordinate
 742:../Source Files/lpc_ssp_glcd.c ****  *              frame_width  Total Width of Frame
 743:../Source Files/lpc_ssp_glcd.c ****  *              color        Boundary color
 744:../Source Files/lpc_ssp_glcd.c ****  *              fill_color   Frame fill color
 745:../Source Files/lpc_ssp_glcd.c ****  * @return 		None
 746:../Source Files/lpc_ssp_glcd.c ****  **********************************************************************/
 747:../Source Files/lpc_ssp_glcd.c **** void GLCD_Frame(COORDINATE_Type *p1, COORDINATE_Type *p2, int16_t frame_width, uint16_t color, uint
 748:../Source Files/lpc_ssp_glcd.c **** {
 749:../Source Files/lpc_ssp_glcd.c **** 	int16_t fw;                          // Find the y min and max
 750:../Source Files/lpc_ssp_glcd.c **** 
 751:../Source Files/lpc_ssp_glcd.c **** 	fw = frame_width;
 752:../Source Files/lpc_ssp_glcd.c **** 
 753:../Source Files/lpc_ssp_glcd.c **** 	while(fw)
 754:../Source Files/lpc_ssp_glcd.c **** 	{
 755:../Source Files/lpc_ssp_glcd.c **** 		if(fw < frame_width)
 756:../Source Files/lpc_ssp_glcd.c **** 		{
 757:../Source Files/lpc_ssp_glcd.c **** 			GLCD_Line(p1->x, p1->y+fw, p2->x, p1->y+fw, fill_color);      // Draw the interior 4 sides
 758:../Source Files/lpc_ssp_glcd.c **** 			GLCD_Line(p1->x, p2->y-fw, p2->x, p2->y-fw, fill_color);
 759:../Source Files/lpc_ssp_glcd.c **** 			GLCD_Line(p1->x+fw, p1->y, p1->x+fw, p2->y, fill_color);
 760:../Source Files/lpc_ssp_glcd.c **** 			GLCD_Line(p2->x-fw, p1->y, p2->x-fw, p2->y, fill_color);
 761:../Source Files/lpc_ssp_glcd.c **** 			fw--;
 762:../Source Files/lpc_ssp_glcd.c **** 		}
 763:../Source Files/lpc_ssp_glcd.c **** 		else
 764:../Source Files/lpc_ssp_glcd.c **** 		{
 765:../Source Files/lpc_ssp_glcd.c **** 			GLCD_Line(p1->x, p1->y+fw, p2->x, p1->y+fw, color);      // inner border 4 sides
 766:../Source Files/lpc_ssp_glcd.c **** 			GLCD_Line(p1->x, p2->y-fw, p2->x, p2->y-fw, color);
 767:../Source Files/lpc_ssp_glcd.c **** 			GLCD_Line(p1->x+fw, p1->y, p1->x+fw, p2->y, color);
 768:../Source Files/lpc_ssp_glcd.c **** 			GLCD_Line(p2->x-fw, p1->y, p2->x-fw, p2->y, color);
 769:../Source Files/lpc_ssp_glcd.c **** 			fw--;
 770:../Source Files/lpc_ssp_glcd.c **** 		}
 771:../Source Files/lpc_ssp_glcd.c **** 	}
 772:../Source Files/lpc_ssp_glcd.c **** 
 773:../Source Files/lpc_ssp_glcd.c **** 	if(!fw)
 774:../Source Files/lpc_ssp_glcd.c **** 	{
 775:../Source Files/lpc_ssp_glcd.c **** 		GLCD_Line(p1->x, p1->y, p2->x, p1->y, color);      // Draw the outer border 4 sides
 776:../Source Files/lpc_ssp_glcd.c **** 		GLCD_Line(p1->x, p2->y, p2->x, p2->y, color);
 777:../Source Files/lpc_ssp_glcd.c **** 		GLCD_Line(p1->x, p1->y, p1->x, p2->y, color);
 778:../Source Files/lpc_ssp_glcd.c **** 		GLCD_Line(p2->x, p1->y, p2->x, p2->y, color);
 779:../Source Files/lpc_ssp_glcd.c **** 	}
 780:../Source Files/lpc_ssp_glcd.c **** }
 781:../Source Files/lpc_ssp_glcd.c **** 
 782:../Source Files/lpc_ssp_glcd.c **** 
 783:../Source Files/lpc_ssp_glcd.c **** /*********************************************************************//**
 784:../Source Files/lpc_ssp_glcd.c ****  * @brief	    Draw a rectangle/frame on a graphic LCD
 785:../Source Files/lpc_ssp_glcd.c ****  * @param[in]	(x1, y1)     the start coordinate
 786:../Source Files/lpc_ssp_glcd.c ****  *              (x2, y2)     the end coordinate
 787:../Source Files/lpc_ssp_glcd.c ****  *              (x3, y3)     the end coordinate
 788:../Source Files/lpc_ssp_glcd.c ****  *              fill         Fill Triangle TRUE/FALSE or ON/OFF
 789:../Source Files/lpc_ssp_glcd.c ****  *              color        Boundary color
 790:../Source Files/lpc_ssp_glcd.c ****  *              fill_color   Triangle Fill Color
 791:../Source Files/lpc_ssp_glcd.c ****  * @return 		None
 792:../Source Files/lpc_ssp_glcd.c ****  **********************************************************************/
 793:../Source Files/lpc_ssp_glcd.c **** void GLCD_Triangle(COORDINATE_Type *p1, COORDINATE_Type *p2, COORDINATE_Type *p3,COLORCFG_Type *cfg
 794:../Source Files/lpc_ssp_glcd.c **** {
 795:../Source Files/lpc_ssp_glcd.c ****     if(cfg->fill)
 796:../Source Files/lpc_ssp_glcd.c ****     {
 797:../Source Files/lpc_ssp_glcd.c ****     	uint16_t t1x,t2x,y,minx,maxx,t1xp,t2xp;
 798:../Source Files/lpc_ssp_glcd.c ****     	Bool changed1 = FALSE;
 799:../Source Files/lpc_ssp_glcd.c ****     	Bool changed2 = FALSE;
 800:../Source Files/lpc_ssp_glcd.c ****     	int16_t signx1,signx2,dx1,dy1,dx2,dy2;
 801:../Source Files/lpc_ssp_glcd.c ****     	uint16_t e1,e2;
 802:../Source Files/lpc_ssp_glcd.c ****         // Sort vertices
 803:../Source Files/lpc_ssp_glcd.c ****     	if (p1->y > p2->y) { SWAP(p1->y,p2->y); SWAP(p1->x,p2->x); }
 804:../Source Files/lpc_ssp_glcd.c ****     	if (p1->y > p3->y) { SWAP(p1->y,p3->y); SWAP(p1->x,p3->x); }
 805:../Source Files/lpc_ssp_glcd.c ****     	if (p2->y > p3->y) { SWAP(p2->y,p3->y); SWAP(p2->x,p3->x); }
 806:../Source Files/lpc_ssp_glcd.c **** 
 807:../Source Files/lpc_ssp_glcd.c ****     	t1x=t2x=p1->x; y=p1->y;   // Starting points
 808:../Source Files/lpc_ssp_glcd.c **** 
 809:../Source Files/lpc_ssp_glcd.c ****     	dx1 = (int16_t)(p2->x - p1->x);
 810:../Source Files/lpc_ssp_glcd.c ****     	if(dx1<0) { dx1=-dx1; signx1=-1; } else signx1=1;
 811:../Source Files/lpc_ssp_glcd.c ****     	dy1 = (int16_t)(p2->y - p1->y);
 812:../Source Files/lpc_ssp_glcd.c **** 
 813:../Source Files/lpc_ssp_glcd.c ****     	dx2 = (int8_t)(p3->x - p1->x);
 814:../Source Files/lpc_ssp_glcd.c ****     	if(dx2<0) { dx2=-dx2; signx2=-1; } else signx2=1;
 815:../Source Files/lpc_ssp_glcd.c ****     	dy2 = (int8_t)(p3->y - p1->y);
 816:../Source Files/lpc_ssp_glcd.c **** 
 817:../Source Files/lpc_ssp_glcd.c ****     	if (dy1 > dx1)
 818:../Source Files/lpc_ssp_glcd.c ****     	{   // swap values
 819:../Source Files/lpc_ssp_glcd.c ****             SWAP(dx1,dy1);
 820:../Source Files/lpc_ssp_glcd.c ****     		changed1 = TRUE;
 821:../Source Files/lpc_ssp_glcd.c ****     	}
 822:../Source Files/lpc_ssp_glcd.c ****     	if (dy2 > dx2)
 823:../Source Files/lpc_ssp_glcd.c ****     	{   // swap values
 824:../Source Files/lpc_ssp_glcd.c ****             SWAP(dy2,dx2);
 825:../Source Files/lpc_ssp_glcd.c ****     		changed2 = TRUE;
 826:../Source Files/lpc_ssp_glcd.c ****     	}
 827:../Source Files/lpc_ssp_glcd.c **** 
 828:../Source Files/lpc_ssp_glcd.c ****     	e2 = (uint16_t)(dx2>>1);
 829:../Source Files/lpc_ssp_glcd.c ****         // Flat top, just process the second half
 830:../Source Files/lpc_ssp_glcd.c ****         if(p1->y==p2->y) goto next;
 831:../Source Files/lpc_ssp_glcd.c ****         e1 = (uint16_t)(dx1>>1);
 832:../Source Files/lpc_ssp_glcd.c **** 
 833:../Source Files/lpc_ssp_glcd.c ****     	for (uint8_t i = 0; i < dx1;)
 834:../Source Files/lpc_ssp_glcd.c ****     	{
 835:../Source Files/lpc_ssp_glcd.c ****     		t1xp=0; t2xp=0;
 836:../Source Files/lpc_ssp_glcd.c ****     		if(t1x<t2x) { minx=t1x; maxx=t2x; }
 837:../Source Files/lpc_ssp_glcd.c ****     		else		{ minx=t2x; maxx=t1x; }
 838:../Source Files/lpc_ssp_glcd.c ****             // process first line until y value is about to change
 839:../Source Files/lpc_ssp_glcd.c ****     		while(i<dx1)
 840:../Source Files/lpc_ssp_glcd.c ****     		{
 841:../Source Files/lpc_ssp_glcd.c ****     			i++;
 842:../Source Files/lpc_ssp_glcd.c ****     			e1 += dy1;
 843:../Source Files/lpc_ssp_glcd.c ****     	   	   	while (e1 >= dx1)
 844:../Source Files/lpc_ssp_glcd.c ****     	   	   	{
 845:../Source Files/lpc_ssp_glcd.c ****     				e1 -= dx1;
 846:../Source Files/lpc_ssp_glcd.c ****        	   	   	   if (changed1) t1xp=signx1;//t1x += signx1;
 847:../Source Files/lpc_ssp_glcd.c ****     				else          goto next1;
 848:../Source Files/lpc_ssp_glcd.c ****     			}
 849:../Source Files/lpc_ssp_glcd.c ****     			if (changed1) break;
 850:../Source Files/lpc_ssp_glcd.c ****     			else t1x += signx1;
 851:../Source Files/lpc_ssp_glcd.c ****     		}
 852:../Source Files/lpc_ssp_glcd.c ****     	// Move line
 853:../Source Files/lpc_ssp_glcd.c ****     	next1:
 854:../Source Files/lpc_ssp_glcd.c ****             // process second line until y value is about to change
 855:../Source Files/lpc_ssp_glcd.c ****     		while (1)
 856:../Source Files/lpc_ssp_glcd.c ****     		{
 857:../Source Files/lpc_ssp_glcd.c ****     			e2 += dy2;
 858:../Source Files/lpc_ssp_glcd.c ****     			while (e2 >= dx2)
 859:../Source Files/lpc_ssp_glcd.c ****     			{
 860:../Source Files/lpc_ssp_glcd.c ****     				e2 -= dx2;
 861:../Source Files/lpc_ssp_glcd.c ****     				if (changed2) t2xp=signx2;//t2x += signx2;
 862:../Source Files/lpc_ssp_glcd.c ****     				else          goto next2;
 863:../Source Files/lpc_ssp_glcd.c ****     			}
 864:../Source Files/lpc_ssp_glcd.c ****     			if (changed2)     break;
 865:../Source Files/lpc_ssp_glcd.c ****     			else              t2x += signx2;
 866:../Source Files/lpc_ssp_glcd.c ****     		}
 867:../Source Files/lpc_ssp_glcd.c ****     	next2:
 868:../Source Files/lpc_ssp_glcd.c ****     		if(minx>t1x) minx=t1x; if(minx>t2x) minx=t2x;
 869:../Source Files/lpc_ssp_glcd.c ****     		if(maxx<t1x) maxx=t1x; if(maxx<t2x) maxx=t2x;
 870:../Source Files/lpc_ssp_glcd.c ****     		GLCD_Line(minx,y,maxx,y,cfg->fill_color);    // Draw line from min to max points found on the
 871:../Source Files/lpc_ssp_glcd.c **** 
 872:../Source Files/lpc_ssp_glcd.c ****     		// Now increase y
 873:../Source Files/lpc_ssp_glcd.c ****     		if(!changed1) t1x += signx1;
 874:../Source Files/lpc_ssp_glcd.c ****     		t1x+=t1xp;
 875:../Source Files/lpc_ssp_glcd.c ****     		if(!changed2) t2x += signx2;
 876:../Source Files/lpc_ssp_glcd.c ****     		t2x+=t2xp;
 877:../Source Files/lpc_ssp_glcd.c ****         	y += 1;
 878:../Source Files/lpc_ssp_glcd.c ****     		if(y==p2->y) break;
 879:../Source Files/lpc_ssp_glcd.c ****        }
 880:../Source Files/lpc_ssp_glcd.c ****     	next:
 881:../Source Files/lpc_ssp_glcd.c ****     	// Second half
 882:../Source Files/lpc_ssp_glcd.c ****     	dx1 = (int8_t)(p3->x - p2->x); if(dx1<0) { dx1=-dx1; signx1=-1; } else signx1=1;
 883:../Source Files/lpc_ssp_glcd.c ****     	dy1 = (int8_t)(p3->y - p2->y);
 884:../Source Files/lpc_ssp_glcd.c ****     	t1x=p2->x;
 885:../Source Files/lpc_ssp_glcd.c **** 
 886:../Source Files/lpc_ssp_glcd.c ****     	if (dy1 > dx1)
 887:../Source Files/lpc_ssp_glcd.c ****     	{   // swap values
 888:../Source Files/lpc_ssp_glcd.c ****             SWAP(dy1,dx1);
 889:../Source Files/lpc_ssp_glcd.c ****     		changed1 = TRUE;
 890:../Source Files/lpc_ssp_glcd.c ****     	} else changed1=FALSE;
 891:../Source Files/lpc_ssp_glcd.c **** 
 892:../Source Files/lpc_ssp_glcd.c ****     	e1 = (uint8_t)(dx1>>1);
 893:../Source Files/lpc_ssp_glcd.c **** 
 894:../Source Files/lpc_ssp_glcd.c ****     	for (uint8_t i = 0; i<=dx1; i++)
 895:../Source Files/lpc_ssp_glcd.c ****     	{
 896:../Source Files/lpc_ssp_glcd.c ****     		t1xp=0; t2xp=0;
 897:../Source Files/lpc_ssp_glcd.c ****     		if(t1x<t2x) { minx=t1x; maxx=t2x; }
 898:../Source Files/lpc_ssp_glcd.c ****     		else		{ minx=t2x; maxx=t1x; }
 899:../Source Files/lpc_ssp_glcd.c ****     	    // process first line until y value is about to change
 900:../Source Files/lpc_ssp_glcd.c ****     		while(i<dx1)
 901:../Source Files/lpc_ssp_glcd.c ****     		{
 902:../Source Files/lpc_ssp_glcd.c ****         		e1 += dy1;
 903:../Source Files/lpc_ssp_glcd.c ****     	   	   	while (e1 >= dx1)
 904:../Source Files/lpc_ssp_glcd.c ****     	   	   	{
 905:../Source Files/lpc_ssp_glcd.c ****     				e1 -= dx1;
 906:../Source Files/lpc_ssp_glcd.c ****        	   	   	   	if (changed1) { t1xp=signx1; break; }//t1x += signx1;
 907:../Source Files/lpc_ssp_glcd.c ****     				else          goto next3;
 908:../Source Files/lpc_ssp_glcd.c ****     			}
 909:../Source Files/lpc_ssp_glcd.c ****     			if (changed1) break;
 910:../Source Files/lpc_ssp_glcd.c ****     			else   	   	  t1x += signx1;
 911:../Source Files/lpc_ssp_glcd.c ****     			if(i<dx1) i++;
 912:../Source Files/lpc_ssp_glcd.c ****     		}
 913:../Source Files/lpc_ssp_glcd.c ****     	next3:
 914:../Source Files/lpc_ssp_glcd.c ****             // process second line until y value is about to change
 915:../Source Files/lpc_ssp_glcd.c ****     		while (t2x!=p3->x)
 916:../Source Files/lpc_ssp_glcd.c ****     		{
 917:../Source Files/lpc_ssp_glcd.c ****     			e2 += dy2;
 918:../Source Files/lpc_ssp_glcd.c ****     	   	   	while (e2 >= dx2)
 919:../Source Files/lpc_ssp_glcd.c ****     	   	   	{
 920:../Source Files/lpc_ssp_glcd.c ****     				e2 -= dx2;
 921:../Source Files/lpc_ssp_glcd.c ****     				if(changed2) t2xp=signx2;
 922:../Source Files/lpc_ssp_glcd.c ****     				else          goto next4;
 923:../Source Files/lpc_ssp_glcd.c ****     			}
 924:../Source Files/lpc_ssp_glcd.c ****     			if (changed2)     break;
 925:../Source Files/lpc_ssp_glcd.c ****     			else              t2x += signx2;
 926:../Source Files/lpc_ssp_glcd.c ****     		}
 927:../Source Files/lpc_ssp_glcd.c ****     	next4:
 928:../Source Files/lpc_ssp_glcd.c **** 
 929:../Source Files/lpc_ssp_glcd.c ****     		if(minx>t1x) minx=t1x; if(minx>t2x) minx=t2x;
 930:../Source Files/lpc_ssp_glcd.c ****     		if(maxx<t1x) maxx=t1x; if(maxx<t2x) maxx=t2x;
 931:../Source Files/lpc_ssp_glcd.c ****     		GLCD_Line(minx,y,maxx,y,cfg->fill_color);    // Draw line from min to max points found on the
 932:../Source Files/lpc_ssp_glcd.c ****     		// Now increase y
 933:../Source Files/lpc_ssp_glcd.c ****     		if(!changed1) t1x += signx1;
 934:../Source Files/lpc_ssp_glcd.c ****     		t1x+=t1xp;
 935:../Source Files/lpc_ssp_glcd.c ****     		if(!changed2) t2x += signx2;
 936:../Source Files/lpc_ssp_glcd.c ****     		t2x+=t2xp;
 937:../Source Files/lpc_ssp_glcd.c ****         	y += 1;
 938:../Source Files/lpc_ssp_glcd.c ****     		if(y>p3->y) break;
 939:../Source Files/lpc_ssp_glcd.c ****     	}
 940:../Source Files/lpc_ssp_glcd.c ****     	cfg->fill = NO;
 941:../Source Files/lpc_ssp_glcd.c ****     }
 942:../Source Files/lpc_ssp_glcd.c **** 
 943:../Source Files/lpc_ssp_glcd.c **** 
 944:../Source Files/lpc_ssp_glcd.c **** 	if(!cfg->fill && cfg->bndry)
 945:../Source Files/lpc_ssp_glcd.c **** 	{
 946:../Source Files/lpc_ssp_glcd.c **** 		GLCD_Line(p1->x, p1->y, p2->x, p2->y, cfg->bcolor);
 947:../Source Files/lpc_ssp_glcd.c **** 		GLCD_Line(p1->x, p1->y, p3->x, p3->y, cfg->bcolor);
 948:../Source Files/lpc_ssp_glcd.c **** 		GLCD_Line(p2->x, p2->y, p3->x, p3->y, cfg->bcolor);
 949:../Source Files/lpc_ssp_glcd.c **** 	}
 950:../Source Files/lpc_ssp_glcd.c **** }
 951:../Source Files/lpc_ssp_glcd.c **** 
 952:../Source Files/lpc_ssp_glcd.c **** 
 953:../Source Files/lpc_ssp_glcd.c **** /*********************************************************************//**
 954:../Source Files/lpc_ssp_glcd.c ****  * @brief	    Draw a Circle with given Center and Radius
 955:../Source Files/lpc_ssp_glcd.c ****  * @param[in]	(x, y)     the center of the circle
 956:../Source Files/lpc_ssp_glcd.c ****  *              radius     the radius of the circle
 957:../Source Files/lpc_ssp_glcd.c ****  *              fill       YES or NO
 958:../Source Files/lpc_ssp_glcd.c ****  *              color      Boundary color
 959:../Source Files/lpc_ssp_glcd.c ****  * @return 		None
 960:../Source Files/lpc_ssp_glcd.c ****  **********************************************************************/
 961:../Source Files/lpc_ssp_glcd.c **** void GLCD_Circle(int16_t x, int16_t y, int16_t radius,COLORCFG_Type *cfg)
 962:../Source Files/lpc_ssp_glcd.c **** {
 963:../Source Files/lpc_ssp_glcd.c **** 	int16_t a, b, P;
 964:../Source Files/lpc_ssp_glcd.c **** 	a = 0;
 965:../Source Files/lpc_ssp_glcd.c **** 	b = radius;
 966:../Source Files/lpc_ssp_glcd.c **** 	P = 1 - radius;
 967:../Source Files/lpc_ssp_glcd.c **** 
 968:../Source Files/lpc_ssp_glcd.c **** 	do
 969:../Source Files/lpc_ssp_glcd.c **** 	{
 970:../Source Files/lpc_ssp_glcd.c **** 		if(cfg->fill)
 971:../Source Files/lpc_ssp_glcd.c **** 		{
 972:../Source Files/lpc_ssp_glcd.c **** 			GLCD_Line(x-a, y+b, x+a, y+b, cfg->fill_color);
 973:../Source Files/lpc_ssp_glcd.c **** 			GLCD_Line(x-a, y-b, x+a, y-b, cfg->fill_color);
 974:../Source Files/lpc_ssp_glcd.c **** 			GLCD_Line(x-b, y+a, x+b, y+a, cfg->fill_color);
 975:../Source Files/lpc_ssp_glcd.c **** 			GLCD_Line(x-b, y-a, x+b, y-a, cfg->fill_color);
 976:../Source Files/lpc_ssp_glcd.c **** 		}
 977:../Source Files/lpc_ssp_glcd.c **** 
 978:../Source Files/lpc_ssp_glcd.c **** 		if(P < 0)
 979:../Source Files/lpc_ssp_glcd.c **** 			P+= 3 + 2*a++;
 980:../Source Files/lpc_ssp_glcd.c **** 		else
 981:../Source Files/lpc_ssp_glcd.c **** 			P+= 5 + 2*(a++ - b--);
 982:../Source Files/lpc_ssp_glcd.c **** 	} while(a <= b);
 983:../Source Files/lpc_ssp_glcd.c **** 
 984:../Source Files/lpc_ssp_glcd.c **** 	cfg->fill = NO;
 985:../Source Files/lpc_ssp_glcd.c **** 	a = 0;
 986:../Source Files/lpc_ssp_glcd.c **** 	b = radius;
 987:../Source Files/lpc_ssp_glcd.c **** 	P = 1 - radius;
 988:../Source Files/lpc_ssp_glcd.c **** 	do
 989:../Source Files/lpc_ssp_glcd.c **** 	{
 990:../Source Files/lpc_ssp_glcd.c **** 		if(!cfg->fill && cfg->bndry)
 991:../Source Files/lpc_ssp_glcd.c **** 		{
 992:../Source Files/lpc_ssp_glcd.c **** 			GLCD_PutPixel(a+x, b+y, cfg->bcolor);
 993:../Source Files/lpc_ssp_glcd.c **** 			GLCD_PutPixel(b+x, a+y, cfg->bcolor);
 994:../Source Files/lpc_ssp_glcd.c **** 			GLCD_PutPixel(x-a, b+y, cfg->bcolor);
 995:../Source Files/lpc_ssp_glcd.c **** 			GLCD_PutPixel(x-b, a+y, cfg->bcolor);
 996:../Source Files/lpc_ssp_glcd.c **** 			GLCD_PutPixel(b+x, y-a, cfg->bcolor);
 997:../Source Files/lpc_ssp_glcd.c **** 			GLCD_PutPixel(a+x, y-b, cfg->bcolor);
 998:../Source Files/lpc_ssp_glcd.c **** 			GLCD_PutPixel(x-a, y-b, cfg->bcolor);
 999:../Source Files/lpc_ssp_glcd.c **** 			GLCD_PutPixel(x-b, y-a, cfg->bcolor);
1000:../Source Files/lpc_ssp_glcd.c **** 		}
1001:../Source Files/lpc_ssp_glcd.c **** 
1002:../Source Files/lpc_ssp_glcd.c **** 		if(P < 0)
1003:../Source Files/lpc_ssp_glcd.c **** 			P+= 3 + 2*a++;
1004:../Source Files/lpc_ssp_glcd.c **** 		else
1005:../Source Files/lpc_ssp_glcd.c **** 			P+= 5 + 2*(a++ - b--);
1006:../Source Files/lpc_ssp_glcd.c **** 	} while(a <= b);
1007:../Source Files/lpc_ssp_glcd.c **** }
1008:../Source Files/lpc_ssp_glcd.c **** 
1009:../Source Files/lpc_ssp_glcd.c **** 
1010:../Source Files/lpc_ssp_glcd.c **** /*********************************************************************//**
1011:../Source Files/lpc_ssp_glcd.c ****  * @brief	    Write text on a graphic LCD
1012:../Source Files/lpc_ssp_glcd.c ****  * @param[in]	(x,y)      The upper left coordinate of the first letter
1013:../Source Files/lpc_ssp_glcd.c ****  *              textptr    A pointer to an array of text to display
1014:../Source Files/lpc_ssp_glcd.c ****  *              row        Number of rows of pixels
1015:../Source Files/lpc_ssp_glcd.c ****  *              col        Number of Colums of pixels
1016:../Source Files/lpc_ssp_glcd.c ****  *              font       font 2 dimentional array
1017:../Source Files/lpc_ssp_glcd.c ****  *              size       The size of the text: 1 = 5x7, 2 = 10x14, ...
1018:../Source Files/lpc_ssp_glcd.c ****  *              color      font color
1019:../Source Files/lpc_ssp_glcd.c ****  * @return 		None
1020:../Source Files/lpc_ssp_glcd.c ****  **********************************************************************/
1021:../Source Files/lpc_ssp_glcd.c **** void GLCD_Text(int16_t x, int16_t y, int8_t* textptr, uint8_t row, uint8_t col, int8_t (*font)[row]
1022:../Source Files/lpc_ssp_glcd.c **** {
1023:../Source Files/lpc_ssp_glcd.c ****    int16_t i, j, k, l, m;                     // Loop counters
1024:../Source Files/lpc_ssp_glcd.c ****    int8_t pixelData[row];                     // Stores character data
1025:../Source Files/lpc_ssp_glcd.c **** 
1026:../Source Files/lpc_ssp_glcd.c ****    for(i=0; textptr[i] != '\0'; ++i, ++x) // Loop through the passed string
1027:../Source Files/lpc_ssp_glcd.c ****    {
1028:../Source Files/lpc_ssp_glcd.c ****       memcpy(pixelData, font[textptr[i]-' '], row);
1029:../Source Files/lpc_ssp_glcd.c **** 
1030:../Source Files/lpc_ssp_glcd.c ****       if(x+row*size >= 320)          // Performs character wrapping
1031:../Source Files/lpc_ssp_glcd.c ****       {
1032:../Source Files/lpc_ssp_glcd.c ****          x = 0;                           // Set x at far left position
1033:../Source Files/lpc_ssp_glcd.c ****          y += row*size + 1;                 // Set y at next position down
1034:../Source Files/lpc_ssp_glcd.c ****       }
1035:../Source Files/lpc_ssp_glcd.c ****       for(j=0; j<row; ++j, x+=size)         // Loop through character byte data
1036:../Source Files/lpc_ssp_glcd.c ****       {
1037:../Source Files/lpc_ssp_glcd.c ****          for(k=0; k<col*size; ++k)          // Loop through the vertical pixels
1038:../Source Files/lpc_ssp_glcd.c ****          {
1039:../Source Files/lpc_ssp_glcd.c ****             if(bit_test(pixelData[j], k)) // Check if the pixel should be set
1040:../Source Files/lpc_ssp_glcd.c ****             {
1041:../Source Files/lpc_ssp_glcd.c ****                for(l=0; l<size; ++l)      // The next two loops change the
1042:../Source Files/lpc_ssp_glcd.c ****                {                          // character's size
1043:../Source Files/lpc_ssp_glcd.c ****                   for(m=0; m<size; ++m)
1044:../Source Files/lpc_ssp_glcd.c ****                   {
1045:../Source Files/lpc_ssp_glcd.c ****                      GLCD_PutPixel(x+m, y+k*size+l, color); // Draws the pixel
1046:../Source Files/lpc_ssp_glcd.c ****                   }
1047:../Source Files/lpc_ssp_glcd.c ****                }
1048:../Source Files/lpc_ssp_glcd.c ****             }
1049:../Source Files/lpc_ssp_glcd.c ****          }
1050:../Source Files/lpc_ssp_glcd.c ****       }
1051:../Source Files/lpc_ssp_glcd.c ****    }
1052:../Source Files/lpc_ssp_glcd.c **** }
1053:../Source Files/lpc_ssp_glcd.c **** 
1054:../Source Files/lpc_ssp_glcd.c **** 
1055:../Source Files/lpc_ssp_glcd.c **** /*********************************************************************//**
1056:../Source Files/lpc_ssp_glcd.c ****  * @brief	    Draw Bar for Bar Graph (Dependent on Bar Graph Test)
1057:../Source Files/lpc_ssp_glcd.c ****  * @param[in]	index      Bar Number (from 1 to 10)
1058:../Source Files/lpc_ssp_glcd.c ****  *              width      Bar width
1059:../Source Files/lpc_ssp_glcd.c ****  *              per        Percentage height
1060:../Source Files/lpc_ssp_glcd.c ****  *              color      Bar Color
1061:../Source Files/lpc_ssp_glcd.c ****  * @return 		None
1062:../Source Files/lpc_ssp_glcd.c ****  **********************************************************************/
1063:../Source Files/lpc_ssp_glcd.c **** void GLCD_Bar(int16_t index,uint8_t width,int16_t per,uint16_t color)
1064:../Source Files/lpc_ssp_glcd.c **** {
1065:../Source Files/lpc_ssp_glcd.c **** 	/**************************************************************************
1066:../Source Files/lpc_ssp_glcd.c **** 	 * Par1 : const 30 indicates  ref distance line. 28 indicates spacing between
1067:../Source Files/lpc_ssp_glcd.c **** 	 * two bar graphs at multiples of 28, now as the center of bar is located
1068:../Source Files/lpc_ssp_glcd.c **** 	 * half of width should be left and other half on right, so after subracting
1069:../Source Files/lpc_ssp_glcd.c **** 	 * half width from center we get x point of bar.
1070:../Source Files/lpc_ssp_glcd.c **** 	 * Par2 : 220 is Y ref line so (220 - bar heigth) will give y point of bar.
1071:../Source Files/lpc_ssp_glcd.c **** 	 * Par4 : per*2 is scaling for 200 pixels for 100 percentage heigth.
1072:../Source Files/lpc_ssp_glcd.c **** 	 **************************************************************************/
1073:../Source Files/lpc_ssp_glcd.c **** 	if((per<=100) && (index<=10))
1074:../Source Files/lpc_ssp_glcd.c **** 	{
1075:../Source Files/lpc_ssp_glcd.c **** 		GLCD_Window_Fill(30+(index*26)-(width-(width/2)),220-(per*2),width,per*2,color);
1076:../Source Files/lpc_ssp_glcd.c **** 	}
1077:../Source Files/lpc_ssp_glcd.c **** }
1078:../Source Files/lpc_ssp_glcd.c **** 
1079:../Source Files/lpc_ssp_glcd.c **** 
1080:../Source Files/lpc_ssp_glcd.c **** /*********************************************************************//**
1081:../Source Files/lpc_ssp_glcd.c ****  * @brief	    Draw Line Bar for Bar Graph (Dependent on Bar Graph Test)
1082:../Source Files/lpc_ssp_glcd.c ****  * @param[in]	index      Bar Number (from 1 to 10)
1083:../Source Files/lpc_ssp_glcd.c ****  *              width      Bar width
1084:../Source Files/lpc_ssp_glcd.c ****  *              y          y_reference for bar
1085:../Source Files/lpc_ssp_glcd.c ****  *              per        Percentage height
1086:../Source Files/lpc_ssp_glcd.c ****  *              dec        decrement bar YES/NO or TRUE/FALSE
1087:../Source Files/lpc_ssp_glcd.c ****  *              color      Bar Color
1088:../Source Files/lpc_ssp_glcd.c ****  * @return 		None
1089:../Source Files/lpc_ssp_glcd.c ****  **********************************************************************/
1090:../Source Files/lpc_ssp_glcd.c **** void GLCD_LBar(int16_t index, uint8_t width, int16_t y, int16_t per, Bool dec,uint16_t color)
1091:../Source Files/lpc_ssp_glcd.c **** {
1092:../Source Files/lpc_ssp_glcd.c **** 	int16_t x1,x2,h,y_diff;
1093:../Source Files/lpc_ssp_glcd.c **** 
1094:../Source Files/lpc_ssp_glcd.c **** 	if(dec)
1095:../Source Files/lpc_ssp_glcd.c **** 	{
1096:../Source Files/lpc_ssp_glcd.c **** 		y_diff=y+(per);
1097:../Source Files/lpc_ssp_glcd.c **** 	}
1098:../Source Files/lpc_ssp_glcd.c **** 	else
1099:../Source Files/lpc_ssp_glcd.c **** 	{
1100:../Source Files/lpc_ssp_glcd.c **** 		y_diff=y-(per);
1101:../Source Files/lpc_ssp_glcd.c **** 	}
1102:../Source Files/lpc_ssp_glcd.c **** 
1103:../Source Files/lpc_ssp_glcd.c **** 	if((y_diff>=20) && (index<=10) && !dec)
1104:../Source Files/lpc_ssp_glcd.c **** 	{
1105:../Source Files/lpc_ssp_glcd.c **** 		for(h=0;h<=per;h++)
1106:../Source Files/lpc_ssp_glcd.c **** 		{
1107:../Source Files/lpc_ssp_glcd.c **** 			x1 = 30+(index*26)-(width-(width/2));
1108:../Source Files/lpc_ssp_glcd.c **** 			x2 = x1+width;
1109:../Source Files/lpc_ssp_glcd.c **** 			GLCD_Line(x1,y-h,x2,y-h,color);
1110:../Source Files/lpc_ssp_glcd.c **** 		}
1111:../Source Files/lpc_ssp_glcd.c **** 	}
1112:../Source Files/lpc_ssp_glcd.c **** 	else if(dec && (y_diff<=219) && (index<=10))
1113:../Source Files/lpc_ssp_glcd.c **** 	{
1114:../Source Files/lpc_ssp_glcd.c **** 		for(h=0;h<=per;h++)
1115:../Source Files/lpc_ssp_glcd.c **** 		{
1116:../Source Files/lpc_ssp_glcd.c **** 			x1 = 30+(index*26)-(width-(width/2));
1117:../Source Files/lpc_ssp_glcd.c **** 			x2 = x1+width;
1118:../Source Files/lpc_ssp_glcd.c **** 			GLCD_Line(x1,y+h,x2,y+h,color);
1119:../Source Files/lpc_ssp_glcd.c **** 		}
1120:../Source Files/lpc_ssp_glcd.c **** 	}
1121:../Source Files/lpc_ssp_glcd.c **** }
1122:../Source Files/lpc_ssp_glcd.c **** 
1123:../Source Files/lpc_ssp_glcd.c **** 
1124:../Source Files/lpc_ssp_glcd.c **** /*********************************************************************//**
1125:../Source Files/lpc_ssp_glcd.c ****  * @brief	    Display Bar Graph function
1126:../Source Files/lpc_ssp_glcd.c ****  * @param[in]	None
1127:../Source Files/lpc_ssp_glcd.c ****  * @return 		None
1128:../Source Files/lpc_ssp_glcd.c ****  **********************************************************************/
1129:../Source Files/lpc_ssp_glcd.c **** void Show_BarGraph(void)
1130:../Source Files/lpc_ssp_glcd.c **** {
1131:../Source Files/lpc_ssp_glcd.c **** 	COORDINATE_Type point1,point2,point3;
1132:../Source Files/lpc_ssp_glcd.c **** 	COLORCFG_Type tricfg;
1133:../Source Files/lpc_ssp_glcd.c ****     uint8_t x_name[10][3]={"1","2","3","4","5","6","7","8","9","10"};
1134:../Source Files/lpc_ssp_glcd.c ****     uint8_t y_name[10][4]={"10","20","30","40","50","60","70","80","90","100"};
1135:../Source Files/lpc_ssp_glcd.c ****     uint16_t y_scale,x_scale,i;
1136:../Source Files/lpc_ssp_glcd.c **** 
1137:../Source Files/lpc_ssp_glcd.c **** 	/* X and Y lines */
1138:../Source Files/lpc_ssp_glcd.c **** 	GLCD_Line(30,5,30,238,Black);
1139:../Source Files/lpc_ssp_glcd.c **** 	GLCD_Line(1,220,315,220,Black);
1140:../Source Files/lpc_ssp_glcd.c **** 
1141:../Source Files/lpc_ssp_glcd.c **** 	GLCD_Text(22,5,"Y",5,7,default5x7,1,Black);
1142:../Source Files/lpc_ssp_glcd.c **** 	GLCD_Text(310,225,"X",5,7,default5x7,1,Black);
1143:../Source Files/lpc_ssp_glcd.c **** 	GLCD_Text(50,5,"X=ADC-CH  Y=VAL  Y-MAX=4095  Y-UNIT=40.95",5,7,default5x7,1,Black);
1144:../Source Files/lpc_ssp_glcd.c **** 
1145:../Source Files/lpc_ssp_glcd.c **** 	/* Y Line Arrows Top and Bottom */
1146:../Source Files/lpc_ssp_glcd.c **** 	/* Top arrow coordinates */
1147:../Source Files/lpc_ssp_glcd.c **** 	point1.x = 30;
1148:../Source Files/lpc_ssp_glcd.c **** 	point1.y = 5;
1149:../Source Files/lpc_ssp_glcd.c **** 	point2.x = 28;
1150:../Source Files/lpc_ssp_glcd.c **** 	point2.y = 10;
1151:../Source Files/lpc_ssp_glcd.c **** 	point3.x = 32;
1152:../Source Files/lpc_ssp_glcd.c **** 	point3.y = 10;
1153:../Source Files/lpc_ssp_glcd.c **** 	tricfg.fill = YES;
1154:../Source Files/lpc_ssp_glcd.c **** 	tricfg.bndry= NO;
1155:../Source Files/lpc_ssp_glcd.c **** 	tricfg.fill_color=Black;
1156:../Source Files/lpc_ssp_glcd.c **** 	GLCD_Triangle(&point1,&point2,&point3,&tricfg);
1157:../Source Files/lpc_ssp_glcd.c **** 
1158:../Source Files/lpc_ssp_glcd.c **** 	/* Bottom arrow coordinates */
1159:../Source Files/lpc_ssp_glcd.c **** 	point1.x = 30;
1160:../Source Files/lpc_ssp_glcd.c **** 	point1.y = 238;
1161:../Source Files/lpc_ssp_glcd.c **** 	point2.x = 28;
1162:../Source Files/lpc_ssp_glcd.c **** 	point2.y = 233;
1163:../Source Files/lpc_ssp_glcd.c **** 	point3.x = 32;
1164:../Source Files/lpc_ssp_glcd.c **** 	point3.y = 233;
1165:../Source Files/lpc_ssp_glcd.c **** 	tricfg.fill = YES;
1166:../Source Files/lpc_ssp_glcd.c **** 	tricfg.bndry= NO;
1167:../Source Files/lpc_ssp_glcd.c **** 	tricfg.fill_color=Black;
1168:../Source Files/lpc_ssp_glcd.c **** 	GLCD_Triangle(&point1,&point2,&point3,&tricfg);
1169:../Source Files/lpc_ssp_glcd.c **** 
1170:../Source Files/lpc_ssp_glcd.c **** 	/* X Line Arrows Left and Right */
1171:../Source Files/lpc_ssp_glcd.c **** 	/* Left arrow coordinates */
1172:../Source Files/lpc_ssp_glcd.c **** 	point1.x = 1;
1173:../Source Files/lpc_ssp_glcd.c **** 	point1.y = 220;
1174:../Source Files/lpc_ssp_glcd.c **** 	point2.x = 6;
1175:../Source Files/lpc_ssp_glcd.c **** 	point2.y = 218;
1176:../Source Files/lpc_ssp_glcd.c **** 	point3.x = 6;
1177:../Source Files/lpc_ssp_glcd.c **** 	point3.y = 222;
1178:../Source Files/lpc_ssp_glcd.c **** 	tricfg.fill = YES;
1179:../Source Files/lpc_ssp_glcd.c **** 	tricfg.bndry= NO;
1180:../Source Files/lpc_ssp_glcd.c **** 	tricfg.fill_color=Black;
1181:../Source Files/lpc_ssp_glcd.c **** 	GLCD_Triangle(&point1,&point2,&point3,&tricfg);
1182:../Source Files/lpc_ssp_glcd.c **** 
1183:../Source Files/lpc_ssp_glcd.c **** 	/* Right arrow coordinates */
1184:../Source Files/lpc_ssp_glcd.c **** 	point1.x = 315;
1185:../Source Files/lpc_ssp_glcd.c **** 	point1.y = 220;
1186:../Source Files/lpc_ssp_glcd.c **** 	point2.x = 310;
1187:../Source Files/lpc_ssp_glcd.c **** 	point2.y = 218;
1188:../Source Files/lpc_ssp_glcd.c **** 	point3.x = 310;
1189:../Source Files/lpc_ssp_glcd.c **** 	point3.y = 222;
1190:../Source Files/lpc_ssp_glcd.c **** 	tricfg.fill = YES;
1191:../Source Files/lpc_ssp_glcd.c **** 	tricfg.bndry= NO;
1192:../Source Files/lpc_ssp_glcd.c **** 	tricfg.fill_color=Black;
1193:../Source Files/lpc_ssp_glcd.c **** 	GLCD_Triangle(&point1,&point2,&point3,&tricfg);
1194:../Source Files/lpc_ssp_glcd.c **** 
1195:../Source Files/lpc_ssp_glcd.c **** 	/* X and Y scaling */
1196:../Source Files/lpc_ssp_glcd.c **** 	GLCD_Text(0,225,"(0,0)",5,7,default5x7,1,Black);
1197:../Source Files/lpc_ssp_glcd.c **** 	for(y_scale=200,i=0; y_scale>=20; y_scale=y_scale-20,i++)
1198:../Source Files/lpc_ssp_glcd.c **** 	{
1199:../Source Files/lpc_ssp_glcd.c **** 		if(y_scale!=20)
1200:../Source Files/lpc_ssp_glcd.c **** 		{
1201:../Source Files/lpc_ssp_glcd.c **** 			GLCD_Text(14,y_scale,y_name[i],5,7,default5x7,1,Black);
1202:../Source Files/lpc_ssp_glcd.c **** 		}
1203:../Source Files/lpc_ssp_glcd.c **** 		else
1204:../Source Files/lpc_ssp_glcd.c **** 		{
1205:../Source Files/lpc_ssp_glcd.c **** 			GLCD_Text(10,y_scale,y_name[i],5,7,default5x7,1,Black);
1206:../Source Files/lpc_ssp_glcd.c **** 		}
1207:../Source Files/lpc_ssp_glcd.c **** 
1208:../Source Files/lpc_ssp_glcd.c **** 	}
1209:../Source Files/lpc_ssp_glcd.c **** 	for(x_scale=56,i=0; x_scale<=300; x_scale=x_scale+26,i++)
1210:../Source Files/lpc_ssp_glcd.c **** 	{
1211:../Source Files/lpc_ssp_glcd.c **** 		GLCD_Text(x_scale,225,x_name[i],5,7,default5x7,1,Black);
1212:../Source Files/lpc_ssp_glcd.c **** 	}
1213:../Source Files/lpc_ssp_glcd.c **** }
1214:../Source Files/lpc_ssp_glcd.c **** 
1215:../Source Files/lpc_ssp_glcd.c **** 
1216:../Source Files/lpc_ssp_glcd.c **** /*********************************************************************//**
1217:../Source Files/lpc_ssp_glcd.c ****  * @brief	    This function writes commands to the GLCD
1218:../Source Files/lpc_ssp_glcd.c ****  * @param[in]	Command		command to be written on GLCD
1219:../Source Files/lpc_ssp_glcd.c ****  * @return 		status
1220:../Source Files/lpc_ssp_glcd.c ****  **********************************************************************/
1221:../Source Files/lpc_ssp_glcd.c **** uchar Write_Command_Glcd (uint8_t Command)
1222:../Source Files/lpc_ssp_glcd.c **** {
 273              		.loc 1 1222 0
 274              		.cfi_startproc
 275              		@ args = 0, pretend = 0, frame = 40
 276              		@ frame_needed = 0, uses_anonymous_args = 0
 277              	.LVL18:
 278 00a8 10B5     		push	{r4, lr}
 279              	.LCFI3:
 280              		.cfi_def_cfa_offset 8
 281              		.cfi_offset 4, -8
 282              		.cfi_offset 14, -4
 283 00aa 8AB0     		sub	sp, sp, #40
 284              	.LCFI4:
 285              		.cfi_def_cfa_offset 48
 286              		.loc 1 1222 0
 287 00ac 0AAC     		add	r4, sp, #40
 288 00ae 04F8210D 		strb	r0, [r4, #-33]!
1223:../Source Files/lpc_ssp_glcd.c **** 	SSP_DATA_SETUP_Type xferConfig;
1224:../Source Files/lpc_ssp_glcd.c **** 	uint8_t WriteStatus =0;
1225:../Source Files/lpc_ssp_glcd.c **** 	__IO uint32_t i;
1226:../Source Files/lpc_ssp_glcd.c **** 
1227:../Source Files/lpc_ssp_glcd.c **** 	GPIO_ClearValue(2, LCD_RS);  //select command mode
 289              		.loc 1 1227 0
 290 00b2 0121     		movs	r1, #1
 291 00b4 0220     		movs	r0, #2
 292              	.LVL19:
 293 00b6 FFF7FEFF 		bl	GPIO_ClearValue
 294              	.LVL20:
1228:../Source Files/lpc_ssp_glcd.c **** 
1229:../Source Files/lpc_ssp_glcd.c **** 	CS_Force1 (LPC_SSP1, DISABLE);                        /* Select device           */
 295              		.loc 1 1229 0
 296 00ba 1148     		ldr	r0, .L27
 297 00bc 0021     		movs	r1, #0
 298 00be FFF7FEFF 		bl	CS_Force1
 299              	.LVL21:
1230:../Source Files/lpc_ssp_glcd.c **** 	xferConfig.tx_data = &Command;               /* Send Instruction Byte    */
 300              		.loc 1 1230 0
 301 00c2 0494     		str	r4, [sp, #16]
1231:../Source Files/lpc_ssp_glcd.c **** 	xferConfig.rx_data = NULL;
 302              		.loc 1 1231 0
 303 00c4 0022     		movs	r2, #0
1232:../Source Files/lpc_ssp_glcd.c **** 	xferConfig.length = 1;
 304              		.loc 1 1232 0
 305 00c6 0124     		movs	r4, #1
1233:../Source Files/lpc_ssp_glcd.c **** 	WriteStatus = SSP_ReadWrite(LPC_SSP1, &xferConfig, SSP_TRANSFER_POLLING);
 306              		.loc 1 1233 0
 307 00c8 0D48     		ldr	r0, .L27
 308 00ca 04A9     		add	r1, sp, #16
1231:../Source Files/lpc_ssp_glcd.c **** 	xferConfig.rx_data = NULL;
 309              		.loc 1 1231 0
 310 00cc 0692     		str	r2, [sp, #24]
1232:../Source Files/lpc_ssp_glcd.c **** 	xferConfig.length = 1;
 311              		.loc 1 1232 0
 312 00ce 0894     		str	r4, [sp, #32]
 313              		.loc 1 1233 0
 314 00d0 FFF7FEFF 		bl	SSP_ReadWrite
 315              	.LVL22:
1234:../Source Files/lpc_ssp_glcd.c **** 
1235:../Source Files/lpc_ssp_glcd.c **** 	if(WriteStatus)
 316              		.loc 1 1235 0
 317 00d4 C0B2     		uxtb	r0, r0
 318 00d6 80B1     		cbz	r0, .L21
 319              	.LBB4:
 320              	.LBB5:
1236:../Source Files/lpc_ssp_glcd.c **** 	{
1237:../Source Files/lpc_ssp_glcd.c **** 		CS_Force1 (LPC_SSP1, ENABLE);                          /* CS high inactive        */
 321              		.loc 1 1237 0
 322 00d8 2146     		mov	r1, r4
 323 00da 0948     		ldr	r0, .L27
 324              	.LVL23:
 325 00dc FFF7FEFF 		bl	CS_Force1
 326              	.LVL24:
1238:../Source Files/lpc_ssp_glcd.c **** 		for(i=925; i>0; i--);
 327              		.loc 1 1238 0
 328 00e0 40F29D31 		movw	r1, #925
 329              	.L25:
 330              	.LVL25:
 331 00e4 0391     		str	r1, [sp, #12]
 332 00e6 039B     		ldr	r3, [sp, #12]
 333 00e8 13B1     		cbz	r3, .L26
 334              	.L23:
 335 00ea 0398     		ldr	r0, [sp, #12]
 336 00ec 411E     		subs	r1, r0, #1
 337              	.LVL26:
 338 00ee F9E7     		b	.L25
 339              	.LVL27:
 340              	.L26:
1239:../Source Files/lpc_ssp_glcd.c **** 		GPIO_SetValue(2, LCD_RS);  // select data mode
 341              		.loc 1 1239 0
 342 00f0 0220     		movs	r0, #2
 343 00f2 0121     		movs	r1, #1
 344 00f4 FFF7FEFF 		bl	GPIO_SetValue
 345              	.LVL28:
 346 00f8 0120     		movs	r0, #1
 347              	.L21:
 348              	.LBE5:
 349              	.LBE4:
1240:../Source Files/lpc_ssp_glcd.c **** 		return(1);
1241:../Source Files/lpc_ssp_glcd.c **** 	}
1242:../Source Files/lpc_ssp_glcd.c **** 	else
1243:../Source Files/lpc_ssp_glcd.c **** 		return(0);
1244:../Source Files/lpc_ssp_glcd.c **** }
 350              		.loc 1 1244 0
 351 00fa 0AB0     		add	sp, sp, #40
 352 00fc 10BD     		pop	{r4, pc}
 353              	.L28:
 354 00fe 00BF     		.align	2
 355              	.L27:
 356 0100 00000340 		.word	1073938432
 357              		.cfi_endproc
 358              	.LFE85:
 360              		.align	1
 361              		.global	Write_Data_Glcd
 362              		.thumb
 363              		.thumb_func
 365              	Write_Data_Glcd:
 366              	.LFB86:
1245:../Source Files/lpc_ssp_glcd.c **** 
1246:../Source Files/lpc_ssp_glcd.c **** 
1247:../Source Files/lpc_ssp_glcd.c **** /*********************************************************************//**
1248:../Source Files/lpc_ssp_glcd.c ****  * @brief	    This function writes data to the GLCD
1249:../Source Files/lpc_ssp_glcd.c ****  * @param[in]	data	data to be written on GLCD
1250:../Source Files/lpc_ssp_glcd.c ****  * @return 		None
1251:../Source Files/lpc_ssp_glcd.c ****  **********************************************************************/
1252:../Source Files/lpc_ssp_glcd.c **** uchar Write_Data_Glcd (uint16_t data)
1253:../Source Files/lpc_ssp_glcd.c **** {
 367              		.loc 1 1253 0
 368              		.cfi_startproc
 369              		@ args = 0, pretend = 0, frame = 24
 370              		@ frame_needed = 0, uses_anonymous_args = 0
 371              	.LVL29:
 372 0104 10B5     		push	{r4, lr}
 373              	.LCFI5:
 374              		.cfi_def_cfa_offset 8
 375              		.cfi_offset 4, -8
 376              		.cfi_offset 14, -4
1254:../Source Files/lpc_ssp_glcd.c **** 	SSP_DATA_SETUP_Type xferConfig;
1255:../Source Files/lpc_ssp_glcd.c **** 	uint8_t WriteStatus =0;
1256:../Source Files/lpc_ssp_glcd.c **** 
1257:../Source Files/lpc_ssp_glcd.c **** 	Tx_Buf1[0] = (uchar)(data>>8);    // 1st byte extract
 377              		.loc 1 1257 0
 378 0106 0F4C     		ldr	r4, .L32
1253:../Source Files/lpc_ssp_glcd.c **** {
 379              		.loc 1 1253 0
 380 0108 86B0     		sub	sp, sp, #24
 381              	.LCFI6:
 382              		.cfi_def_cfa_offset 32
 383              		.loc 1 1257 0
 384 010a 030A     		lsrs	r3, r0, #8
1258:../Source Files/lpc_ssp_glcd.c **** 	Tx_Buf1[1] = (uchar) data;        // 2nd byte extract
 385              		.loc 1 1258 0
 386 010c 6070     		strb	r0, [r4, #1]
1259:../Source Files/lpc_ssp_glcd.c **** 
1260:../Source Files/lpc_ssp_glcd.c **** 	GPIO_SetValue(2, LCD_RS);  // select data mode
 387              		.loc 1 1260 0
 388 010e 0121     		movs	r1, #1
 389 0110 0220     		movs	r0, #2
 390              	.LVL30:
1257:../Source Files/lpc_ssp_glcd.c **** 	Tx_Buf1[0] = (uchar)(data>>8);    // 1st byte extract
 391              		.loc 1 1257 0
 392 0112 2370     		strb	r3, [r4, #0]
 393              		.loc 1 1260 0
 394 0114 FFF7FEFF 		bl	GPIO_SetValue
 395              	.LVL31:
1261:../Source Files/lpc_ssp_glcd.c **** 
1262:../Source Files/lpc_ssp_glcd.c **** 	CS_Force1 (LPC_SSP1, DISABLE);                        /* Select device           */
 396              		.loc 1 1262 0
 397 0118 0B48     		ldr	r0, .L32+4
 398 011a 0021     		movs	r1, #0
 399 011c FFF7FEFF 		bl	CS_Force1
 400              	.LVL32:
1263:../Source Files/lpc_ssp_glcd.c **** 	xferConfig.tx_data = Tx_Buf1;               /* Send Instruction Byte    */
1264:../Source Files/lpc_ssp_glcd.c **** 	xferConfig.rx_data = NULL;
1265:../Source Files/lpc_ssp_glcd.c **** 	xferConfig.length = 2;
 401              		.loc 1 1265 0
 402 0120 0220     		movs	r0, #2
1264:../Source Files/lpc_ssp_glcd.c **** 	xferConfig.rx_data = NULL;
 403              		.loc 1 1264 0
 404 0122 0022     		movs	r2, #0
 405              		.loc 1 1265 0
 406 0124 0490     		str	r0, [sp, #16]
1266:../Source Files/lpc_ssp_glcd.c **** 	WriteStatus = SSP_ReadWrite(LPC_SSP1, &xferConfig, SSP_TRANSFER_POLLING);
 407              		.loc 1 1266 0
 408 0126 6946     		mov	r1, sp
 409 0128 0748     		ldr	r0, .L32+4
1263:../Source Files/lpc_ssp_glcd.c **** 	xferConfig.tx_data = Tx_Buf1;               /* Send Instruction Byte    */
 410              		.loc 1 1263 0
 411 012a 0094     		str	r4, [sp, #0]
1264:../Source Files/lpc_ssp_glcd.c **** 	xferConfig.rx_data = NULL;
 412              		.loc 1 1264 0
 413 012c 0292     		str	r2, [sp, #8]
 414              		.loc 1 1266 0
 415 012e FFF7FEFF 		bl	SSP_ReadWrite
 416              	.LVL33:
1267:../Source Files/lpc_ssp_glcd.c **** 
1268:../Source Files/lpc_ssp_glcd.c **** 	if(WriteStatus)
 417              		.loc 1 1268 0
 418 0132 C0B2     		uxtb	r0, r0
 419 0134 20B1     		cbz	r0, .L30
 420              	.LBB8:
 421              	.LBB9:
1269:../Source Files/lpc_ssp_glcd.c **** 	{
1270:../Source Files/lpc_ssp_glcd.c **** 		CS_Force1 (LPC_SSP1, ENABLE);                          /* CS high inactive        */
 422              		.loc 1 1270 0
 423 0136 0448     		ldr	r0, .L32+4
 424              	.LVL34:
 425 0138 0121     		movs	r1, #1
 426 013a FFF7FEFF 		bl	CS_Force1
 427              	.LVL35:
 428 013e 0120     		movs	r0, #1
 429              	.L30:
 430              	.LBE9:
 431              	.LBE8:
1271:../Source Files/lpc_ssp_glcd.c **** 		return(1);
1272:../Source Files/lpc_ssp_glcd.c **** 	}
1273:../Source Files/lpc_ssp_glcd.c **** 	else
1274:../Source Files/lpc_ssp_glcd.c **** 		return(0);
1275:../Source Files/lpc_ssp_glcd.c **** }
 432              		.loc 1 1275 0
 433 0140 06B0     		add	sp, sp, #24
 434 0142 10BD     		pop	{r4, pc}
 435              	.L33:
 436              		.align	2
 437              	.L32:
 438 0144 00000000 		.word	Tx_Buf1
 439 0148 00000340 		.word	1073938432
 440              		.cfi_endproc
 441              	.LFE86:
 443              		.align	1
 444              		.global	GLCD_Bargraph
 445              		.thumb
 446              		.thumb_func
 448              	GLCD_Bargraph:
 449              	.LFB73:
 503:../Source Files/lpc_ssp_glcd.c **** {
 450              		.loc 1 503 0
 451              		.cfi_startproc
 452              		@ args = 4, pretend = 0, frame = 0
 453              		@ frame_needed = 0, uses_anonymous_args = 0
 454              	.LVL36:
 455 014c 2DE9F041 		push	{r4, r5, r6, r7, r8, lr}
 456              	.LCFI7:
 457              		.cfi_def_cfa_offset 24
 458              		.cfi_offset 4, -24
 459              		.cfi_offset 5, -20
 460              		.cfi_offset 6, -16
 461              		.cfi_offset 7, -12
 462              		.cfi_offset 8, -8
 463              		.cfi_offset 14, -4
 503:../Source Files/lpc_ssp_glcd.c **** {
 464              		.loc 1 503 0
 465 0150 0646     		mov	r6, r0
 506:../Source Files/lpc_ssp_glcd.c **** 	Write_Command_Glcd(0x45);      /* Horizontal GRAM Start Address      */
 466              		.loc 1 506 0
 467 0152 4520     		movs	r0, #69
 468              	.LVL37:
 503:../Source Files/lpc_ssp_glcd.c **** {
 469              		.loc 1 503 0
 470 0154 1546     		mov	r5, r2
 471 0156 1F46     		mov	r7, r3
 472 0158 0C46     		mov	r4, r1
 473 015a BDF81880 		ldrh	r8, [sp, #24]
 506:../Source Files/lpc_ssp_glcd.c **** 	Write_Command_Glcd(0x45);      /* Horizontal GRAM Start Address      */
 474              		.loc 1 506 0
 475 015e FFF7FEFF 		bl	Write_Command_Glcd
 476              	.LVL38:
 507:../Source Files/lpc_ssp_glcd.c **** 	Write_Data_Glcd(x);
 477              		.loc 1 507 0
 478 0162 3046     		mov	r0, r6
 479 0164 FFF7FEFF 		bl	Write_Data_Glcd
 480              	.LVL39:
 509:../Source Files/lpc_ssp_glcd.c **** 	Write_Command_Glcd(0x46);      /* Horizontal GRAM End   Address (-1) */
 481              		.loc 1 509 0
 482 0168 4620     		movs	r0, #70
 483 016a FFF7FEFF 		bl	Write_Command_Glcd
 484              	.LVL40:
 510:../Source Files/lpc_ssp_glcd.c **** 	Write_Data_Glcd(x+w-1);
 485              		.loc 1 510 0
 486 016e 701E     		subs	r0, r6, #1
 487 0170 2918     		adds	r1, r5, r0
 488 0172 88B2     		uxth	r0, r1
 489 0174 FFF7FEFF 		bl	Write_Data_Glcd
 490              	.LVL41:
 512:../Source Files/lpc_ssp_glcd.c **** 	Write_Command_Glcd(0x44);      /* Vertical   GRAM Start Address      */
 491              		.loc 1 512 0
 492 0178 4420     		movs	r0, #68
 493 017a FFF7FEFF 		bl	Write_Command_Glcd
 494              	.LVL42:
 513:../Source Files/lpc_ssp_glcd.c **** 	Write_Data_Glcd(y);
 495              		.loc 1 513 0
 496 017e 2046     		mov	r0, r4
 497 0180 FFF7FEFF 		bl	Write_Data_Glcd
 498              	.LVL43:
 515:../Source Files/lpc_ssp_glcd.c **** 	Write_Command_Glcd(0x44);      /* Vertical   GRAM End   Address (-1) */
 499              		.loc 1 515 0
 500 0184 4420     		movs	r0, #68
 501 0186 FFF7FEFF 		bl	Write_Command_Glcd
 502              	.LVL44:
 516:../Source Files/lpc_ssp_glcd.c **** 	Write_Data_Glcd((y+CHAR_H-1)<<8);
 503              		.loc 1 516 0
 504 018a 04F11702 		add	r2, r4, #23
 505 018e 1302     		lsls	r3, r2, #8
 506 0190 03F47F40 		and	r0, r3, #65280
 507 0194 FFF7FEFF 		bl	Write_Data_Glcd
 508              	.LVL45:
 518:../Source Files/lpc_ssp_glcd.c **** 	Write_Command_Glcd(0x4E);     /* GDDRAM Horizontal */
 509              		.loc 1 518 0
 510 0198 4E20     		movs	r0, #78
 511 019a FFF7FEFF 		bl	Write_Command_Glcd
 512              	.LVL46:
 519:../Source Files/lpc_ssp_glcd.c **** 	Write_Data_Glcd(x);
 513              		.loc 1 519 0
 514 019e 3046     		mov	r0, r6
 515 01a0 FFF7FEFF 		bl	Write_Data_Glcd
 516              	.LVL47:
 521:../Source Files/lpc_ssp_glcd.c **** 	Write_Command_Glcd(0x4F);     /* GDDRAM Vertical */
 517              		.loc 1 521 0
 518 01a4 4F20     		movs	r0, #79
 519 01a6 FFF7FEFF 		bl	Write_Command_Glcd
 520              	.LVL48:
 522:../Source Files/lpc_ssp_glcd.c **** 	Write_Data_Glcd(y);
 521              		.loc 1 522 0
 522 01aa 2046     		mov	r0, r4
 523 01ac FFF7FEFF 		bl	Write_Data_Glcd
 524              	.LVL49:
 524:../Source Files/lpc_ssp_glcd.c **** 	Write_Command_Glcd(0x22);
 525              		.loc 1 524 0
 526 01b0 2220     		movs	r0, #34
 527 01b2 FFF7FEFF 		bl	Write_Command_Glcd
 528              	.LVL50:
 528:../Source Files/lpc_ssp_glcd.c **** 	wr_dat_start();
 529              		.loc 1 528 0
 530 01b6 FFF723FF 		bl	wr_dat_start
 531              	.LVL51:
 526:../Source Files/lpc_ssp_glcd.c **** 	val = (val * w) >> 10;                /* Scale value for 24x12 characters   */
 532              		.loc 1 526 0
 533 01ba 05FB08F6 		mul	r6, r5, r8
 534 01be 4FEAA628 		asr	r8, r6, #10
 535              	.LVL52:
 529:../Source Files/lpc_ssp_glcd.c **** 	for (i = h; i >0; i--)
 536              		.loc 1 529 0
 537 01c2 0026     		movs	r6, #0
 538              	.LVL53:
 539              	.L35:
 529:../Source Files/lpc_ssp_glcd.c **** 	for (i = h; i >0; i--)
 540              		.loc 1 529 0 is_stmt 0 discriminator 1
 541 01c4 B742     		cmp	r7, r6
 542 01c6 10D0     		beq	.L42
 543              	.L40:
 529:../Source Files/lpc_ssp_glcd.c **** 	for (i = h; i >0; i--)
 544              		.loc 1 529 0
 545 01c8 0024     		movs	r4, #0
 546              	.L39:
 547              	.LVL54:
 531:../Source Files/lpc_ssp_glcd.c **** 		for (j = 0; j <= w-1; j++)
 548              		.loc 1 531 0 is_stmt 1 discriminator 1
 549 01ca A542     		cmp	r5, r4
 550 01cc 0BDD     		ble	.L43
 551              	.L38:
 533:../Source Files/lpc_ssp_glcd.c **** 			if(j <= val)
 552              		.loc 1 533 0
 553 01ce 1FFA88F0 		uxth	r0, r8
 554 01d2 8442     		cmp	r4, r0
 535:../Source Files/lpc_ssp_glcd.c **** 				wr_dat_only(BackColor);
 555              		.loc 1 535 0
 556 01d4 D4BF     		ite	le
 557 01d6 0748     		ldrle	r0, .L44
 539:../Source Files/lpc_ssp_glcd.c **** 				wr_dat_only(TextColor);
 558              		.loc 1 539 0
 559 01d8 0748     		ldrgt	r0, .L44+4
 531:../Source Files/lpc_ssp_glcd.c **** 		for (j = 0; j <= w-1; j++)
 560              		.loc 1 531 0
 561 01da 0134     		adds	r4, r4, #1
 562              	.LVL55:
 539:../Source Files/lpc_ssp_glcd.c **** 				wr_dat_only(TextColor);
 563              		.loc 1 539 0
 564 01dc 0188     		ldrh	r1, [r0, #0]
 565 01de 88B2     		uxth	r0, r1
 566 01e0 FFF722FF 		bl	wr_dat_only
 567              	.LVL56:
 568 01e4 F1E7     		b	.L39
 569              	.L43:
 570 01e6 0136     		adds	r6, r6, #1
 571 01e8 ECE7     		b	.L35
 572              	.LVL57:
 573              	.L42:
 544:../Source Files/lpc_ssp_glcd.c **** }
 574              		.loc 1 544 0
 575 01ea BDE8F041 		pop	{r4, r5, r6, r7, r8, lr}
 543:../Source Files/lpc_ssp_glcd.c **** 	wr_dat_stop();
 576              		.loc 1 543 0
 577 01ee FFF715BF 		b	wr_dat_stop
 578              	.LVL58:
 579              	.L45:
 580 01f2 00BF     		.align	2
 581              	.L44:
 582 01f4 00000000 		.word	.LANCHOR1
 583 01f8 00000000 		.word	.LANCHOR0
 584              		.cfi_endproc
 585              	.LFE73:
 587              		.align	1
 588              		.global	GLCD_Draw_Char
 589              		.thumb
 590              		.thumb_func
 592              	GLCD_Draw_Char:
 593              	.LFB69:
 406:../Source Files/lpc_ssp_glcd.c **** {
 594              		.loc 1 406 0
 595              		.cfi_startproc
 596              		@ args = 0, pretend = 0, frame = 0
 597              		@ frame_needed = 0, uses_anonymous_args = 0
 598              	.LVL59:
 599 01fc F8B5     		push	{r3, r4, r5, r6, r7, lr}
 600              	.LCFI8:
 601              		.cfi_def_cfa_offset 24
 602              		.cfi_offset 3, -24
 603              		.cfi_offset 4, -20
 604              		.cfi_offset 5, -16
 605              		.cfi_offset 6, -12
 606              		.cfi_offset 7, -8
 607              		.cfi_offset 14, -4
 409:../Source Files/lpc_ssp_glcd.c **** 	x = x-CHAR_W;
 608              		.loc 1 409 0
 609 01fe A0F11005 		sub	r5, r0, #16
 610 0202 ADB2     		uxth	r5, r5
 611              	.LVL60:
 406:../Source Files/lpc_ssp_glcd.c **** {
 612              		.loc 1 406 0
 613 0204 0646     		mov	r6, r0
 411:../Source Files/lpc_ssp_glcd.c **** 	Write_Command_Glcd(0x45);      /* Horizontal GRAM Start Address      */
 614              		.loc 1 411 0
 615 0206 4520     		movs	r0, #69
 406:../Source Files/lpc_ssp_glcd.c **** {
 616              		.loc 1 406 0
 617 0208 0C46     		mov	r4, r1
 618 020a 1746     		mov	r7, r2
 411:../Source Files/lpc_ssp_glcd.c **** 	Write_Command_Glcd(0x45);      /* Horizontal GRAM Start Address      */
 619              		.loc 1 411 0
 620 020c FFF7FEFF 		bl	Write_Command_Glcd
 621              	.LVL61:
 412:../Source Files/lpc_ssp_glcd.c **** 	Write_Data_Glcd(x);
 622              		.loc 1 412 0
 623 0210 2846     		mov	r0, r5
 624 0212 FFF7FEFF 		bl	Write_Data_Glcd
 625              	.LVL62:
 414:../Source Files/lpc_ssp_glcd.c **** 	Write_Command_Glcd(0x46);      /* Horizontal GRAM End   Address (-1) */
 626              		.loc 1 414 0
 627 0216 4620     		movs	r0, #70
 628 0218 FFF7FEFF 		bl	Write_Command_Glcd
 629              	.LVL63:
 415:../Source Files/lpc_ssp_glcd.c **** 	Write_Data_Glcd(x+CHAR_W-1);
 630              		.loc 1 415 0
 631 021c 701E     		subs	r0, r6, #1
 632 021e 80B2     		uxth	r0, r0
 633 0220 FFF7FEFF 		bl	Write_Data_Glcd
 634              	.LVL64:
 417:../Source Files/lpc_ssp_glcd.c **** 	Write_Command_Glcd(0x44);      /* Vertical   GRAM Start Address      */
 635              		.loc 1 417 0
 636 0224 4420     		movs	r0, #68
 637 0226 FFF7FEFF 		bl	Write_Command_Glcd
 638              	.LVL65:
 418:../Source Files/lpc_ssp_glcd.c **** 	Write_Data_Glcd(y);
 639              		.loc 1 418 0
 640 022a 2046     		mov	r0, r4
 641 022c FFF7FEFF 		bl	Write_Data_Glcd
 642              	.LVL66:
 420:../Source Files/lpc_ssp_glcd.c **** 	Write_Command_Glcd(0x44);      /* Vertical   GRAM End   Address (-1) */
 643              		.loc 1 420 0
 644 0230 4420     		movs	r0, #68
 645 0232 FFF7FEFF 		bl	Write_Command_Glcd
 646              	.LVL67:
 421:../Source Files/lpc_ssp_glcd.c **** 	Write_Data_Glcd((y+CHAR_H-1)<<8);
 647              		.loc 1 421 0
 648 0236 04F11701 		add	r1, r4, #23
 649 023a 0A02     		lsls	r2, r1, #8
 650 023c 02F47F40 		and	r0, r2, #65280
 651 0240 FFF7FEFF 		bl	Write_Data_Glcd
 652              	.LVL68:
 423:../Source Files/lpc_ssp_glcd.c **** 	Write_Command_Glcd(0x4E);     /* GDDRAM Horizontal */
 653              		.loc 1 423 0
 654 0244 4E20     		movs	r0, #78
 655 0246 FFF7FEFF 		bl	Write_Command_Glcd
 656              	.LVL69:
 424:../Source Files/lpc_ssp_glcd.c **** 	Write_Data_Glcd(x);
 657              		.loc 1 424 0
 658 024a 2846     		mov	r0, r5
 659 024c FFF7FEFF 		bl	Write_Data_Glcd
 660              	.LVL70:
 426:../Source Files/lpc_ssp_glcd.c **** 	Write_Command_Glcd(0x4F);     /* GDDRAM Vertical */
 661              		.loc 1 426 0
 662 0250 4F20     		movs	r0, #79
 663 0252 FFF7FEFF 		bl	Write_Command_Glcd
 664              	.LVL71:
 427:../Source Files/lpc_ssp_glcd.c **** 	Write_Data_Glcd(y);
 665              		.loc 1 427 0
 666 0256 2046     		mov	r0, r4
 667 0258 FFF7FEFF 		bl	Write_Data_Glcd
 668              	.LVL72:
 429:../Source Files/lpc_ssp_glcd.c **** 	Write_Command_Glcd(0x22);
 669              		.loc 1 429 0
 670 025c 2220     		movs	r0, #34
 671 025e FFF7FEFF 		bl	Write_Command_Glcd
 672              	.LVL73:
 431:../Source Files/lpc_ssp_glcd.c **** 	wr_dat_start();
 673              		.loc 1 431 0
 674 0262 FFF7CDFE 		bl	wr_dat_start
 675              	.LVL74:
 676 0266 0025     		movs	r5, #0
 677              	.LVL75:
 678              	.L47:
 406:../Source Files/lpc_ssp_glcd.c **** {
 679              		.loc 1 406 0 discriminator 1
 680 0268 0024     		movs	r4, #0
 681              	.LVL76:
 682              	.L50:
 436:../Source Files/lpc_ssp_glcd.c **** 			if((c[idx] & (1 << i)) == 0x00)
 683              		.loc 1 436 0
 684 026a 7B5B     		ldrh	r3, [r7, r5]
 685 026c 43FA04F3 		asr	r3, r3, r4
 686 0270 D807     		lsls	r0, r3, #31
 438:../Source Files/lpc_ssp_glcd.c **** 				wr_dat_only(BackColor);
 687              		.loc 1 438 0
 688 0272 54BF     		ite	pl
 689 0274 0748     		ldrpl	r0, .L54
 442:../Source Files/lpc_ssp_glcd.c **** 				wr_dat_only(TextColor);
 690              		.loc 1 442 0
 691 0276 0848     		ldrmi	r0, .L54+4
 434:../Source Files/lpc_ssp_glcd.c **** 		for (i = 0; i<CHAR_W; i++)
 692              		.loc 1 434 0
 693 0278 0134     		adds	r4, r4, #1
 442:../Source Files/lpc_ssp_glcd.c **** 				wr_dat_only(TextColor);
 694              		.loc 1 442 0
 695 027a 0188     		ldrh	r1, [r0, #0]
 696 027c 88B2     		uxth	r0, r1
 697 027e FFF7D3FE 		bl	wr_dat_only
 698              	.LVL77:
 434:../Source Files/lpc_ssp_glcd.c **** 		for (i = 0; i<CHAR_W; i++)
 699              		.loc 1 434 0
 700 0282 102C     		cmp	r4, #16
 701 0284 F1D1     		bne	.L50
 702 0286 0235     		adds	r5, r5, #2
 432:../Source Files/lpc_ssp_glcd.c **** 	for (j = 0; j < CHAR_H; j++)
 703              		.loc 1 432 0
 704 0288 302D     		cmp	r5, #48
 705 028a EDD1     		bne	.L47
 706              	.L51:
 448:../Source Files/lpc_ssp_glcd.c **** }
 707              		.loc 1 448 0
 708 028c BDE8F840 		pop	{r3, r4, r5, r6, r7, lr}
 447:../Source Files/lpc_ssp_glcd.c **** 	wr_dat_stop();
 709              		.loc 1 447 0
 710 0290 FFF7C4BE 		b	wr_dat_stop
 711              	.LVL78:
 712              	.L55:
 713              		.align	2
 714              	.L54:
 715 0294 00000000 		.word	.LANCHOR1
 716 0298 00000000 		.word	.LANCHOR0
 717              		.cfi_endproc
 718              	.LFE69:
 720              		.align	1
 721              		.global	GLCD_Display_Char
 722              		.thumb
 723              		.thumb_func
 725              	GLCD_Display_Char:
 726              	.LFB70:
 459:../Source Files/lpc_ssp_glcd.c **** {
 727              		.loc 1 459 0
 728              		.cfi_startproc
 729              		@ args = 0, pretend = 0, frame = 0
 730              		@ frame_needed = 0, uses_anonymous_args = 0
 731              	.LVL79:
 460:../Source Files/lpc_ssp_glcd.c **** 	c -= 32;
 732              		.loc 1 460 0
 733 029c 203A     		subs	r2, r2, #32
 734              	.LVL80:
 461:../Source Files/lpc_ssp_glcd.c **** 	GLCD_Draw_Char(col * CHAR_W, ln * CHAR_H, (uint16_t *)&Font_24x16[c * CHAR_H]);
 735              		.loc 1 461 0
 736 029e 1823     		movs	r3, #24
 737 02a0 D2B2     		uxtb	r2, r2
 738 02a2 5843     		muls	r0, r3, r0
 739              	.LVL81:
 459:../Source Files/lpc_ssp_glcd.c **** {
 740              		.loc 1 459 0
 741 02a4 10B5     		push	{r4, lr}
 742              	.LCFI9:
 743              		.cfi_def_cfa_offset 8
 744              		.cfi_offset 4, -8
 745              		.cfi_offset 14, -4
 461:../Source Files/lpc_ssp_glcd.c **** 	GLCD_Draw_Char(col * CHAR_W, ln * CHAR_H, (uint16_t *)&Font_24x16[c * CHAR_H]);
 746              		.loc 1 461 0
 747 02a6 5343     		muls	r3, r2, r3
 748 02a8 0901     		lsls	r1, r1, #4
 749              	.LVL82:
 750 02aa 054A     		ldr	r2, .L57
 751 02ac 8CB2     		uxth	r4, r1
 752 02ae 02EB4302 		add	r2, r2, r3, lsl #1
 753 02b2 81B2     		uxth	r1, r0
 754 02b4 2046     		mov	r0, r4
 462:../Source Files/lpc_ssp_glcd.c **** }
 755              		.loc 1 462 0
 756 02b6 BDE81040 		pop	{r4, lr}
 461:../Source Files/lpc_ssp_glcd.c **** 	GLCD_Draw_Char(col * CHAR_W, ln * CHAR_H, (uint16_t *)&Font_24x16[c * CHAR_H]);
 757              		.loc 1 461 0
 758 02ba FFF7FEBF 		b	GLCD_Draw_Char
 759              	.LVL83:
 760              	.L58:
 761 02be 00BF     		.align	2
 762              	.L57:
 763 02c0 00000000 		.word	.LANCHOR2
 764              		.cfi_endproc
 765              	.LFE70:
 767              		.align	1
 768              		.global	GLCD_PutPixel
 769              		.thumb
 770              		.thumb_func
 772              	GLCD_PutPixel:
 773              	.LFB62:
 297:../Source Files/lpc_ssp_glcd.c **** {
 774              		.loc 1 297 0
 775              		.cfi_startproc
 776              		@ args = 0, pretend = 0, frame = 0
 777              		@ frame_needed = 0, uses_anonymous_args = 0
 778              	.LVL84:
 779 02c4 70B5     		push	{r4, r5, r6, lr}
 780              	.LCFI10:
 781              		.cfi_def_cfa_offset 16
 782              		.cfi_offset 4, -16
 783              		.cfi_offset 5, -12
 784              		.cfi_offset 6, -8
 785              		.cfi_offset 14, -4
 297:../Source Files/lpc_ssp_glcd.c **** {
 786              		.loc 1 297 0
 787 02c6 0446     		mov	r4, r0
 298:../Source Files/lpc_ssp_glcd.c **** 	Write_Command_Glcd(0x4E);     /* GDDRAM Horizontal */
 788              		.loc 1 298 0
 789 02c8 4E20     		movs	r0, #78
 790              	.LVL85:
 297:../Source Files/lpc_ssp_glcd.c **** {
 791              		.loc 1 297 0
 792 02ca 0D46     		mov	r5, r1
 793 02cc 1646     		mov	r6, r2
 298:../Source Files/lpc_ssp_glcd.c **** 	Write_Command_Glcd(0x4E);     /* GDDRAM Horizontal */
 794              		.loc 1 298 0
 795 02ce FFF7FEFF 		bl	Write_Command_Glcd
 796              	.LVL86:
 299:../Source Files/lpc_ssp_glcd.c **** 	Write_Data_Glcd(x);
 797              		.loc 1 299 0
 798 02d2 2046     		mov	r0, r4
 799 02d4 FFF7FEFF 		bl	Write_Data_Glcd
 800              	.LVL87:
 301:../Source Files/lpc_ssp_glcd.c **** 	Write_Command_Glcd(0x4F);     /* GDDRAM Vertical */
 801              		.loc 1 301 0
 802 02d8 4F20     		movs	r0, #79
 803 02da FFF7FEFF 		bl	Write_Command_Glcd
 804              	.LVL88:
 302:../Source Files/lpc_ssp_glcd.c **** 	Write_Data_Glcd(y);
 805              		.loc 1 302 0
 806 02de 2846     		mov	r0, r5
 807 02e0 FFF7FEFF 		bl	Write_Data_Glcd
 808              	.LVL89:
 304:../Source Files/lpc_ssp_glcd.c **** 	Write_Command_Glcd(0x22);      /* RAM data write     */
 809              		.loc 1 304 0
 810 02e4 2220     		movs	r0, #34
 811 02e6 FFF7FEFF 		bl	Write_Command_Glcd
 812              	.LVL90:
 305:../Source Files/lpc_ssp_glcd.c **** 	Write_Data_Glcd(color);
 813              		.loc 1 305 0
 814 02ea 3046     		mov	r0, r6
 306:../Source Files/lpc_ssp_glcd.c **** }
 815              		.loc 1 306 0
 816 02ec BDE87040 		pop	{r4, r5, r6, lr}
 305:../Source Files/lpc_ssp_glcd.c **** 	Write_Data_Glcd(color);
 817              		.loc 1 305 0
 818 02f0 FFF7FEBF 		b	Write_Data_Glcd
 819              	.LVL91:
 820              		.cfi_endproc
 821              	.LFE62:
 823              		.align	1
 824              		.global	GLCD_Text
 825              		.thumb
 826              		.thumb_func
 828              	GLCD_Text:
 829              	.LFB81:
1022:../Source Files/lpc_ssp_glcd.c **** {
 830              		.loc 1 1022 0
 831              		.cfi_startproc
 832              		@ args = 16, pretend = 0, frame = 56
 833              		@ frame_needed = 1, uses_anonymous_args = 0
 834              	.LVL92:
 835 02f4 2DE9F04F 		push	{r4, r5, r6, r7, r8, r9, sl, fp, lr}
 836              	.LCFI11:
 837              		.cfi_def_cfa_offset 36
 838              		.cfi_offset 4, -36
 839              		.cfi_offset 5, -32
 840              		.cfi_offset 6, -28
 841              		.cfi_offset 7, -24
 842              		.cfi_offset 8, -20
 843              		.cfi_offset 9, -16
 844              		.cfi_offset 10, -12
 845              		.cfi_offset 11, -8
 846              		.cfi_offset 14, -4
 847 02f8 8FB0     		sub	sp, sp, #60
 848              	.LCFI12:
 849              		.cfi_def_cfa_offset 96
 850 02fa 00AF     		add	r7, sp, #0
 851              	.LCFI13:
 852              		.cfi_def_cfa_register 7
1022:../Source Files/lpc_ssp_glcd.c **** {
 853              		.loc 1 1022 0
 854 02fc 1C46     		mov	r4, r3
 855              	.LVL93:
 856 02fe 97F96880 		ldrsb	r8, [r7, #104]
 857 0302 B7F86C30 		ldrh	r3, [r7, #108]
 858              	.LVL94:
 859 0306 0546     		mov	r5, r0
 860 0308 FB60     		str	r3, [r7, #12]
 861              	.LBB10:
1033:../Source Files/lpc_ssp_glcd.c ****          y += row*size + 1;                 // Set y at next position down
 862              		.loc 1 1033 0
 863 030a 1FFA88F3 		uxth	r3, r8
 864              	.LBE10:
1024:../Source Files/lpc_ssp_glcd.c ****    int8_t pixelData[row];                     // Stores character data
 865              		.loc 1 1024 0
 866 030e E01D     		adds	r0, r4, #7
 867              	.LVL95:
 868              	.LBB11:
1033:../Source Files/lpc_ssp_glcd.c ****          y += row*size + 1;                 // Set y at next position down
 869              		.loc 1 1033 0
 870 0310 3B63     		str	r3, [r7, #48]
 871 0312 6343     		muls	r3, r4, r3
 872              	.LBE11:
1022:../Source Files/lpc_ssp_glcd.c **** {
 873              		.loc 1 1022 0
 874 0314 F962     		str	r1, [r7, #44]
1024:../Source Files/lpc_ssp_glcd.c ****    int8_t pixelData[row];                     // Stores character data
 875              		.loc 1 1024 0
 876 0316 00F4FC71 		and	r1, r0, #504
 877              	.LVL96:
 878              	.LBB12:
1030:../Source Files/lpc_ssp_glcd.c ****       if(x+row*size >= 320)          // Performs character wrapping
 879              		.loc 1 1030 0
 880 031a 08FB04F0 		mul	r0, r8, r4
 881              	.LBE12:
1024:../Source Files/lpc_ssp_glcd.c ****    int8_t pixelData[row];                     // Stores character data
 882              		.loc 1 1024 0
 883 031e ADEB010D 		sub	sp, sp, r1
 884              	.LBB13:
1033:../Source Files/lpc_ssp_glcd.c ****          y += row*size + 1;                 // Set y at next position down
 885              		.loc 1 1033 0
 886 0322 591C     		adds	r1, r3, #1
1030:../Source Files/lpc_ssp_glcd.c ****       if(x+row*size >= 320)          // Performs character wrapping
 887              		.loc 1 1030 0
 888 0324 3862     		str	r0, [r7, #32]
1033:../Source Files/lpc_ssp_glcd.c ****          y += row*size + 1;                 // Set y at next position down
 889              		.loc 1 1033 0
 890 0326 88B2     		uxth	r0, r1
1037:../Source Files/lpc_ssp_glcd.c ****          for(k=0; k<col*size; ++k)          // Loop through the vertical pixels
 891              		.loc 1 1037 0
 892 0328 97F86010 		ldrb	r1, [r7, #96]	@ zero_extendqisi2
1033:../Source Files/lpc_ssp_glcd.c ****          y += row*size + 1;                 // Set y at next position down
 893              		.loc 1 1033 0
 894 032c F861     		str	r0, [r7, #28]
1037:../Source Files/lpc_ssp_glcd.c ****          for(k=0; k<col*size; ++k)          // Loop through the vertical pixels
 895              		.loc 1 1037 0
 896 032e 08FB01F0 		mul	r0, r8, r1
1021:../Source Files/lpc_ssp_glcd.c **** void GLCD_Text(int16_t x, int16_t y, int8_t* textptr, uint8_t row, uint8_t col, int8_t (*font)[row]
 897              		.loc 1 1021 0
 898 0332 013A     		subs	r2, r2, #1
 899              	.LVL97:
 900 0334 9BB2     		uxth	r3, r3
 901              	.LBE13:
1024:../Source Files/lpc_ssp_glcd.c ****    int8_t pixelData[row];                     // Stores character data
 902              		.loc 1 1024 0
 903 0336 C7F824D0 		str	sp, [r7, #36]
 904              	.LVL98:
 905              	.LBB14:
1037:../Source Files/lpc_ssp_glcd.c ****          for(k=0; k<col*size; ++k)          // Loop through the vertical pixels
 906              		.loc 1 1037 0
 907 033a B861     		str	r0, [r7, #24]
1021:../Source Files/lpc_ssp_glcd.c **** void GLCD_Text(int16_t x, int16_t y, int8_t* textptr, uint8_t row, uint8_t col, int8_t (*font)[row]
 908              		.loc 1 1021 0
 909 033c BA62     		str	r2, [r7, #40]
 910 033e 7B61     		str	r3, [r7, #20]
 911              	.LVL99:
 912              	.L61:
 913              	.LBE14:
1026:../Source Files/lpc_ssp_glcd.c ****    for(i=0; textptr[i] != '\0'; ++i, ++x) // Loop through the passed string
 914              		.loc 1 1026 0 discriminator 1
 915 0340 B96A     		ldr	r1, [r7, #40]
 916 0342 11F8010F 		ldrb	r0, [r1, #1]!	@ zero_extendqisi2
 917 0346 B962     		str	r1, [r7, #40]
 918 0348 0028     		cmp	r0, #0
 919 034a 63D0     		beq	.L73
 920              	.L70:
 921              	.LBB15:
1028:../Source Files/lpc_ssp_glcd.c ****       memcpy(pixelData, font[textptr[i]-' '], row);
 922              		.loc 1 1028 0
 923 034c 46B2     		sxtb	r6, r0
 924 034e 7B6E     		ldr	r3, [r7, #100]
 925 0350 A6F12002 		sub	r2, r6, #32
 926 0354 04FB0231 		mla	r1, r4, r2, r3
 927 0358 786A     		ldr	r0, [r7, #36]
 928 035a 2246     		mov	r2, r4
 929 035c FFF7FEFF 		bl	memcpy
 930              	.LVL100:
1030:../Source Files/lpc_ssp_glcd.c ****       if(x+row*size >= 320)          // Performs character wrapping
 931              		.loc 1 1030 0
 932 0360 396A     		ldr	r1, [r7, #32]
 933 0362 6818     		adds	r0, r5, r1
 934 0364 B0F5A07F 		cmp	r0, #320
 935 0368 05DB     		blt	.L62
 936              	.LVL101:
1033:../Source Files/lpc_ssp_glcd.c ****          y += row*size + 1;                 // Set y at next position down
 937              		.loc 1 1033 0
 938 036a FD69     		ldr	r5, [r7, #28]
 939 036c FE6A     		ldr	r6, [r7, #44]
 940 036e AA19     		adds	r2, r5, r6
 941 0370 13B2     		sxth	r3, r2
 942 0372 FB62     		str	r3, [r7, #44]
1032:../Source Files/lpc_ssp_glcd.c ****          x = 0;                           // Set x at far left position
 943              		.loc 1 1032 0
 944 0374 0025     		movs	r5, #0
 945              	.LVL102:
 946              	.L62:
1035:../Source Files/lpc_ssp_glcd.c ****       for(j=0; j<row; ++j, x+=size)         // Loop through character byte data
 947              		.loc 1 1035 0
 948 0376 7D63     		str	r5, [r7, #52]
 949 0378 0026     		movs	r6, #0
 950              	.LVL103:
 951              	.L63:
1035:../Source Files/lpc_ssp_glcd.c ****       for(j=0; j<row; ++j, x+=size)         // Loop through character byte data
 952              		.loc 1 1035 0 is_stmt 0 discriminator 1
 953 037a A642     		cmp	r6, r4
 954 037c 45DA     		bge	.L69
 955 037e FA6A     		ldr	r2, [r7, #44]
1021:../Source Files/lpc_ssp_glcd.c **** void GLCD_Text(int16_t x, int16_t y, int8_t* textptr, uint8_t row, uint8_t col, int8_t (*font)[row]
 956              		.loc 1 1021 0 is_stmt 1
 957 0380 4FF00009 		mov	r9, #0
 958 0384 1FFA82FC 		uxth	ip, r2
 959              	.L65:
1037:../Source Files/lpc_ssp_glcd.c ****          for(k=0; k<col*size; ++k)          // Loop through the vertical pixels
 960              		.loc 1 1037 0 discriminator 1
 961 0388 BB69     		ldr	r3, [r7, #24]
 962 038a 9945     		cmp	r9, r3
 963 038c 36DA     		bge	.L74
 964              	.L68:
1039:../Source Files/lpc_ssp_glcd.c ****             if(bit_test(pixelData[j], k)) // Check if the pixel should be set
 965              		.loc 1 1039 0
 966 038e 786A     		ldr	r0, [r7, #36]
 967 0390 8157     		ldrsb	r1, [r0, r6]
 968 0392 41FA09F2 		asr	r2, r1, r9
 969 0396 D207     		lsls	r2, r2, #31
 970 0398 07D4     		bmi	.L71
 971              	.L67:
 972 039a 396B     		ldr	r1, [r7, #48]
 973 039c 09F10109 		add	r9, r9, #1
 974 03a0 0CEB0102 		add	r2, ip, r1
 975 03a4 1FFA82FC 		uxth	ip, r2
 976 03a8 EEE7     		b	.L65
 977              	.L71:
 978 03aa 4FF0000B 		mov	fp, #0
 979              	.L64:
 980              	.LVL104:
1041:../Source Files/lpc_ssp_glcd.c ****                for(l=0; l<size; ++l)      // The next two loops change the
 981              		.loc 1 1041 0 discriminator 1
 982 03ae 0FFA8BF3 		sxth	r3, fp
 983 03b2 1FFA88F0 		uxth	r0, r8
 984 03b6 9845     		cmp	r8, r3
 985 03b8 3861     		str	r0, [r7, #16]
 986 03ba EEDD     		ble	.L67
1021:../Source Files/lpc_ssp_glcd.c **** void GLCD_Text(int16_t x, int16_t y, int8_t* textptr, uint8_t row, uint8_t col, int8_t (*font)[row]
 987              		.loc 1 1021 0
 988 03bc 0CEB0B03 		add	r3, ip, fp
 989 03c0 9BB2     		uxth	r3, r3
 990 03c2 4FF0000A 		mov	sl, #0
 991              	.L66:
1021:../Source Files/lpc_ssp_glcd.c **** void GLCD_Text(int16_t x, int16_t y, int8_t* textptr, uint8_t row, uint8_t col, int8_t (*font)[row]
 992              		.loc 1 1021 0 is_stmt 0 discriminator 2
 993 03c6 786B     		ldr	r0, [r7, #52]
1045:../Source Files/lpc_ssp_glcd.c ****                      GLCD_PutPixel(x+m, y+k*size+l, color); // Draws the pixel
 994              		.loc 1 1045 0 is_stmt 1 discriminator 2
 995 03c8 FA68     		ldr	r2, [r7, #12]
1021:../Source Files/lpc_ssp_glcd.c **** void GLCD_Text(int16_t x, int16_t y, int8_t* textptr, uint8_t row, uint8_t col, int8_t (*font)[row]
 996              		.loc 1 1021 0 discriminator 2
 997 03ca 0AEB0001 		add	r1, sl, r0
1045:../Source Files/lpc_ssp_glcd.c ****                      GLCD_PutPixel(x+m, y+k*size+l, color); // Draws the pixel
 998              		.loc 1 1045 0 discriminator 2
 999 03ce 88B2     		uxth	r0, r1
 1000 03d0 1946     		mov	r1, r3
 1001 03d2 BB60     		str	r3, [r7, #8]
 1002 03d4 C7F804C0 		str	ip, [r7, #4]
 1003 03d8 FFF7FEFF 		bl	GLCD_PutPixel
 1004              	.LVL105:
1043:../Source Files/lpc_ssp_glcd.c ****                   for(m=0; m<size; ++m)
 1005              		.loc 1 1043 0 discriminator 2
 1006 03dc 3A69     		ldr	r2, [r7, #16]
 1007 03de 0AF1010A 		add	sl, sl, #1
 1008 03e2 0FFA8AF3 		sxth	r3, sl
 1009 03e6 10B2     		sxth	r0, r2
 1010 03e8 8342     		cmp	r3, r0
 1011 03ea D7F804C0 		ldr	ip, [r7, #4]
 1012 03ee BB68     		ldr	r3, [r7, #8]
 1013 03f0 E9DB     		blt	.L66
1041:../Source Files/lpc_ssp_glcd.c ****                for(l=0; l<size; ++l)      // The next two loops change the
 1014              		.loc 1 1041 0
 1015 03f2 0BF1010B 		add	fp, fp, #1
 1016              	.LVL106:
 1017 03f6 1FFA8BFB 		uxth	fp, fp
 1018              	.LVL107:
 1019 03fa D8E7     		b	.L64
 1020              	.LVL108:
 1021              	.L74:
1021:../Source Files/lpc_ssp_glcd.c **** void GLCD_Text(int16_t x, int16_t y, int8_t* textptr, uint8_t row, uint8_t col, int8_t (*font)[row]
 1022              		.loc 1 1021 0
 1023 03fc 796B     		ldr	r1, [r7, #52]
 1024 03fe 386B     		ldr	r0, [r7, #48]
 1025 0400 0136     		adds	r6, r6, #1
 1026 0402 4218     		adds	r2, r0, r1
 1027 0404 13B2     		sxth	r3, r2
 1028 0406 7B63     		str	r3, [r7, #52]
 1029 0408 B7E7     		b	.L63
 1030              	.L69:
 1031 040a 7969     		ldr	r1, [r7, #20]
 1032 040c 6818     		adds	r0, r5, r1
 1033              	.LBE15:
1026:../Source Files/lpc_ssp_glcd.c ****    for(i=0; textptr[i] != '\0'; ++i, ++x) // Loop through the passed string
 1034              		.loc 1 1026 0
 1035 040e 451C     		adds	r5, r0, #1
 1036 0410 2DB2     		sxth	r5, r5
 1037              	.LVL109:
 1038 0412 95E7     		b	.L61
 1039              	.L73:
1052:../Source Files/lpc_ssp_glcd.c **** }
 1040              		.loc 1 1052 0
 1041 0414 07F13C07 		add	r7, r7, #60
 1042 0418 BD46     		mov	sp, r7
 1043 041a BDE8F08F 		pop	{r4, r5, r6, r7, r8, r9, sl, fp, pc}
 1044              		.cfi_endproc
 1045              	.LFE81:
 1047              		.align	1
 1048              		.global	GLCD_Line
 1049              		.thumb
 1050              		.thumb_func
 1052              	GLCD_Line:
 1053              	.LFB76:
 617:../Source Files/lpc_ssp_glcd.c **** {
 1054              		.loc 1 617 0
 1055              		.cfi_startproc
 1056              		@ args = 4, pretend = 0, frame = 16
 1057              		@ frame_needed = 0, uses_anonymous_args = 0
 1058              	.LVL110:
 1059 041e 2DE9F04F 		push	{r4, r5, r6, r7, r8, r9, sl, fp, lr}
 1060              	.LCFI14:
 1061              		.cfi_def_cfa_offset 36
 1062              		.cfi_offset 4, -36
 1063              		.cfi_offset 5, -32
 1064              		.cfi_offset 6, -28
 1065              		.cfi_offset 7, -24
 1066              		.cfi_offset 8, -20
 1067              		.cfi_offset 9, -16
 1068              		.cfi_offset 10, -12
 1069              		.cfi_offset 11, -8
 1070              		.cfi_offset 14, -4
 621:../Source Files/lpc_ssp_glcd.c **** 	dx = abs((int16_t)(x2 - x1));
 1071              		.loc 1 621 0
 1072 0422 141A     		subs	r4, r2, r0
 622:../Source Files/lpc_ssp_glcd.c **** 	dy = abs((int16_t)(y2 - y1));
 1073              		.loc 1 622 0
 1074 0424 5E1A     		subs	r6, r3, r1
 621:../Source Files/lpc_ssp_glcd.c **** 	dx = abs((int16_t)(x2 - x1));
 1075              		.loc 1 621 0
 1076 0426 24B2     		sxth	r4, r4
 622:../Source Files/lpc_ssp_glcd.c **** 	dy = abs((int16_t)(y2 - y1));
 1077              		.loc 1 622 0
 1078 0428 36B2     		sxth	r6, r6
 621:../Source Files/lpc_ssp_glcd.c **** 	dx = abs((int16_t)(x2 - x1));
 1079              		.loc 1 621 0
 1080 042a 002C     		cmp	r4, #0
 1081 042c B8BF     		it	lt
 1082 042e 6442     		rsblt	r4, r4, #0
 1083              	.LVL111:
 622:../Source Files/lpc_ssp_glcd.c **** 	dy = abs((int16_t)(y2 - y1));
 1084              		.loc 1 622 0
 1085 0430 002E     		cmp	r6, #0
 1086 0432 B8BF     		it	lt
 1087 0434 7642     		rsblt	r6, r6, #0
 1088              	.LVL112:
 627:../Source Files/lpc_ssp_glcd.c **** 		addx = -1;
 1089              		.loc 1 627 0
 1090 0436 4FF6FF75 		movw	r5, #65535
 636:../Source Files/lpc_ssp_glcd.c **** 	if(dx >= dy)
 1091              		.loc 1 636 0
 1092 043a 24B2     		sxth	r4, r4
 1093              	.LVL113:
 1094 043c 36B2     		sxth	r6, r6
 1095              	.LVL114:
 617:../Source Files/lpc_ssp_glcd.c **** {
 1096              		.loc 1 617 0
 1097 043e 85B0     		sub	sp, sp, #20
 1098              	.LCFI15:
 1099              		.cfi_def_cfa_offset 56
 627:../Source Files/lpc_ssp_glcd.c **** 		addx = -1;
 1100              		.loc 1 627 0
 1101 0440 9042     		cmp	r0, r2
 1102 0442 CCBF     		ite	gt
 1103 0444 2F46     		movgt	r7, r5
 1104 0446 0127     		movle	r7, #1
 1105              	.LVL115:
 631:../Source Files/lpc_ssp_glcd.c **** 		addy = -1;
 1106              		.loc 1 631 0
 1107 0448 9942     		cmp	r1, r3
 1108 044a CCBF     		ite	gt
 1109 044c A846     		movgt	r8, r5
 1110 044e 4FF00108 		movle	r8, #1
 1111              	.LVL116:
 636:../Source Files/lpc_ssp_glcd.c **** 	if(dx >= dy)
 1112              		.loc 1 636 0
 1113 0452 B442     		cmp	r4, r6
 617:../Source Files/lpc_ssp_glcd.c **** {
 1114              		.loc 1 617 0
 1115 0454 BDF83890 		ldrh	r9, [sp, #56]
 636:../Source Files/lpc_ssp_glcd.c **** 	if(dx >= dy)
 1116              		.loc 1 636 0
 1117 0458 29DB     		blt	.L78
 638:../Source Files/lpc_ssp_glcd.c **** 		P = 2*dy - dx;
 1118              		.loc 1 638 0
 1119 045a 4FEA460B 		lsl	fp, r6, #1
 651:../Source Files/lpc_ssp_glcd.c **** 				P += 2*dy - 2*dx;
 1120              		.loc 1 651 0
 1121 045e 361B     		subs	r6, r6, r4
 1122 0460 7300     		lsls	r3, r6, #1
 1123              	.LVL117:
 638:../Source Files/lpc_ssp_glcd.c **** 		P = 2*dy - dx;
 1124              		.loc 1 638 0
 1125 0462 C4EB0B05 		rsb	r5, r4, fp
 1126              	.LVL118:
 651:../Source Files/lpc_ssp_glcd.c **** 				P += 2*dy - 2*dx;
 1127              		.loc 1 651 0
 1128 0466 0393     		str	r3, [sp, #12]
 640:../Source Files/lpc_ssp_glcd.c **** 		for(i=0; i<=dx; ++i)
 1129              		.loc 1 640 0
 1130 0468 8A46     		mov	sl, r1
 1131 046a 0026     		movs	r6, #0
 1132              	.LVL119:
 1133              	.L79:
 640:../Source Files/lpc_ssp_glcd.c **** 		for(i=0; i<=dx; ++i)
 1134              		.loc 1 640 0 is_stmt 0 discriminator 1
 1135 046c A642     		cmp	r6, r4
 1136 046e 47DC     		bgt	.L75
 1137              	.L82:
 642:../Source Files/lpc_ssp_glcd.c **** 			GLCD_PutPixel(x, y, color);
 1138              		.loc 1 642 0 is_stmt 1
 1139 0470 1FFA8AF3 		uxth	r3, sl
 1140 0474 1FFA80FE 		uxth	lr, r0
 1141 0478 1946     		mov	r1, r3
 1142 047a 7046     		mov	r0, lr
 1143              	.LVL120:
 1144 047c 4A46     		mov	r2, r9
 1145 047e 0193     		str	r3, [sp, #4]
 1146 0480 CDF808E0 		str	lr, [sp, #8]
 1147 0484 FFF7FEFF 		bl	GLCD_PutPixel
 1148              	.LVL121:
 1149 0488 DDF808C0 		ldr	ip, [sp, #8]
 644:../Source Files/lpc_ssp_glcd.c **** 			if(P < 0)
 1150              		.loc 1 644 0
 1151 048c 002D     		cmp	r5, #0
 1152 048e 0CEB0701 		add	r1, ip, r7
 1153 0492 019B     		ldr	r3, [sp, #4]
 1154 0494 02DA     		bge	.L80
 646:../Source Files/lpc_ssp_glcd.c **** 				P += 2*dy;
 1155              		.loc 1 646 0
 1156 0496 5D44     		add	r5, r5, fp
 1157              	.LVL122:
 647:../Source Files/lpc_ssp_glcd.c **** 				x += addx;
 1158              		.loc 1 647 0
 1159 0498 88B2     		uxth	r0, r1
 1160              	.LVL123:
 1161 049a 06E0     		b	.L81
 1162              	.LVL124:
 1163              	.L80:
 651:../Source Files/lpc_ssp_glcd.c **** 				P += 2*dy - 2*dx;
 1164              		.loc 1 651 0
 1165 049c 0398     		ldr	r0, [sp, #12]
 653:../Source Files/lpc_ssp_glcd.c **** 				y += addy;
 1166              		.loc 1 653 0
 1167 049e 03EB080A 		add	sl, r3, r8
 1168              	.LVL125:
 651:../Source Files/lpc_ssp_glcd.c **** 				P += 2*dy - 2*dx;
 1169              		.loc 1 651 0
 1170 04a2 2D18     		adds	r5, r5, r0
 1171              	.LVL126:
 653:../Source Files/lpc_ssp_glcd.c **** 				y += addy;
 1172              		.loc 1 653 0
 1173 04a4 1FFA8AFA 		uxth	sl, sl
 652:../Source Files/lpc_ssp_glcd.c **** 				x += addx;
 1174              		.loc 1 652 0
 1175 04a8 88B2     		uxth	r0, r1
 1176              	.LVL127:
 1177              	.L81:
 640:../Source Files/lpc_ssp_glcd.c **** 		for(i=0; i<=dx; ++i)
 1178              		.loc 1 640 0
 1179 04aa 0136     		adds	r6, r6, #1
 1180              	.LVL128:
 1181 04ac DEE7     		b	.L79
 1182              	.LVL129:
 1183              	.L78:
 672:../Source Files/lpc_ssp_glcd.c **** 				P += 2*dx - 2*dy;
 1184              		.loc 1 672 0
 1185 04ae A21B     		subs	r2, r4, r6
 1186              	.LVL130:
 659:../Source Files/lpc_ssp_glcd.c **** 		P = 2*dx - dy;
 1187              		.loc 1 659 0
 1188 04b0 4FEA440A 		lsl	sl, r4, #1
 672:../Source Files/lpc_ssp_glcd.c **** 				P += 2*dx - 2*dy;
 1189              		.loc 1 672 0
 1190 04b4 5300     		lsls	r3, r2, #1
 1191              	.LVL131:
 659:../Source Files/lpc_ssp_glcd.c **** 		P = 2*dx - dy;
 1192              		.loc 1 659 0
 1193 04b6 C6EB0A05 		rsb	r5, r6, sl
 1194              	.LVL132:
 672:../Source Files/lpc_ssp_glcd.c **** 				P += 2*dx - 2*dy;
 1195              		.loc 1 672 0
 1196 04ba 0393     		str	r3, [sp, #12]
 661:../Source Files/lpc_ssp_glcd.c **** 		for(i=0; i<=dy; ++i)
 1197              		.loc 1 661 0
 1198 04bc 8346     		mov	fp, r0
 1199 04be 0024     		movs	r4, #0
 1200              	.LVL133:
 1201              	.L83:
 661:../Source Files/lpc_ssp_glcd.c **** 		for(i=0; i<=dy; ++i)
 1202              		.loc 1 661 0 is_stmt 0 discriminator 1
 1203 04c0 B442     		cmp	r4, r6
 1204 04c2 1DDC     		bgt	.L75
 1205              	.L86:
 663:../Source Files/lpc_ssp_glcd.c **** 			GLCD_PutPixel(x, y, color);
 1206              		.loc 1 663 0 is_stmt 1
 1207 04c4 1FFA81FC 		uxth	ip, r1
 1208 04c8 1FFA8BF3 		uxth	r3, fp
 1209 04cc 6146     		mov	r1, ip
 1210              	.LVL134:
 1211 04ce 1846     		mov	r0, r3
 1212 04d0 4A46     		mov	r2, r9
 1213 04d2 CDF808C0 		str	ip, [sp, #8]
 1214 04d6 0193     		str	r3, [sp, #4]
 1215 04d8 FFF7FEFF 		bl	GLCD_PutPixel
 1216              	.LVL135:
 1217 04dc DDF808C0 		ldr	ip, [sp, #8]
 665:../Source Files/lpc_ssp_glcd.c **** 			if(P < 0)
 1218              		.loc 1 665 0
 1219 04e0 002D     		cmp	r5, #0
 1220 04e2 0CEB0801 		add	r1, ip, r8
 1221 04e6 0198     		ldr	r0, [sp, #4]
 1222 04e8 01DA     		bge	.L84
 667:../Source Files/lpc_ssp_glcd.c **** 				P += 2*dx;
 1223              		.loc 1 667 0
 1224 04ea 5544     		add	r5, r5, sl
 1225              	.LVL136:
 1226 04ec 05E0     		b	.L90
 1227              	.L84:
 672:../Source Files/lpc_ssp_glcd.c **** 				P += 2*dx - 2*dy;
 1228              		.loc 1 672 0
 1229 04ee 039A     		ldr	r2, [sp, #12]
 673:../Source Files/lpc_ssp_glcd.c **** 				x += addx;
 1230              		.loc 1 673 0
 1231 04f0 00EB070B 		add	fp, r0, r7
 1232              	.LVL137:
 672:../Source Files/lpc_ssp_glcd.c **** 				P += 2*dx - 2*dy;
 1233              		.loc 1 672 0
 1234 04f4 AD18     		adds	r5, r5, r2
 1235              	.LVL138:
 673:../Source Files/lpc_ssp_glcd.c **** 				x += addx;
 1236              		.loc 1 673 0
 1237 04f6 1FFA8BFB 		uxth	fp, fp
 1238              	.L90:
 1239              	.LVL139:
 674:../Source Files/lpc_ssp_glcd.c **** 				y += addy;
 1240              		.loc 1 674 0
 1241 04fa 89B2     		uxth	r1, r1
 1242              	.LVL140:
 661:../Source Files/lpc_ssp_glcd.c **** 		for(i=0; i<=dy; ++i)
 1243              		.loc 1 661 0
 1244 04fc 0134     		adds	r4, r4, #1
 1245              	.LVL141:
 1246 04fe DFE7     		b	.L83
 1247              	.LVL142:
 1248              	.L75:
 678:../Source Files/lpc_ssp_glcd.c **** }
 1249              		.loc 1 678 0
 1250 0500 05B0     		add	sp, sp, #20
 1251 0502 BDE8F08F 		pop	{r4, r5, r6, r7, r8, r9, sl, fp, pc}
 1252              		.cfi_endproc
 1253              	.LFE76:
 1255              		.align	1
 1256              		.global	GLCD_LBar
 1257              		.thumb
 1258              		.thumb_func
 1260              	GLCD_LBar:
 1261              	.LFB83:
1091:../Source Files/lpc_ssp_glcd.c **** {
 1262              		.loc 1 1091 0
 1263              		.cfi_startproc
 1264              		@ args = 8, pretend = 0, frame = 0
 1265              		@ frame_needed = 0, uses_anonymous_args = 0
 1266              	.LVL143:
 1267 0506 2DE9F743 		push	{r0, r1, r2, r4, r5, r6, r7, r8, r9, lr}
 1268              	.LCFI16:
 1269              		.cfi_def_cfa_offset 40
 1270              		.cfi_offset 0, -40
 1271              		.cfi_offset 1, -36
 1272              		.cfi_offset 2, -32
 1273              		.cfi_offset 4, -28
 1274              		.cfi_offset 5, -24
 1275              		.cfi_offset 6, -20
 1276              		.cfi_offset 7, -16
 1277              		.cfi_offset 8, -12
 1278              		.cfi_offset 9, -8
 1279              		.cfi_offset 14, -4
1091:../Source Files/lpc_ssp_glcd.c **** {
 1280              		.loc 1 1091 0
 1281 050a 9DF82860 		ldrb	r6, [sp, #40]	@ zero_extendqisi2
 1282 050e 1446     		mov	r4, r2
 1283 0510 1D46     		mov	r5, r3
 1284 0512 BDF82C70 		ldrh	r7, [sp, #44]
1094:../Source Files/lpc_ssp_glcd.c **** 	if(dec)
 1285              		.loc 1 1094 0
 1286 0516 0EB1     		cbz	r6, .L92
1096:../Source Files/lpc_ssp_glcd.c **** 		y_diff=y+(per);
 1287              		.loc 1 1096 0
 1288 0518 9B18     		adds	r3, r3, r2
 1289              	.LVL144:
 1290 051a 00E0     		b	.L105
 1291              	.LVL145:
 1292              	.L92:
1100:../Source Files/lpc_ssp_glcd.c **** 		y_diff=y-(per);
 1293              		.loc 1 1100 0
 1294 051c D31A     		subs	r3, r2, r3
 1295              	.LVL146:
 1296              	.L105:
 1297 051e 9BB2     		uxth	r3, r3
 1298              	.LVL147:
1103:../Source Files/lpc_ssp_glcd.c **** 	if((y_diff>=20) && (index<=10) && !dec)
 1299              		.loc 1 1103 0
 1300 0520 1AB2     		sxth	r2, r3
 1301              	.LVL148:
 1302 0522 132A     		cmp	r2, #19
 1303 0524 1DDD     		ble	.L94
1103:../Source Files/lpc_ssp_glcd.c **** 	if((y_diff>=20) && (index<=10) && !dec)
 1304              		.loc 1 1103 0 is_stmt 0 discriminator 1
 1305 0526 0A28     		cmp	r0, #10
 1306 0528 1BDC     		bgt	.L94
 1307 052a 002E     		cmp	r6, #0
 1308 052c 3AD1     		bne	.L95
1107:../Source Files/lpc_ssp_glcd.c **** 			x1 = 30+(index*26)-(width-(width/2));
 1309              		.loc 1 1107 0 is_stmt 1
 1310 052e 1A22     		movs	r2, #26
 1311 0530 5043     		muls	r0, r2, r0
 1312              	.LVL149:
 1313 0532 1E30     		adds	r0, r0, #30
 1314 0534 00EB5103 		add	r3, r0, r1, lsr #1
 1315              	.LVL150:
 1316 0538 98B2     		uxth	r0, r3
 1317 053a 411A     		subs	r1, r0, r1
 1318              	.LVL151:
 1319 053c 1FFA81F8 		uxth	r8, r1
1108:../Source Files/lpc_ssp_glcd.c **** 			x2 = x1+width;
 1320              		.loc 1 1108 0
 1321 0540 1FFA80F9 		uxth	r9, r0
 1322              	.L96:
1105:../Source Files/lpc_ssp_glcd.c **** 		for(h=0;h<=per;h++)
 1323              		.loc 1 1105 0 discriminator 1
 1324 0544 32B2     		sxth	r2, r6
 1325 0546 AA42     		cmp	r2, r5
 1326 0548 2EDC     		bgt	.L91
 1327              	.L97:
 1328              	.LVL152:
1090:../Source Files/lpc_ssp_glcd.c **** void GLCD_LBar(int16_t index, uint8_t width, int16_t y, int16_t per, Bool dec,uint16_t color)
 1329              		.loc 1 1090 0 discriminator 2
 1330 054a A31B     		subs	r3, r4, r6
1109:../Source Files/lpc_ssp_glcd.c **** 			GLCD_Line(x1,y-h,x2,y-h,color);
 1331              		.loc 1 1109 0 discriminator 2
 1332 054c 19B2     		sxth	r1, r3
 1333 054e 0097     		str	r7, [sp, #0]
 1334 0550 0FFA88F0 		sxth	r0, r8
 1335 0554 0FFA89F2 		sxth	r2, r9
 1336 0558 0B46     		mov	r3, r1
 1337 055a FFF7FEFF 		bl	GLCD_Line
 1338              	.LVL153:
 1339 055e 0136     		adds	r6, r6, #1
 1340 0560 F0E7     		b	.L96
 1341              	.LVL154:
 1342              	.L94:
1112:../Source Files/lpc_ssp_glcd.c **** 	else if(dec && (y_diff<=219) && (index<=10))
 1343              		.loc 1 1112 0
 1344 0562 0EB3     		cbz	r6, .L91
1112:../Source Files/lpc_ssp_glcd.c **** 	else if(dec && (y_diff<=219) && (index<=10))
 1345              		.loc 1 1112 0 is_stmt 0 discriminator 1
 1346 0564 1BB2     		sxth	r3, r3
 1347              	.LVL155:
 1348 0566 DB2B     		cmp	r3, #219
 1349 0568 1EDC     		bgt	.L91
 1350 056a 0A28     		cmp	r0, #10
 1351              	.L106:
 1352 056c 1CDC     		bgt	.L91
1116:../Source Files/lpc_ssp_glcd.c **** 			x1 = 30+(index*26)-(width-(width/2));
 1353              		.loc 1 1116 0 is_stmt 1 discriminator 1
 1354 056e 1A26     		movs	r6, #26
 1355 0570 7043     		muls	r0, r6, r0
 1356              	.LVL156:
 1357 0572 1E30     		adds	r0, r0, #30
 1358 0574 00EB5100 		add	r0, r0, r1, lsr #1
 1359 0578 82B2     		uxth	r2, r0
 1360 057a 511A     		subs	r1, r2, r1
 1361              	.LVL157:
 1362 057c 1FFA81F8 		uxth	r8, r1
1117:../Source Files/lpc_ssp_glcd.c **** 			x2 = x1+width;
 1363              		.loc 1 1117 0 discriminator 1
 1364 0580 1FFA82F9 		uxth	r9, r2
 1365 0584 0026     		movs	r6, #0
 1366              	.L99:
1114:../Source Files/lpc_ssp_glcd.c **** 		for(h=0;h<=per;h++)
 1367              		.loc 1 1114 0 discriminator 1
 1368 0586 33B2     		sxth	r3, r6
 1369 0588 AB42     		cmp	r3, r5
 1370 058a 0DDC     		bgt	.L91
 1371              	.L100:
1090:../Source Files/lpc_ssp_glcd.c **** void GLCD_LBar(int16_t index, uint8_t width, int16_t y, int16_t per, Bool dec,uint16_t color)
 1372              		.loc 1 1090 0 discriminator 2
 1373 058c 3019     		adds	r0, r6, r4
1118:../Source Files/lpc_ssp_glcd.c **** 			GLCD_Line(x1,y+h,x2,y+h,color);
 1374              		.loc 1 1118 0 discriminator 2
 1375 058e 01B2     		sxth	r1, r0
 1376 0590 0097     		str	r7, [sp, #0]
 1377 0592 0FFA88F0 		sxth	r0, r8
 1378 0596 0FFA89F2 		sxth	r2, r9
 1379 059a 0B46     		mov	r3, r1
 1380 059c FFF7FEFF 		bl	GLCD_Line
 1381              	.LVL158:
 1382 05a0 0136     		adds	r6, r6, #1
 1383 05a2 F0E7     		b	.L99
 1384              	.LVL159:
 1385              	.L95:
1112:../Source Files/lpc_ssp_glcd.c **** 	else if(dec && (y_diff<=219) && (index<=10))
 1386              		.loc 1 1112 0
 1387 05a4 DB2A     		cmp	r2, #219
 1388 05a6 E1E7     		b	.L106
 1389              	.LVL160:
 1390              	.L91:
1121:../Source Files/lpc_ssp_glcd.c **** }
 1391              		.loc 1 1121 0
 1392 05a8 BDE8FE83 		pop	{r1, r2, r3, r4, r5, r6, r7, r8, r9, pc}
 1393              		.cfi_endproc
 1394              	.LFE83:
 1396              		.align	1
 1397              		.global	GLCD_Triangle
 1398              		.thumb
 1399              		.thumb_func
 1401              	GLCD_Triangle:
 1402              	.LFB79:
 794:../Source Files/lpc_ssp_glcd.c **** {
 1403              		.loc 1 794 0
 1404              		.cfi_startproc
 1405              		@ args = 0, pretend = 0, frame = 48
 1406              		@ frame_needed = 0, uses_anonymous_args = 0
 1407              	.LVL161:
 1408 05ac 2DE9F04F 		push	{r4, r5, r6, r7, r8, r9, sl, fp, lr}
 1409              	.LCFI17:
 1410              		.cfi_def_cfa_offset 36
 1411              		.cfi_offset 4, -36
 1412              		.cfi_offset 5, -32
 1413              		.cfi_offset 6, -28
 1414              		.cfi_offset 7, -24
 1415              		.cfi_offset 8, -20
 1416              		.cfi_offset 9, -16
 1417              		.cfi_offset 10, -12
 1418              		.cfi_offset 11, -8
 1419              		.cfi_offset 14, -4
 1420 05b0 8FB0     		sub	sp, sp, #60
 1421              	.LCFI18:
 1422              		.cfi_def_cfa_offset 96
 794:../Source Files/lpc_ssp_glcd.c **** {
 1423              		.loc 1 794 0
 1424 05b2 0693     		str	r3, [sp, #24]
 795:../Source Files/lpc_ssp_glcd.c ****     if(cfg->fill)
 1425              		.loc 1 795 0
 1426 05b4 1B78     		ldrb	r3, [r3, #0]	@ zero_extendqisi2
 1427              	.LVL162:
 794:../Source Files/lpc_ssp_glcd.c **** {
 1428              		.loc 1 794 0
 1429 05b6 0746     		mov	r7, r0
 1430 05b8 0D46     		mov	r5, r1
 1431 05ba 1646     		mov	r6, r2
 795:../Source Files/lpc_ssp_glcd.c ****     if(cfg->fill)
 1432              		.loc 1 795 0
 1433 05bc 002B     		cmp	r3, #0
 1434 05be 00F03082 		beq	.L108
 1435              	.LVL163:
 1436              	.LBB16:
 803:../Source Files/lpc_ssp_glcd.c ****     	if (p1->y > p2->y) { SWAP(p1->y,p2->y); SWAP(p1->x,p2->x); }
 1437              		.loc 1 803 0
 1438 05c2 4488     		ldrh	r4, [r0, #2]
 1439 05c4 4A88     		ldrh	r2, [r1, #2]
 1440              	.LVL164:
 1441 05c6 20B2     		sxth	r0, r4
 1442              	.LVL165:
 1443 05c8 11B2     		sxth	r1, r2
 1444              	.LVL166:
 1445 05ca 8842     		cmp	r0, r1
 1446 05cc 14DD     		ble	.L109
 803:../Source Files/lpc_ssp_glcd.c ****     	if (p1->y > p2->y) { SWAP(p1->y,p2->y); SWAP(p1->x,p2->x); }
 1447              		.loc 1 803 0 is_stmt 0 discriminator 1
 1448 05ce 82EA0403 		eor	r3, r2, r4
 1449 05d2 7B80     		strh	r3, [r7, #2]	@ movhi
 1450 05d4 6C88     		ldrh	r4, [r5, #2]
 1451 05d6 2888     		ldrh	r0, [r5, #0]
 1452 05d8 6340     		eors	r3, r3, r4
 1453 05da 6B80     		strh	r3, [r5, #2]	@ movhi
 1454 05dc 7A88     		ldrh	r2, [r7, #2]
 1455 05de 3988     		ldrh	r1, [r7, #0]
 1456 05e0 5340     		eors	r3, r3, r2
 1457 05e2 7B80     		strh	r3, [r7, #2]	@ movhi
 1458 05e4 80EA0103 		eor	r3, r0, r1
 1459 05e8 9CB2     		uxth	r4, r3
 1460 05ea 3C80     		strh	r4, [r7, #0]	@ movhi
 1461 05ec 2A88     		ldrh	r2, [r5, #0]
 1462 05ee 5440     		eors	r4, r4, r2
 1463 05f0 2C80     		strh	r4, [r5, #0]	@ movhi
 1464 05f2 3888     		ldrh	r0, [r7, #0]
 1465 05f4 4440     		eors	r4, r4, r0
 1466 05f6 3C80     		strh	r4, [r7, #0]	@ movhi
 1467              	.L109:
 804:../Source Files/lpc_ssp_glcd.c ****     	if (p1->y > p3->y) { SWAP(p1->y,p3->y); SWAP(p1->x,p3->x); }
 1468              		.loc 1 804 0 is_stmt 1
 1469 05f8 7B88     		ldrh	r3, [r7, #2]
 1470 05fa 7488     		ldrh	r4, [r6, #2]
 1471 05fc 1AB2     		sxth	r2, r3
 1472 05fe 21B2     		sxth	r1, r4
 1473 0600 8A42     		cmp	r2, r1
 1474 0602 14DD     		ble	.L110
 804:../Source Files/lpc_ssp_glcd.c ****     	if (p1->y > p3->y) { SWAP(p1->y,p3->y); SWAP(p1->x,p3->x); }
 1475              		.loc 1 804 0 is_stmt 0 discriminator 1
 1476 0604 84EA0300 		eor	r0, r4, r3
 1477 0608 7880     		strh	r0, [r7, #2]	@ movhi
 1478 060a 7388     		ldrh	r3, [r6, #2]
 1479 060c 3288     		ldrh	r2, [r6, #0]
 1480 060e 5840     		eors	r0, r0, r3
 1481 0610 7080     		strh	r0, [r6, #2]	@ movhi
 1482 0612 7C88     		ldrh	r4, [r7, #2]
 1483 0614 3988     		ldrh	r1, [r7, #0]
 1484 0616 6040     		eors	r0, r0, r4
 1485 0618 7880     		strh	r0, [r7, #2]	@ movhi
 1486 061a 82EA0100 		eor	r0, r2, r1
 1487 061e 83B2     		uxth	r3, r0
 1488 0620 3B80     		strh	r3, [r7, #0]	@ movhi
 1489 0622 3488     		ldrh	r4, [r6, #0]
 1490 0624 6340     		eors	r3, r3, r4
 1491 0626 3380     		strh	r3, [r6, #0]	@ movhi
 1492 0628 3A88     		ldrh	r2, [r7, #0]
 1493 062a 5340     		eors	r3, r3, r2
 1494 062c 3B80     		strh	r3, [r7, #0]	@ movhi
 1495              	.L110:
 805:../Source Files/lpc_ssp_glcd.c ****     	if (p2->y > p3->y) { SWAP(p2->y,p3->y); SWAP(p2->x,p3->x); }
 1496              		.loc 1 805 0 is_stmt 1
 1497 062e 6B88     		ldrh	r3, [r5, #2]
 1498 0630 7488     		ldrh	r4, [r6, #2]
 1499 0632 18B2     		sxth	r0, r3
 1500 0634 21B2     		sxth	r1, r4
 1501 0636 8842     		cmp	r0, r1
 1502 0638 13DD     		ble	.L111
 805:../Source Files/lpc_ssp_glcd.c ****     	if (p2->y > p3->y) { SWAP(p2->y,p3->y); SWAP(p2->x,p3->x); }
 1503              		.loc 1 805 0 is_stmt 0 discriminator 1
 1504 063a 6340     		eors	r3, r3, r4
 1505 063c 6B80     		strh	r3, [r5, #2]	@ movhi
 1506 063e 7288     		ldrh	r2, [r6, #2]
 1507 0640 3088     		ldrh	r0, [r6, #0]
 1508 0642 5340     		eors	r3, r3, r2
 1509 0644 7380     		strh	r3, [r6, #2]	@ movhi
 1510 0646 6C88     		ldrh	r4, [r5, #2]
 1511 0648 2988     		ldrh	r1, [r5, #0]
 1512 064a 6340     		eors	r3, r3, r4
 1513 064c 6B80     		strh	r3, [r5, #2]	@ movhi
 1514 064e 80EA0103 		eor	r3, r0, r1
 1515 0652 9CB2     		uxth	r4, r3
 1516 0654 2C80     		strh	r4, [r5, #0]	@ movhi
 1517 0656 3288     		ldrh	r2, [r6, #0]
 1518 0658 5440     		eors	r4, r4, r2
 1519 065a 3480     		strh	r4, [r6, #0]	@ movhi
 1520 065c 2888     		ldrh	r0, [r5, #0]
 1521 065e 4440     		eors	r4, r4, r0
 1522 0660 2C80     		strh	r4, [r5, #0]	@ movhi
 1523              	.L111:
 807:../Source Files/lpc_ssp_glcd.c ****     	t1x=t2x=p1->x; y=p1->y;   // Starting points
 1524              		.loc 1 807 0 is_stmt 1
 1525 0662 3988     		ldrh	r1, [r7, #0]
 809:../Source Files/lpc_ssp_glcd.c ****     	dx1 = (int16_t)(p2->x - p1->x);
 1526              		.loc 1 809 0
 1527 0664 2A88     		ldrh	r2, [r5, #0]
 807:../Source Files/lpc_ssp_glcd.c ****     	t1x=t2x=p1->x; y=p1->y;   // Starting points
 1528              		.loc 1 807 0
 1529 0666 8CB2     		uxth	r4, r1
 1530              	.LVL167:
 809:../Source Files/lpc_ssp_glcd.c ****     	dx1 = (int16_t)(p2->x - p1->x);
 1531              		.loc 1 809 0
 1532 0668 101B     		subs	r0, r2, r4
 807:../Source Files/lpc_ssp_glcd.c ****     	t1x=t2x=p1->x; y=p1->y;   // Starting points
 1533              		.loc 1 807 0
 1534 066a 7B88     		ldrh	r3, [r7, #2]
 809:../Source Files/lpc_ssp_glcd.c ****     	dx1 = (int16_t)(p2->x - p1->x);
 1535              		.loc 1 809 0
 1536 066c 82B2     		uxth	r2, r0
 1537 066e 1FFA82F9 		uxth	r9, r2
 807:../Source Files/lpc_ssp_glcd.c ****     	t1x=t2x=p1->x; y=p1->y;   // Starting points
 1538              		.loc 1 807 0
 1539 0672 1FFA83F8 		uxth	r8, r3
 810:../Source Files/lpc_ssp_glcd.c ****     	if(dx1<0) { dx1=-dx1; signx1=-1; } else signx1=1;
 1540              		.loc 1 810 0
 1541 0676 19F4004F 		tst	r9, #32768
 807:../Source Files/lpc_ssp_glcd.c ****     	t1x=t2x=p1->x; y=p1->y;   // Starting points
 1542              		.loc 1 807 0
 1543 067a CDF81480 		str	r8, [sp, #20]
 1544              	.LVL168:
 810:../Source Files/lpc_ssp_glcd.c ****     	if(dx1<0) { dx1=-dx1; signx1=-1; } else signx1=1;
 1545              		.loc 1 810 0
 1546 067e 08D0     		beq	.L152
 810:../Source Files/lpc_ssp_glcd.c ****     	if(dx1<0) { dx1=-dx1; signx1=-1; } else signx1=1;
 1547              		.loc 1 810 0 is_stmt 0 discriminator 1
 1548 0680 C2F10009 		rsb	r9, r2, #0
 1549 0684 4FF6FF7C 		movw	ip, #65535
 1550 0688 1FFA89F9 		uxth	r9, r9
 1551              	.LVL169:
 1552 068c CDF820C0 		str	ip, [sp, #32]
 1553 0690 03E0     		b	.L112
 1554              	.LVL170:
 1555              	.L152:
 810:../Source Files/lpc_ssp_glcd.c ****     	if(dx1<0) { dx1=-dx1; signx1=-1; } else signx1=1;
 1556              		.loc 1 810 0
 1557 0692 4FF0010A 		mov	sl, #1
 1558 0696 CDF820A0 		str	sl, [sp, #32]
 1559              	.LVL171:
 1560              	.L112:
 811:../Source Files/lpc_ssp_glcd.c ****     	dy1 = (int16_t)(p2->y - p1->y);
 1561              		.loc 1 811 0 is_stmt 1
 1562 069a B5F802B0 		ldrh	fp, [r5, #2]
 1563 069e DDF81480 		ldr	r8, [sp, #20]
 1564 06a2 C8EB0B00 		rsb	r0, r8, fp
 1565 06a6 82B2     		uxth	r2, r0
 813:../Source Files/lpc_ssp_glcd.c ****     	dx2 = (int8_t)(p3->x - p1->x);
 1566              		.loc 1 813 0
 1567 06a8 3078     		ldrb	r0, [r6, #0]	@ zero_extendqisi2
 811:../Source Files/lpc_ssp_glcd.c ****     	dy1 = (int16_t)(p2->y - p1->y);
 1568              		.loc 1 811 0
 1569 06aa 0392     		str	r2, [sp, #12]
 1570              	.LVL172:
 813:../Source Files/lpc_ssp_glcd.c ****     	dx2 = (int8_t)(p3->x - p1->x);
 1571              		.loc 1 813 0
 1572 06ac 411A     		subs	r1, r0, r1
 1573              	.LVL173:
 1574 06ae 4AB2     		sxtb	r2, r1
 814:../Source Files/lpc_ssp_glcd.c ****     	if(dx2<0) { dx2=-dx2; signx2=-1; } else signx2=1;
 1575              		.loc 1 814 0
 1576 06b0 11B2     		sxth	r1, r2
 813:../Source Files/lpc_ssp_glcd.c ****     	dx2 = (int8_t)(p3->x - p1->x);
 1577              		.loc 1 813 0
 1578 06b2 1FFA82FA 		uxth	sl, r2
 814:../Source Files/lpc_ssp_glcd.c ****     	if(dx2<0) { dx2=-dx2; signx2=-1; } else signx2=1;
 1579              		.loc 1 814 0
 1580 06b6 0029     		cmp	r1, #0
 813:../Source Files/lpc_ssp_glcd.c ****     	dx2 = (int8_t)(p3->x - p1->x);
 1581              		.loc 1 813 0
 1582 06b8 CDF810A0 		str	sl, [sp, #16]
 1583              	.LVL174:
 814:../Source Files/lpc_ssp_glcd.c ****     	if(dx2<0) { dx2=-dx2; signx2=-1; } else signx2=1;
 1584              		.loc 1 814 0
 1585 06bc 07DA     		bge	.L153
 814:../Source Files/lpc_ssp_glcd.c ****     	if(dx2<0) { dx2=-dx2; signx2=-1; } else signx2=1;
 1586              		.loc 1 814 0 is_stmt 0 discriminator 1
 1587 06be 5242     		negs	r2, r2
 1588              	.LVL175:
 1589 06c0 90B2     		uxth	r0, r2
 1590 06c2 4FF6FF78 		movw	r8, #65535
 1591 06c6 0490     		str	r0, [sp, #16]
 1592              	.LVL176:
 1593 06c8 CDF82880 		str	r8, [sp, #40]
 1594 06cc 03E0     		b	.L113
 1595              	.LVL177:
 1596              	.L153:
 814:../Source Files/lpc_ssp_glcd.c ****     	if(dx2<0) { dx2=-dx2; signx2=-1; } else signx2=1;
 1597              		.loc 1 814 0
 1598 06ce 4FF0010C 		mov	ip, #1
 1599 06d2 CDF828C0 		str	ip, [sp, #40]
 1600              	.LVL178:
 1601              	.L113:
 815:../Source Files/lpc_ssp_glcd.c ****     	dy2 = (int8_t)(p3->y - p1->y);
 1602              		.loc 1 815 0 is_stmt 1
 1603 06d6 B178     		ldrb	r1, [r6, #2]	@ zero_extendqisi2
 817:../Source Files/lpc_ssp_glcd.c ****     	if (dy1 > dx1)
 1604              		.loc 1 817 0
 1605 06d8 DDF80CC0 		ldr	ip, [sp, #12]
 815:../Source Files/lpc_ssp_glcd.c ****     	dy2 = (int8_t)(p3->y - p1->y);
 1606              		.loc 1 815 0
 1607 06dc CA1A     		subs	r2, r1, r3
 1608 06de 51B2     		sxtb	r1, r2
 817:../Source Files/lpc_ssp_glcd.c ****     	if (dy1 > dx1)
 1609              		.loc 1 817 0
 1610 06e0 0FFA8CF8 		sxth	r8, ip
 1611 06e4 0FFA89F2 		sxth	r2, r9
 815:../Source Files/lpc_ssp_glcd.c ****     	dy2 = (int8_t)(p3->y - p1->y);
 1612              		.loc 1 815 0
 1613 06e8 1FFA81FA 		uxth	sl, r1
 817:../Source Files/lpc_ssp_glcd.c ****     	if (dy1 > dx1)
 1614              		.loc 1 817 0
 1615 06ec 9045     		cmp	r8, r2
 815:../Source Files/lpc_ssp_glcd.c ****     	dy2 = (int8_t)(p3->y - p1->y);
 1616              		.loc 1 815 0
 1617 06ee 0846     		mov	r0, r1	@ movhi
 1618 06f0 CDF834A0 		str	sl, [sp, #52]
 1619              	.LVL179:
 817:../Source Files/lpc_ssp_glcd.c ****     	if (dy1 > dx1)
 1620              		.loc 1 817 0
 1621 06f4 0FDD     		ble	.L154
 819:../Source Files/lpc_ssp_glcd.c ****             SWAP(dx1,dy1);
 1622              		.loc 1 819 0
 1623 06f6 DDF80CA0 		ldr	sl, [sp, #12]
 1624 06fa 89EA0A09 		eor	r9, r9, sl
 1625              	.LVL180:
 1626 06fe 89EA0A0C 		eor	ip, r9, sl
 1627 0702 1FFA8CF8 		uxth	r8, ip
 1628 0706 88EA0902 		eor	r2, r8, r9
 1629 070a 1FFA82F9 		uxth	r9, r2
 1630              	.LVL181:
 1631 070e CDF80C80 		str	r8, [sp, #12]
 1632              	.LVL182:
 820:../Source Files/lpc_ssp_glcd.c ****     		changed1 = TRUE;
 1633              		.loc 1 820 0
 1634 0712 0122     		movs	r2, #1
 1635              	.LVL183:
 1636 0714 00E0     		b	.L175
 1637              	.LVL184:
 1638              	.L154:
 798:../Source Files/lpc_ssp_glcd.c ****     	Bool changed1 = FALSE;
 1639              		.loc 1 798 0
 1640 0716 0022     		movs	r2, #0
 1641              	.LVL185:
 1642              	.L175:
 822:../Source Files/lpc_ssp_glcd.c ****     	if (dy2 > dx2)
 1643              		.loc 1 822 0
 1644 0718 DDF810A0 		ldr	sl, [sp, #16]
 1645 071c 00B2     		sxth	r0, r0
 1646              	.LVL186:
 1647 071e 0FFA8AFC 		sxth	ip, sl
 1648 0722 6045     		cmp	r0, ip
 798:../Source Files/lpc_ssp_glcd.c ****     	Bool changed1 = FALSE;
 1649              		.loc 1 798 0
 1650 0724 0792     		str	r2, [sp, #28]
 1651              	.LVL187:
 822:../Source Files/lpc_ssp_glcd.c ****     	if (dy2 > dx2)
 1652              		.loc 1 822 0
 1653 0726 0DDD     		ble	.L155
 824:../Source Files/lpc_ssp_glcd.c ****             SWAP(dy2,dx2);
 1654              		.loc 1 824 0
 1655 0728 8AEA0100 		eor	r0, sl, r1
 1656 072c 81B2     		uxth	r1, r0
 1657              	.LVL188:
 1658 072e 81EA0A08 		eor	r8, r1, sl
 1659 0732 88EA0100 		eor	r0, r8, r1
 1660              	.LVL189:
 1661 0736 81B2     		uxth	r1, r0
 1662              	.LVL190:
 825:../Source Files/lpc_ssp_glcd.c ****     		changed2 = TRUE;
 1663              		.loc 1 825 0
 1664 0738 0120     		movs	r0, #1
 824:../Source Files/lpc_ssp_glcd.c ****             SWAP(dy2,dx2);
 1665              		.loc 1 824 0
 1666 073a CDF81080 		str	r8, [sp, #16]
 1667 073e 0D91     		str	r1, [sp, #52]
 1668              	.LVL191:
 825:../Source Files/lpc_ssp_glcd.c ****     		changed2 = TRUE;
 1669              		.loc 1 825 0
 1670 0740 0990     		str	r0, [sp, #36]
 1671 0742 01E0     		b	.L115
 1672              	.LVL192:
 1673              	.L155:
 799:../Source Files/lpc_ssp_glcd.c ****     	Bool changed2 = FALSE;
 1674              		.loc 1 799 0
 1675 0744 0021     		movs	r1, #0
 1676              	.LVL193:
 1677 0746 0991     		str	r1, [sp, #36]
 1678              	.LVL194:
 1679              	.L115:
 828:../Source Files/lpc_ssp_glcd.c ****     	e2 = (uint16_t)(dx2>>1);
 1680              		.loc 1 828 0
 1681 0748 DDF810A0 		ldr	sl, [sp, #16]
 830:../Source Files/lpc_ssp_glcd.c ****         if(p1->y==p2->y) goto next;
 1682              		.loc 1 830 0
 1683 074c 9B45     		cmp	fp, r3
 828:../Source Files/lpc_ssp_glcd.c ****     	e2 = (uint16_t)(dx2>>1);
 1684              		.loc 1 828 0
 1685 074e 4AF34E01 		sbfx	r1, sl, #1, #15
 1686 0752 1FFA81FC 		uxth	ip, r1
 1687              	.LVL195:
 830:../Source Files/lpc_ssp_glcd.c ****         if(p1->y==p2->y) goto next;
 1688              		.loc 1 830 0
 1689 0756 00F09580 		beq	.L116
 831:../Source Files/lpc_ssp_glcd.c ****         e1 = (uint16_t)(dx1>>1);
 1690              		.loc 1 831 0
 1691 075a 49F34E03 		sbfx	r3, r9, #1, #15
 1692 075e 1FFA83FA 		uxth	sl, r3
 1693              	.LVL196:
 1694              	.LBB17:
 807:../Source Files/lpc_ssp_glcd.c ****     	t1x=t2x=p1->x; y=p1->y;   // Starting points
 1695              		.loc 1 807 0
 1696 0762 A046     		mov	r8, r4
 833:../Source Files/lpc_ssp_glcd.c ****     	for (uint8_t i = 0; i < dx1;)
 1697              		.loc 1 833 0
 1698 0764 4FF0000B 		mov	fp, #0
 1699              	.LVL197:
 1700              	.L117:
 833:../Source Files/lpc_ssp_glcd.c ****     	for (uint8_t i = 0; i < dx1;)
 1701              		.loc 1 833 0 is_stmt 0 discriminator 1
 1702 0768 0FFA89F3 		sxth	r3, r9
 1703 076c 9B45     		cmp	fp, r3
 1704 076e 80F28980 		bge	.L116
 1705              	.L131:
 1706              	.LVL198:
 836:../Source Files/lpc_ssp_glcd.c ****     		if(t1x<t2x) { minx=t1x; maxx=t2x; }
 1707              		.loc 1 836 0 is_stmt 1
 1708 0772 A045     		cmp	r8, r4
 839:../Source Files/lpc_ssp_glcd.c ****     		while(i<dx1)
 1709              		.loc 1 839 0
 1710 0774 4FF0000E 		mov	lr, #0
 836:../Source Files/lpc_ssp_glcd.c ****     		if(t1x<t2x) { minx=t1x; maxx=t2x; }
 1711              		.loc 1 836 0
 1712 0778 39BF     		ittee	cc
 1713 077a 2246     		movcc	r2, r4
 1714 077c 4146     		movcc	r1, r8
 1715 077e 4246     		movcs	r2, r8
 1716 0780 2146     		movcs	r1, r4
 839:../Source Files/lpc_ssp_glcd.c ****     		while(i<dx1)
 1717              		.loc 1 839 0
 1718 0782 CDF82CE0 		str	lr, [sp, #44]
 1719              	.LVL199:
 1720              	.L119:
 839:../Source Files/lpc_ssp_glcd.c ****     		while(i<dx1)
 1721              		.loc 1 839 0 is_stmt 0 discriminator 1
 1722 0786 9B45     		cmp	fp, r3
 1723 0788 08DA     		bge	.L122
 1724              	.L125:
 842:../Source Files/lpc_ssp_glcd.c ****     			e1 += dy1;
 1725              		.loc 1 842 0 is_stmt 1
 1726 078a 0398     		ldr	r0, [sp, #12]
 841:../Source Files/lpc_ssp_glcd.c ****     			i++;
 1727              		.loc 1 841 0
 1728 078c 0BF1010B 		add	fp, fp, #1
 1729              	.LVL200:
 842:../Source Files/lpc_ssp_glcd.c ****     			e1 += dy1;
 1730              		.loc 1 842 0
 1731 0790 8244     		add	sl, sl, r0
 1732              	.LVL201:
 841:../Source Files/lpc_ssp_glcd.c ****     			i++;
 1733              		.loc 1 841 0
 1734 0792 5FFA8BFB 		uxtb	fp, fp
 1735              	.LVL202:
 842:../Source Files/lpc_ssp_glcd.c ****     			e1 += dy1;
 1736              		.loc 1 842 0
 1737 0796 1FFA8AFA 		uxth	sl, sl
 1738              	.LVL203:
 843:../Source Files/lpc_ssp_glcd.c ****     	   	   	while (e1 >= dx1)
 1739              		.loc 1 843 0
 1740 079a 0FE0     		b	.L120
 1741              	.LVL204:
 1742              	.L122:
 1743 079c 0023     		movs	r3, #0
 1744 079e 0C93     		str	r3, [sp, #48]
 1745 07a0 2DE0     		b	.L123
 1746              	.LVL205:
 1747              	.L124:
 846:../Source Files/lpc_ssp_glcd.c ****        	   	   	   if (changed1) t1xp=signx1;//t1x += signx1;
 1748              		.loc 1 846 0
 1749 07a2 0798     		ldr	r0, [sp, #28]
 793:../Source Files/lpc_ssp_glcd.c **** void GLCD_Triangle(COORDINATE_Type *p1, COORDINATE_Type *p2, COORDINATE_Type *p3,COLORCFG_Type *cfg
 1750              		.loc 1 793 0
 1751 07a4 C9EB0A0A 		rsb	sl, r9, sl
 1752              	.LVL206:
 1753 07a8 1FFA8AFA 		uxth	sl, sl
 1754              	.LVL207:
 846:../Source Files/lpc_ssp_glcd.c ****        	   	   	   if (changed1) t1xp=signx1;//t1x += signx1;
 1755              		.loc 1 846 0
 1756 07ac 0028     		cmp	r0, #0
 1757 07ae F5D0     		beq	.L122
 1758              	.L121:
 846:../Source Files/lpc_ssp_glcd.c ****        	   	   	   if (changed1) t1xp=signx1;//t1x += signx1;
 1759              		.loc 1 846 0 is_stmt 0 discriminator 1
 1760 07b0 DDF820E0 		ldr	lr, [sp, #32]
 1761 07b4 1FFA8EFE 		uxth	lr, lr
 1762 07b8 CDF82CE0 		str	lr, [sp, #44]
 1763              	.LVL208:
 1764              	.L120:
 843:../Source Files/lpc_ssp_glcd.c ****     	   	   	while (e1 >= dx1)
 1765              		.loc 1 843 0 is_stmt 1 discriminator 1
 1766 07bc 9A45     		cmp	sl, r3
 1767 07be F0DA     		bge	.L124
 849:../Source Files/lpc_ssp_glcd.c ****     			if (changed1) break;
 1768              		.loc 1 849 0
 1769 07c0 0798     		ldr	r0, [sp, #28]
 1770 07c2 0028     		cmp	r0, #0
 1771 07c4 EAD1     		bne	.L122
 793:../Source Files/lpc_ssp_glcd.c **** void GLCD_Triangle(COORDINATE_Type *p1, COORDINATE_Type *p2, COORDINATE_Type *p3,COLORCFG_Type *cfg
 1772              		.loc 1 793 0
 1773 07c6 DDF820E0 		ldr	lr, [sp, #32]
 1774 07ca F044     		add	r8, r8, lr
 1775              	.LVL209:
 1776 07cc 1FFA88F8 		uxth	r8, r8
 1777              	.LVL210:
 1778 07d0 D9E7     		b	.L119
 1779              	.LVL211:
 1780              	.L128:
 1781 07d2 DDF810E0 		ldr	lr, [sp, #16]
 861:../Source Files/lpc_ssp_glcd.c ****     				if (changed2) t2xp=signx2;//t2x += signx2;
 1782              		.loc 1 861 0
 1783 07d6 0998     		ldr	r0, [sp, #36]
 793:../Source Files/lpc_ssp_glcd.c **** void GLCD_Triangle(COORDINATE_Type *p1, COORDINATE_Type *p2, COORDINATE_Type *p3,COLORCFG_Type *cfg
 1784              		.loc 1 793 0
 1785 07d8 CEEB0C03 		rsb	r3, lr, ip
 1786 07dc 1FFA83FC 		uxth	ip, r3
 1787              	.LVL212:
 861:../Source Files/lpc_ssp_glcd.c ****     				if (changed2) t2xp=signx2;//t2x += signx2;
 1788              		.loc 1 861 0
 1789 07e0 98B1     		cbz	r0, .L127
 861:../Source Files/lpc_ssp_glcd.c ****     				if (changed2) t2xp=signx2;//t2x += signx2;
 1790              		.loc 1 861 0 is_stmt 0 discriminator 1
 1791 07e2 0A98     		ldr	r0, [sp, #40]
 1792 07e4 83B2     		uxth	r3, r0
 1793              	.LVL213:
 1794 07e6 0C93     		str	r3, [sp, #48]
 1795              	.LVL214:
 1796              	.L126:
 858:../Source Files/lpc_ssp_glcd.c ****     			while (e2 >= dx2)
 1797              		.loc 1 858 0 is_stmt 1 discriminator 1
 1798 07e8 DDF810E0 		ldr	lr, [sp, #16]
 1799 07ec 0FFA8EF0 		sxth	r0, lr
 1800 07f0 8445     		cmp	ip, r0
 1801 07f2 EEDA     		bge	.L128
 864:../Source Files/lpc_ssp_glcd.c ****     			if (changed2)     break;
 1802              		.loc 1 864 0
 1803 07f4 099B     		ldr	r3, [sp, #36]
 1804 07f6 43B9     		cbnz	r3, .L127
 793:../Source Files/lpc_ssp_glcd.c **** void GLCD_Triangle(COORDINATE_Type *p1, COORDINATE_Type *p2, COORDINATE_Type *p3,COLORCFG_Type *cfg
 1805              		.loc 1 793 0
 1806 07f8 0A98     		ldr	r0, [sp, #40]
 1807 07fa 2418     		adds	r4, r4, r0
 1808              	.LVL215:
 1809 07fc A4B2     		uxth	r4, r4
 1810              	.LVL216:
 1811              	.L123:
 857:../Source Files/lpc_ssp_glcd.c ****     			e2 += dy2;
 1812              		.loc 1 857 0
 1813 07fe 0D98     		ldr	r0, [sp, #52]
 1814 0800 0CEB0003 		add	r3, ip, r0
 1815 0804 1FFA83FC 		uxth	ip, r3
 1816              	.LVL217:
 858:../Source Files/lpc_ssp_glcd.c ****     			while (e2 >= dx2)
 1817              		.loc 1 858 0
 1818 0808 EEE7     		b	.L126
 1819              	.LVL218:
 1820              	.L127:
 870:../Source Files/lpc_ssp_glcd.c ****     		GLCD_Line(minx,y,maxx,y,cfg->fill_color);    // Draw line from min to max points found on the
 1821              		.loc 1 870 0
 1822 080a DDF814E0 		ldr	lr, [sp, #20]
 1823 080e 069B     		ldr	r3, [sp, #24]
 1824 0810 8845     		cmp	r8, r1
 1825 0812 38BF     		it	cc
 1826 0814 4146     		movcc	r1, r8
 1827 0816 9045     		cmp	r8, r2
 1828 0818 28BF     		it	cs
 1829 081a 4246     		movcs	r2, r8
 1830 081c 88B2     		uxth	r0, r1
 1831              	.LVL219:
 1832 081e 92B2     		uxth	r2, r2
 1833              	.LVL220:
 1834 0820 0FFA8EF1 		sxth	r1, lr
 1835 0824 B3F804E0 		ldrh	lr, [r3, #4]
 1836 0828 A042     		cmp	r0, r4
 1837 082a 28BF     		it	cs
 1838 082c 2046     		movcs	r0, r4
 1839              	.LVL221:
 1840 082e A242     		cmp	r2, r4
 1841 0830 38BF     		it	cc
 1842 0832 2246     		movcc	r2, r4
 1843              	.LVL222:
 1844 0834 0B46     		mov	r3, r1
 1845 0836 CDF800E0 		str	lr, [sp, #0]
 1846 083a 00B2     		sxth	r0, r0
 1847 083c 12B2     		sxth	r2, r2
 1848 083e CDF808C0 		str	ip, [sp, #8]
 1849 0842 FFF7FEFF 		bl	GLCD_Line
 1850              	.LVL223:
 873:../Source Files/lpc_ssp_glcd.c ****     		if(!changed1) t1x += signx1;
 1851              		.loc 1 873 0
 1852 0846 0799     		ldr	r1, [sp, #28]
 1853 0848 DDF808C0 		ldr	ip, [sp, #8]
 1854 084c 19B9     		cbnz	r1, .L129
 873:../Source Files/lpc_ssp_glcd.c ****     		if(!changed1) t1x += signx1;
 1855              		.loc 1 873 0 is_stmt 0 discriminator 1
 1856 084e 0898     		ldr	r0, [sp, #32]
 1857 0850 8044     		add	r8, r8, r0
 1858              	.LVL224:
 1859 0852 1FFA88F8 		uxth	r8, r8
 1860              	.LVL225:
 1861              	.L129:
 874:../Source Files/lpc_ssp_glcd.c ****     		t1x+=t1xp;
 1862              		.loc 1 874 0 is_stmt 1
 1863 0856 0B9A     		ldr	r2, [sp, #44]
 875:../Source Files/lpc_ssp_glcd.c ****     		if(!changed2) t2x += signx2;
 1864              		.loc 1 875 0
 1865 0858 0999     		ldr	r1, [sp, #36]
 874:../Source Files/lpc_ssp_glcd.c ****     		t1x+=t1xp;
 1866              		.loc 1 874 0
 1867 085a 08EB0203 		add	r3, r8, r2
 1868 085e 1FFA83F8 		uxth	r8, r3
 1869              	.LVL226:
 875:../Source Files/lpc_ssp_glcd.c ****     		if(!changed2) t2x += signx2;
 1870              		.loc 1 875 0
 1871 0862 11B9     		cbnz	r1, .L130
 875:../Source Files/lpc_ssp_glcd.c ****     		if(!changed2) t2x += signx2;
 1872              		.loc 1 875 0 is_stmt 0 discriminator 1
 1873 0864 0A98     		ldr	r0, [sp, #40]
 1874 0866 2418     		adds	r4, r4, r0
 1875              	.LVL227:
 1876 0868 A4B2     		uxth	r4, r4
 1877              	.LVL228:
 1878              	.L130:
 877:../Source Files/lpc_ssp_glcd.c ****         	y += 1;
 1879              		.loc 1 877 0 is_stmt 1
 1880 086a 059B     		ldr	r3, [sp, #20]
 1881              	.LVL229:
 876:../Source Files/lpc_ssp_glcd.c ****     		t2x+=t2xp;
 1882              		.loc 1 876 0
 1883 086c 0C99     		ldr	r1, [sp, #48]
 877:../Source Files/lpc_ssp_glcd.c ****         	y += 1;
 1884              		.loc 1 877 0
 1885 086e 581C     		adds	r0, r3, #1
 876:../Source Files/lpc_ssp_glcd.c ****     		t2x+=t2xp;
 1886              		.loc 1 876 0
 1887 0870 6218     		adds	r2, r4, r1
 1888 0872 94B2     		uxth	r4, r2
 1889              	.LVL230:
 877:../Source Files/lpc_ssp_glcd.c ****         	y += 1;
 1890              		.loc 1 877 0
 1891 0874 82B2     		uxth	r2, r0
 1892              	.LVL231:
 1893 0876 0592     		str	r2, [sp, #20]
 878:../Source Files/lpc_ssp_glcd.c ****     		if(y==p2->y) break;
 1894              		.loc 1 878 0
 1895 0878 B5F90230 		ldrsh	r3, [r5, #2]
 1896 087c 059A     		ldr	r2, [sp, #20]
 1897 087e 9A42     		cmp	r2, r3
 1898 0880 7FF472AF 		bne	.L117
 1899              	.LVL232:
 1900              	.L116:
 1901              	.LBE17:
 882:../Source Files/lpc_ssp_glcd.c ****     	dx1 = (int8_t)(p3->x - p2->x); if(dx1<0) { dx1=-dx1; signx1=-1; } else signx1=1;
 1902              		.loc 1 882 0
 1903 0884 3178     		ldrb	r1, [r6, #0]	@ zero_extendqisi2
 1904 0886 B5F800A0 		ldrh	sl, [r5, #0]
 1905 088a CAEB0102 		rsb	r2, sl, r1
 1906 088e 50B2     		sxtb	r0, r2
 1907 0890 01B2     		sxth	r1, r0
 1908 0892 0029     		cmp	r1, #0
 1909 0894 1FFA80F9 		uxth	r9, r0
 1910              	.LVL233:
 1911 0898 07DA     		bge	.L160
 882:../Source Files/lpc_ssp_glcd.c ****     	dx1 = (int8_t)(p3->x - p2->x); if(dx1<0) { dx1=-dx1; signx1=-1; } else signx1=1;
 1912              		.loc 1 882 0 is_stmt 0 discriminator 1
 1913 089a C0F10009 		rsb	r9, r0, #0
 1914 089e 4FF6FF70 		movw	r0, #65535
 1915              	.LVL234:
 1916 08a2 1FFA89F9 		uxth	r9, r9
 1917              	.LVL235:
 1918 08a6 0790     		str	r0, [sp, #28]
 1919 08a8 01E0     		b	.L132
 1920              	.LVL236:
 1921              	.L160:
 882:../Source Files/lpc_ssp_glcd.c ****     	dx1 = (int8_t)(p3->x - p2->x); if(dx1<0) { dx1=-dx1; signx1=-1; } else signx1=1;
 1922              		.loc 1 882 0
 1923 08aa 0122     		movs	r2, #1
 1924 08ac 0792     		str	r2, [sp, #28]
 1925              	.LVL237:
 1926              	.L132:
 883:../Source Files/lpc_ssp_glcd.c ****     	dy1 = (int8_t)(p3->y - p2->y);
 1927              		.loc 1 883 0 is_stmt 1
 1928 08ae B178     		ldrb	r1, [r6, #2]	@ zero_extendqisi2
 1929 08b0 AB78     		ldrb	r3, [r5, #2]	@ zero_extendqisi2
 884:../Source Files/lpc_ssp_glcd.c ****     	t1x=p2->x;
 1930              		.loc 1 884 0
 1931 08b2 1FFA8AF8 		uxth	r8, sl
 883:../Source Files/lpc_ssp_glcd.c ****     	dy1 = (int8_t)(p3->y - p2->y);
 1932              		.loc 1 883 0
 1933 08b6 CA1A     		subs	r2, r1, r3
 1934 08b8 50B2     		sxtb	r0, r2
 1935 08ba 81B2     		uxth	r1, r0
 1936 08bc 0C91     		str	r1, [sp, #48]
 1937              	.LVL238:
 886:../Source Files/lpc_ssp_glcd.c ****     	if (dy1 > dx1)
 1938              		.loc 1 886 0
 1939 08be 02B2     		sxth	r2, r0
 1940 08c0 0FFA89F1 		sxth	r1, r9
 1941 08c4 8A42     		cmp	r2, r1
 1942 08c6 0BDD     		ble	.L161
 888:../Source Files/lpc_ssp_glcd.c ****             SWAP(dy1,dx1);
 1943              		.loc 1 888 0
 1944 08c8 89EA0002 		eor	r2, r9, r0
 1945 08cc 93B2     		uxth	r3, r2
 1946              	.LVL239:
 1947 08ce 83EA0909 		eor	r9, r3, r9
 1948              	.LVL240:
 1949 08d2 89EA0300 		eor	r0, r9, r3
 1950 08d6 82B2     		uxth	r2, r0
 1951              	.LVL241:
 1952 08d8 0C92     		str	r2, [sp, #48]
 1953              	.LVL242:
 889:../Source Files/lpc_ssp_glcd.c ****     		changed1 = TRUE;
 1954              		.loc 1 889 0
 1955 08da 0122     		movs	r2, #1
 1956 08dc 0392     		str	r2, [sp, #12]
 1957 08de 01E0     		b	.L133
 1958              	.LVL243:
 1959              	.L161:
 890:../Source Files/lpc_ssp_glcd.c ****     	} else changed1=FALSE;
 1960              		.loc 1 890 0
 1961 08e0 0020     		movs	r0, #0
 1962              	.LVL244:
 1963 08e2 0390     		str	r0, [sp, #12]
 1964              	.LVL245:
 1965              	.L133:
 892:../Source Files/lpc_ssp_glcd.c ****     	e1 = (uint8_t)(dx1>>1);
 1966              		.loc 1 892 0
 1967 08e4 C9F3470B 		ubfx	fp, r9, #1, #8
 1968              	.LVL246:
 1969              	.LBB18:
 894:../Source Files/lpc_ssp_glcd.c ****     	for (uint8_t i = 0; i<=dx1; i++)
 1970              		.loc 1 894 0
 1971 08e8 4FF0000A 		mov	sl, #0
 1972              	.LVL247:
 1973              	.L134:
 894:../Source Files/lpc_ssp_glcd.c ****     	for (uint8_t i = 0; i<=dx1; i++)
 1974              		.loc 1 894 0 is_stmt 0 discriminator 1
 1975 08ec 0FFA89F3 		sxth	r3, r9
 1976 08f0 9A45     		cmp	sl, r3
 1977 08f2 00F38D80 		bgt	.L150
 1978              	.L149:
 1979              	.LVL248:
 897:../Source Files/lpc_ssp_glcd.c ****     		if(t1x<t2x) { minx=t1x; maxx=t2x; }
 1980              		.loc 1 897 0 is_stmt 1
 1981 08f6 A045     		cmp	r8, r4
 1982 08f8 39BF     		ittee	cc
 1983 08fa 2246     		movcc	r2, r4
 1984 08fc 4146     		movcc	r1, r8
 1985 08fe 4246     		movcs	r2, r8
 1986 0900 2146     		movcs	r1, r4
 1987              	.LVL249:
 1988              	.L174:
 900:../Source Files/lpc_ssp_glcd.c ****     		while(i<dx1)
 1989              		.loc 1 900 0 discriminator 1
 1990 0902 9A45     		cmp	sl, r3
 1991 0904 12DA     		bge	.L177
 1992              	.L141:
 793:../Source Files/lpc_ssp_glcd.c **** void GLCD_Triangle(COORDINATE_Type *p1, COORDINATE_Type *p2, COORDINATE_Type *p3,COLORCFG_Type *cfg
 1993              		.loc 1 793 0
 1994 0906 DDF830E0 		ldr	lr, [sp, #48]
 1995 090a 0BEB0E00 		add	r0, fp, lr
 1996 090e 1FFA80FB 		uxth	fp, r0
 1997              	.LVL250:
 903:../Source Files/lpc_ssp_glcd.c ****     	   	   	while (e1 >= dx1)
 1998              		.loc 1 903 0
 1999 0912 9B45     		cmp	fp, r3
 2000 0914 08DB     		blt	.L137
 906:../Source Files/lpc_ssp_glcd.c ****        	   	   	   	if (changed1) { t1xp=signx1; break; }//t1x += signx1;
 2001              		.loc 1 906 0
 2002 0916 039B     		ldr	r3, [sp, #12]
 905:../Source Files/lpc_ssp_glcd.c ****     				e1 -= dx1;
 2003              		.loc 1 905 0
 2004 0918 C9EB0B00 		rsb	r0, r9, fp
 2005              	.LVL251:
 2006 091c 1FFA80FB 		uxth	fp, r0
 2007              	.LVL252:
 906:../Source Files/lpc_ssp_glcd.c ****        	   	   	   	if (changed1) { t1xp=signx1; break; }//t1x += signx1;
 2008              		.loc 1 906 0
 2009 0920 3BB1     		cbz	r3, .L163
 906:../Source Files/lpc_ssp_glcd.c ****        	   	   	   	if (changed1) { t1xp=signx1; break; }//t1x += signx1;
 2010              		.loc 1 906 0 is_stmt 0 discriminator 1
 2011 0922 079B     		ldr	r3, [sp, #28]
 2012 0924 9BB2     		uxth	r3, r3
 2013 0926 02E0     		b	.L176
 2014              	.L137:
 2015              	.LVL253:
 909:../Source Files/lpc_ssp_glcd.c ****     			if (changed1) break;
 2016              		.loc 1 909 0 is_stmt 1
 2017 0928 0398     		ldr	r0, [sp, #12]
 2018 092a 58B1     		cbz	r0, .L139
 2019              	.LVL254:
 2020              	.L177:
 2021 092c 0023     		movs	r3, #0
 2022              	.L176:
 2023 092e 0893     		str	r3, [sp, #32]
 2024 0930 01E0     		b	.L138
 2025              	.LVL255:
 2026              	.L163:
 906:../Source Files/lpc_ssp_glcd.c ****        	   	   	   	if (changed1) { t1xp=signx1; break; }//t1x += signx1;
 2027              		.loc 1 906 0
 2028 0932 0398     		ldr	r0, [sp, #12]
 2029              	.LVL256:
 2030 0934 0890     		str	r0, [sp, #32]
 2031              	.LVL257:
 2032              	.L138:
 915:../Source Files/lpc_ssp_glcd.c ****     		while (t2x!=p3->x)
 2033              		.loc 1 915 0 discriminator 1
 2034 0936 4FF0000E 		mov	lr, #0
 2035 093a B6F90030 		ldrsh	r3, [r6, #0]
 2036 093e CDF82CE0 		str	lr, [sp, #44]
 2037 0942 22E0     		b	.L140
 2038              	.LVL258:
 2039              	.L139:
 793:../Source Files/lpc_ssp_glcd.c **** void GLCD_Triangle(COORDINATE_Type *p1, COORDINATE_Type *p2, COORDINATE_Type *p3,COLORCFG_Type *cfg
 2040              		.loc 1 793 0
 2041 0944 0798     		ldr	r0, [sp, #28]
 911:../Source Files/lpc_ssp_glcd.c ****     			if(i<dx1) i++;
 2042              		.loc 1 911 0
 2043 0946 0AF1010A 		add	sl, sl, #1
 2044              	.LVL259:
 793:../Source Files/lpc_ssp_glcd.c **** void GLCD_Triangle(COORDINATE_Type *p1, COORDINATE_Type *p2, COORDINATE_Type *p3,COLORCFG_Type *cfg
 2045              		.loc 1 793 0
 2046 094a 8044     		add	r8, r8, r0
 2047              	.LVL260:
 2048 094c 1FFA88F8 		uxth	r8, r8
 2049              	.LVL261:
 911:../Source Files/lpc_ssp_glcd.c ****     			if(i<dx1) i++;
 2050              		.loc 1 911 0
 2051 0950 5FFA8AFA 		uxtb	sl, sl
 2052              	.LVL262:
 2053 0954 D5E7     		b	.L174
 2054              	.LVL263:
 2055              	.L144:
 793:../Source Files/lpc_ssp_glcd.c **** void GLCD_Triangle(COORDINATE_Type *p1, COORDINATE_Type *p2, COORDINATE_Type *p3,COLORCFG_Type *cfg
 2056              		.loc 1 793 0
 2057 0956 DDF810E0 		ldr	lr, [sp, #16]
 2058 095a CEEB0C00 		rsb	r0, lr, ip
 2059 095e 1FFA80FC 		uxth	ip, r0
 2060              	.LVL264:
 921:../Source Files/lpc_ssp_glcd.c ****     				if(changed2) t2xp=signx2;
 2061              		.loc 1 921 0
 2062 0962 0998     		ldr	r0, [sp, #36]
 2063              	.LVL265:
 2064 0964 D0B1     		cbz	r0, .L143
 921:../Source Files/lpc_ssp_glcd.c ****     				if(changed2) t2xp=signx2;
 2065              		.loc 1 921 0 is_stmt 0 discriminator 1
 2066 0966 DDF828E0 		ldr	lr, [sp, #40]
 2067 096a 1FFA8EFE 		uxth	lr, lr
 2068 096e CDF82CE0 		str	lr, [sp, #44]
 2069              	.LVL266:
 2070              	.L142:
 918:../Source Files/lpc_ssp_glcd.c ****     	   	   	while (e2 >= dx2)
 2071              		.loc 1 918 0 is_stmt 1 discriminator 1
 2072 0972 DDF810E0 		ldr	lr, [sp, #16]
 2073 0976 0FFA8EF0 		sxth	r0, lr
 2074 097a 8445     		cmp	ip, r0
 2075 097c EBDA     		bge	.L144
 924:../Source Files/lpc_ssp_glcd.c ****     			if (changed2)     break;
 2076              		.loc 1 924 0
 2077 097e 0998     		ldr	r0, [sp, #36]
 2078 0980 60B9     		cbnz	r0, .L143
 793:../Source Files/lpc_ssp_glcd.c **** void GLCD_Triangle(COORDINATE_Type *p1, COORDINATE_Type *p2, COORDINATE_Type *p3,COLORCFG_Type *cfg
 2079              		.loc 1 793 0
 2080 0982 DDF828E0 		ldr	lr, [sp, #40]
 2081 0986 7444     		add	r4, r4, lr
 2082              	.LVL267:
 2083 0988 A4B2     		uxth	r4, r4
 2084              	.LVL268:
 2085              	.L140:
 915:../Source Files/lpc_ssp_glcd.c ****     		while (t2x!=p3->x)
 2086              		.loc 1 915 0 discriminator 1
 2087 098a 9C42     		cmp	r4, r3
 2088 098c 06D0     		beq	.L143
 2089              	.L145:
 917:../Source Files/lpc_ssp_glcd.c ****     			e2 += dy2;
 2090              		.loc 1 917 0
 2091 098e DDF834E0 		ldr	lr, [sp, #52]
 2092 0992 0CEB0E00 		add	r0, ip, lr
 2093 0996 1FFA80FC 		uxth	ip, r0
 2094              	.LVL269:
 918:../Source Files/lpc_ssp_glcd.c ****     	   	   	while (e2 >= dx2)
 2095              		.loc 1 918 0
 2096 099a EAE7     		b	.L142
 2097              	.LVL270:
 2098              	.L143:
 931:../Source Files/lpc_ssp_glcd.c ****     		GLCD_Line(minx,y,maxx,y,cfg->fill_color);    // Draw line from min to max points found on the
 2099              		.loc 1 931 0
 2100 099c 059B     		ldr	r3, [sp, #20]
 2101 099e 8845     		cmp	r8, r1
 2102 09a0 38BF     		it	cc
 2103 09a2 4146     		movcc	r1, r8
 2104 09a4 88B2     		uxth	r0, r1
 2105              	.LVL271:
 2106 09a6 19B2     		sxth	r1, r3
 2107 09a8 069B     		ldr	r3, [sp, #24]
 2108 09aa 9045     		cmp	r8, r2
 2109 09ac 28BF     		it	cs
 2110 09ae 4246     		movcs	r2, r8
 2111 09b0 B3F804E0 		ldrh	lr, [r3, #4]
 2112 09b4 92B2     		uxth	r2, r2
 2113              	.LVL272:
 2114 09b6 A042     		cmp	r0, r4
 2115 09b8 28BF     		it	cs
 2116 09ba 2046     		movcs	r0, r4
 2117              	.LVL273:
 2118 09bc A242     		cmp	r2, r4
 2119 09be 38BF     		it	cc
 2120 09c0 2246     		movcc	r2, r4
 2121              	.LVL274:
 2122 09c2 0B46     		mov	r3, r1
 2123 09c4 CDF800E0 		str	lr, [sp, #0]
 2124 09c8 00B2     		sxth	r0, r0
 2125 09ca 12B2     		sxth	r2, r2
 2126 09cc CDF808C0 		str	ip, [sp, #8]
 2127 09d0 FFF7FEFF 		bl	GLCD_Line
 2128              	.LVL275:
 933:../Source Files/lpc_ssp_glcd.c ****     		if(!changed1) t1x += signx1;
 2129              		.loc 1 933 0
 2130 09d4 0399     		ldr	r1, [sp, #12]
 2131 09d6 DDF808C0 		ldr	ip, [sp, #8]
 2132 09da 19B9     		cbnz	r1, .L146
 933:../Source Files/lpc_ssp_glcd.c ****     		if(!changed1) t1x += signx1;
 2133              		.loc 1 933 0 is_stmt 0 discriminator 1
 2134 09dc 0798     		ldr	r0, [sp, #28]
 2135 09de 8044     		add	r8, r8, r0
 2136              	.LVL276:
 2137 09e0 1FFA88F8 		uxth	r8, r8
 2138              	.LVL277:
 2139              	.L146:
 934:../Source Files/lpc_ssp_glcd.c ****     		t1x+=t1xp;
 2140              		.loc 1 934 0 is_stmt 1
 2141 09e4 089A     		ldr	r2, [sp, #32]
 935:../Source Files/lpc_ssp_glcd.c ****     		if(!changed2) t2x += signx2;
 2142              		.loc 1 935 0
 2143 09e6 0999     		ldr	r1, [sp, #36]
 934:../Source Files/lpc_ssp_glcd.c ****     		t1x+=t1xp;
 2144              		.loc 1 934 0
 2145 09e8 08EB0203 		add	r3, r8, r2
 2146 09ec 1FFA83F8 		uxth	r8, r3
 2147              	.LVL278:
 935:../Source Files/lpc_ssp_glcd.c ****     		if(!changed2) t2x += signx2;
 2148              		.loc 1 935 0
 2149 09f0 11B9     		cbnz	r1, .L147
 935:../Source Files/lpc_ssp_glcd.c ****     		if(!changed2) t2x += signx2;
 2150              		.loc 1 935 0 is_stmt 0 discriminator 1
 2151 09f2 0A98     		ldr	r0, [sp, #40]
 2152 09f4 2418     		adds	r4, r4, r0
 2153              	.LVL279:
 2154 09f6 A4B2     		uxth	r4, r4
 2155              	.LVL280:
 2156              	.L147:
 937:../Source Files/lpc_ssp_glcd.c ****         	y += 1;
 2157              		.loc 1 937 0 is_stmt 1
 2158 09f8 059B     		ldr	r3, [sp, #20]
 2159              	.LVL281:
 936:../Source Files/lpc_ssp_glcd.c ****     		t2x+=t2xp;
 2160              		.loc 1 936 0
 2161 09fa 0B99     		ldr	r1, [sp, #44]
 937:../Source Files/lpc_ssp_glcd.c ****         	y += 1;
 2162              		.loc 1 937 0
 2163 09fc 581C     		adds	r0, r3, #1
 936:../Source Files/lpc_ssp_glcd.c ****     		t2x+=t2xp;
 2164              		.loc 1 936 0
 2165 09fe 6218     		adds	r2, r4, r1
 2166 0a00 94B2     		uxth	r4, r2
 2167              	.LVL282:
 937:../Source Files/lpc_ssp_glcd.c ****         	y += 1;
 2168              		.loc 1 937 0
 2169 0a02 82B2     		uxth	r2, r0
 2170              	.LVL283:
 2171 0a04 0592     		str	r2, [sp, #20]
 938:../Source Files/lpc_ssp_glcd.c ****     		if(y>p3->y) break;
 2172              		.loc 1 938 0
 2173 0a06 B6F90230 		ldrsh	r3, [r6, #2]
 2174 0a0a 059A     		ldr	r2, [sp, #20]
 2175 0a0c 9A42     		cmp	r2, r3
 2176 0a0e 03DD     		ble	.L148
 2177              	.LVL284:
 2178              	.L150:
 2179              	.LBE18:
 940:../Source Files/lpc_ssp_glcd.c ****     	cfg->fill = NO;
 2180              		.loc 1 940 0
 2181 0a10 069C     		ldr	r4, [sp, #24]
 2182 0a12 0021     		movs	r1, #0
 2183 0a14 2170     		strb	r1, [r4, #0]
 2184 0a16 04E0     		b	.L108
 2185              	.LVL285:
 2186              	.L148:
 2187              	.LBB19:
 894:../Source Files/lpc_ssp_glcd.c ****     	for (uint8_t i = 0; i<=dx1; i++)
 2188              		.loc 1 894 0
 2189 0a18 0AF1010A 		add	sl, sl, #1
 2190              	.LVL286:
 2191 0a1c 5FFA8AFA 		uxtb	sl, sl
 2192              	.LVL287:
 2193 0a20 64E7     		b	.L134
 2194              	.LVL288:
 2195              	.L108:
 2196              	.LBE19:
 2197              	.LBE16:
 944:../Source Files/lpc_ssp_glcd.c **** 	if(!cfg->fill && cfg->bndry)
 2198              		.loc 1 944 0
 2199 0a22 069C     		ldr	r4, [sp, #24]
 2200 0a24 2078     		ldrb	r0, [r4, #0]	@ zero_extendqisi2
 2201 0a26 40BB     		cbnz	r0, .L107
 944:../Source Files/lpc_ssp_glcd.c **** 	if(!cfg->fill && cfg->bndry)
 2202              		.loc 1 944 0 is_stmt 0 discriminator 1
 2203 0a28 6378     		ldrb	r3, [r4, #1]	@ zero_extendqisi2
 2204 0a2a 33B3     		cbz	r3, .L107
 946:../Source Files/lpc_ssp_glcd.c **** 		GLCD_Line(p1->x, p1->y, p2->x, p2->y, cfg->bcolor);
 2205              		.loc 1 946 0 is_stmt 1
 2206 0a2c B4F802E0 		ldrh	lr, [r4, #2]
 2207 0a30 B7F90000 		ldrsh	r0, [r7, #0]
 2208 0a34 B7F90210 		ldrsh	r1, [r7, #2]
 2209 0a38 B5F90020 		ldrsh	r2, [r5, #0]
 2210 0a3c B5F90230 		ldrsh	r3, [r5, #2]
 2211 0a40 CDF800E0 		str	lr, [sp, #0]
 2212 0a44 FFF7FEFF 		bl	GLCD_Line
 2213              	.LVL289:
 947:../Source Files/lpc_ssp_glcd.c **** 		GLCD_Line(p1->x, p1->y, p3->x, p3->y, cfg->bcolor);
 2214              		.loc 1 947 0
 2215 0a48 B7F90000 		ldrsh	r0, [r7, #0]
 2216 0a4c B7F90210 		ldrsh	r1, [r7, #2]
 2217 0a50 069F     		ldr	r7, [sp, #24]
 2218              	.LVL290:
 2219 0a52 B6F90020 		ldrsh	r2, [r6, #0]
 2220 0a56 7C88     		ldrh	r4, [r7, #2]
 2221 0a58 B6F90230 		ldrsh	r3, [r6, #2]
 2222 0a5c 0094     		str	r4, [sp, #0]
 2223 0a5e FFF7FEFF 		bl	GLCD_Line
 2224              	.LVL291:
 948:../Source Files/lpc_ssp_glcd.c **** 		GLCD_Line(p2->x, p2->y, p3->x, p3->y, cfg->bcolor);
 2225              		.loc 1 948 0
 2226 0a62 7C88     		ldrh	r4, [r7, #2]
 2227 0a64 B5F90000 		ldrsh	r0, [r5, #0]
 2228 0a68 B5F90210 		ldrsh	r1, [r5, #2]
 2229 0a6c B6F90020 		ldrsh	r2, [r6, #0]
 2230 0a70 B6F90230 		ldrsh	r3, [r6, #2]
 2231 0a74 0094     		str	r4, [sp, #0]
 2232 0a76 FFF7FEFF 		bl	GLCD_Line
 2233              	.LVL292:
 2234              	.L107:
 950:../Source Files/lpc_ssp_glcd.c **** }
 2235              		.loc 1 950 0
 2236 0a7a 0FB0     		add	sp, sp, #60
 2237 0a7c BDE8F08F 		pop	{r4, r5, r6, r7, r8, r9, sl, fp, pc}
 2238              		.cfi_endproc
 2239              	.LFE79:
 2241              		.align	1
 2242              		.global	Show_BarGraph
 2243              		.thumb
 2244              		.thumb_func
 2246              	Show_BarGraph:
 2247              	.LFB84:
1130:../Source Files/lpc_ssp_glcd.c **** {
 2248              		.loc 1 1130 0
 2249              		.cfi_startproc
 2250              		@ args = 0, pretend = 0, frame = 104
 2251              		@ frame_needed = 0, uses_anonymous_args = 0
 2252 0a80 2DE9F04F 		push	{r4, r5, r6, r7, r8, r9, sl, fp, lr}
 2253              	.LCFI19:
 2254              		.cfi_def_cfa_offset 36
 2255              		.cfi_offset 4, -36
 2256              		.cfi_offset 5, -32
 2257              		.cfi_offset 6, -28
 2258              		.cfi_offset 7, -24
 2259              		.cfi_offset 8, -20
 2260              		.cfi_offset 9, -16
 2261              		.cfi_offset 10, -12
 2262              		.cfi_offset 11, -8
 2263              		.cfi_offset 14, -4
1133:../Source Files/lpc_ssp_glcd.c ****     uint8_t x_name[10][3]={"1","2","3","4","5","6","7","8","9","10"};
 2264              		.loc 1 1133 0
 2265 0a84 8A4B     		ldr	r3, .L190
1130:../Source Files/lpc_ssp_glcd.c **** {
 2266              		.loc 1 1130 0
 2267 0a86 9FB0     		sub	sp, sp, #124
 2268              	.LCFI20:
 2269              		.cfi_def_cfa_offset 160
1133:../Source Files/lpc_ssp_glcd.c ****     uint8_t x_name[10][3]={"1","2","3","4","5","6","7","8","9","10"};
 2270              		.loc 1 1133 0
 2271 0a88 0CAA     		add	r2, sp, #48
 2272 0a8a 03F11805 		add	r5, r3, #24
 2273              	.L179:
 2274 0a8e 1868     		ldr	r0, [r3, #0]	@ unaligned
 2275 0a90 5968     		ldr	r1, [r3, #4]	@ unaligned
 2276 0a92 1446     		mov	r4, r2
 2277 0a94 03C4     		stmia	r4!, {r0, r1}
 2278 0a96 0833     		adds	r3, r3, #8
 2279 0a98 AB42     		cmp	r3, r5
 2280 0a9a 2246     		mov	r2, r4
 2281 0a9c F7D1     		bne	.L179
 2282 0a9e 1868     		ldr	r0, [r3, #0]	@ unaligned
 2283 0aa0 9988     		ldrh	r1, [r3, #4]	@ unaligned
1134:../Source Files/lpc_ssp_glcd.c ****     uint8_t y_name[10][4]={"10","20","30","40","50","60","70","80","90","100"};
 2284              		.loc 1 1134 0
 2285 0aa2 844E     		ldr	r6, .L190+4
1133:../Source Files/lpc_ssp_glcd.c ****     uint8_t x_name[10][3]={"1","2","3","4","5","6","7","8","9","10"};
 2286              		.loc 1 1133 0
 2287 0aa4 2060     		str	r0, [r4, #0]	@ unaligned
 2288 0aa6 A180     		strh	r1, [r4, #4]	@ unaligned
1134:../Source Files/lpc_ssp_glcd.c ****     uint8_t y_name[10][4]={"10","20","30","40","50","60","70","80","90","100"};
 2289              		.loc 1 1134 0
 2290 0aa8 14AD     		add	r5, sp, #80
 2291 0aaa 06F12807 		add	r7, r6, #40
 2292              	.L180:
 2293 0aae 3068     		ldr	r0, [r6, #0]	@ unaligned
 2294 0ab0 7168     		ldr	r1, [r6, #4]	@ unaligned
 2295 0ab2 2B46     		mov	r3, r5
 2296 0ab4 03C3     		stmia	r3!, {r0, r1}
 2297 0ab6 0836     		adds	r6, r6, #8
 2298 0ab8 BE42     		cmp	r6, r7
 2299 0aba 1D46     		mov	r5, r3
 2300 0abc F7D1     		bne	.L180
1138:../Source Files/lpc_ssp_glcd.c **** 	GLCD_Line(30,5,30,238,Black);
 2301              		.loc 1 1138 0
 2302 0abe 0024     		movs	r4, #0
 2303 0ac0 1E20     		movs	r0, #30
 2304 0ac2 0246     		mov	r2, r0
 2305 0ac4 0521     		movs	r1, #5
 2306 0ac6 EE23     		movs	r3, #238
 2307 0ac8 0094     		str	r4, [sp, #0]
 2308 0aca FFF7FEFF 		bl	GLCD_Line
 2309              	.LVL293:
1139:../Source Files/lpc_ssp_glcd.c **** 	GLCD_Line(1,220,315,220,Black);
 2310              		.loc 1 1139 0
 2311 0ace DC21     		movs	r1, #220
1141:../Source Files/lpc_ssp_glcd.c **** 	GLCD_Text(22,5,"Y",5,7,default5x7,1,Black);
 2312              		.loc 1 1141 0
 2313 0ad0 794E     		ldr	r6, .L190+8
1139:../Source Files/lpc_ssp_glcd.c **** 	GLCD_Line(1,220,315,220,Black);
 2314              		.loc 1 1139 0
 2315 0ad2 0B46     		mov	r3, r1
 2316 0ad4 0120     		movs	r0, #1
 2317 0ad6 40F23B12 		movw	r2, #315
 2318 0ada 0094     		str	r4, [sp, #0]
 2319 0adc FFF7FEFF 		bl	GLCD_Line
 2320              	.LVL294:
1141:../Source Files/lpc_ssp_glcd.c **** 	GLCD_Text(22,5,"Y",5,7,default5x7,1,Black);
 2321              		.loc 1 1141 0
 2322 0ae0 0125     		movs	r5, #1
 2323 0ae2 0727     		movs	r7, #7
 2324 0ae4 0521     		movs	r1, #5
 2325 0ae6 0B46     		mov	r3, r1
 2326 0ae8 0295     		str	r5, [sp, #8]
 2327 0aea 1620     		movs	r0, #22
 2328 0aec 734A     		ldr	r2, .L190+12
 2329 0aee 0097     		str	r7, [sp, #0]
 2330 0af0 0196     		str	r6, [sp, #4]
 2331 0af2 0394     		str	r4, [sp, #12]
 2332 0af4 FFF7FEFF 		bl	GLCD_Text
 2333              	.LVL295:
1142:../Source Files/lpc_ssp_glcd.c **** 	GLCD_Text(310,225,"X",5,7,default5x7,1,Black);
 2334              		.loc 1 1142 0
 2335 0af8 0295     		str	r5, [sp, #8]
 2336 0afa 4FF49B70 		mov	r0, #310
 2337 0afe E121     		movs	r1, #225
 2338 0b00 6F4A     		ldr	r2, .L190+16
 2339 0b02 0523     		movs	r3, #5
 2340 0b04 0097     		str	r7, [sp, #0]
 2341 0b06 0196     		str	r6, [sp, #4]
 2342 0b08 0394     		str	r4, [sp, #12]
 2343 0b0a FFF7FEFF 		bl	GLCD_Text
 2344              	.LVL296:
1143:../Source Files/lpc_ssp_glcd.c **** 	GLCD_Text(50,5,"X=ADC-CH  Y=VAL  Y-MAX=4095  Y-UNIT=40.95",5,7,default5x7,1,Black);
 2345              		.loc 1 1143 0
 2346 0b0e 0521     		movs	r1, #5
 2347 0b10 0B46     		mov	r3, r1
 2348 0b12 0295     		str	r5, [sp, #8]
 2349 0b14 3220     		movs	r0, #50
 2350 0b16 6B4A     		ldr	r2, .L190+20
 2351 0b18 0097     		str	r7, [sp, #0]
 2352 0b1a 0196     		str	r6, [sp, #4]
 2353 0b1c 0394     		str	r4, [sp, #12]
 2354 0b1e FFF7FEFF 		bl	GLCD_Text
 2355              	.LVL297:
1149:../Source Files/lpc_ssp_glcd.c **** 	point2.x = 28;
 2356              		.loc 1 1149 0
 2357 0b22 4FF01C0B 		mov	fp, #28
1151:../Source Files/lpc_ssp_glcd.c **** 	point3.x = 32;
 2358              		.loc 1 1151 0
 2359 0b26 4FF0200A 		mov	sl, #32
1150:../Source Files/lpc_ssp_glcd.c **** 	point2.y = 10;
 2360              		.loc 1 1150 0
 2361 0b2a 0A22     		movs	r2, #10
1147:../Source Files/lpc_ssp_glcd.c **** 	point1.x = 30;
 2362              		.loc 1 1147 0
 2363 0b2c 4FF01E0C 		mov	ip, #30
1156:../Source Files/lpc_ssp_glcd.c **** 	GLCD_Triangle(&point1,&point2,&point3,&tricfg);
 2364              		.loc 1 1156 0
 2365 0b30 0DEB0B00 		add	r0, sp, fp
 2366 0b34 0DEB0A01 		add	r1, sp, sl
1148:../Source Files/lpc_ssp_glcd.c **** 	point1.y = 5;
 2367              		.loc 1 1148 0
 2368 0b38 4FF00509 		mov	r9, #5
1150:../Source Files/lpc_ssp_glcd.c **** 	point2.y = 10;
 2369              		.loc 1 1150 0
 2370 0b3c ADF82220 		strh	r2, [sp, #34]	@ movhi
1152:../Source Files/lpc_ssp_glcd.c **** 	point3.y = 10;
 2371              		.loc 1 1152 0
 2372 0b40 ADF82620 		strh	r2, [sp, #38]	@ movhi
1156:../Source Files/lpc_ssp_glcd.c **** 	GLCD_Triangle(&point1,&point2,&point3,&tricfg);
 2373              		.loc 1 1156 0
 2374 0b44 0AAB     		add	r3, sp, #40
 2375 0b46 09AA     		add	r2, sp, #36
1147:../Source Files/lpc_ssp_glcd.c **** 	point1.x = 30;
 2376              		.loc 1 1147 0
 2377 0b48 ADF81CC0 		strh	ip, [sp, #28]	@ movhi
1149:../Source Files/lpc_ssp_glcd.c **** 	point2.x = 28;
 2378              		.loc 1 1149 0
 2379 0b4c ADF820B0 		strh	fp, [sp, #32]	@ movhi
1151:../Source Files/lpc_ssp_glcd.c **** 	point3.x = 32;
 2380              		.loc 1 1151 0
 2381 0b50 ADF824A0 		strh	sl, [sp, #36]	@ movhi
1153:../Source Files/lpc_ssp_glcd.c **** 	tricfg.fill = YES;
 2382              		.loc 1 1153 0
 2383 0b54 8DF82850 		strb	r5, [sp, #40]
1156:../Source Files/lpc_ssp_glcd.c **** 	GLCD_Triangle(&point1,&point2,&point3,&tricfg);
 2384              		.loc 1 1156 0
 2385 0b58 CDF814C0 		str	ip, [sp, #20]
1148:../Source Files/lpc_ssp_glcd.c **** 	point1.y = 5;
 2386              		.loc 1 1148 0
 2387 0b5c ADF81E90 		strh	r9, [sp, #30]	@ movhi
1154:../Source Files/lpc_ssp_glcd.c **** 	tricfg.bndry= NO;
 2388              		.loc 1 1154 0
 2389 0b60 8DF82940 		strb	r4, [sp, #41]
1155:../Source Files/lpc_ssp_glcd.c **** 	tricfg.fill_color=Black;
 2390              		.loc 1 1155 0
 2391 0b64 ADF82C40 		strh	r4, [sp, #44]	@ movhi
1156:../Source Files/lpc_ssp_glcd.c **** 	GLCD_Triangle(&point1,&point2,&point3,&tricfg);
 2392              		.loc 1 1156 0
 2393 0b68 FFF7FEFF 		bl	GLCD_Triangle
 2394              	.LVL298:
1159:../Source Files/lpc_ssp_glcd.c **** 	point1.x = 30;
 2395              		.loc 1 1159 0
 2396 0b6c DDF814C0 		ldr	ip, [sp, #20]
1162:../Source Files/lpc_ssp_glcd.c **** 	point2.y = 233;
 2397              		.loc 1 1162 0
 2398 0b70 E921     		movs	r1, #233
1160:../Source Files/lpc_ssp_glcd.c **** 	point1.y = 238;
 2399              		.loc 1 1160 0
 2400 0b72 EE20     		movs	r0, #238
 2401 0b74 ADF81E00 		strh	r0, [sp, #30]	@ movhi
1162:../Source Files/lpc_ssp_glcd.c **** 	point2.y = 233;
 2402              		.loc 1 1162 0
 2403 0b78 ADF82210 		strh	r1, [sp, #34]	@ movhi
1168:../Source Files/lpc_ssp_glcd.c **** 	GLCD_Triangle(&point1,&point2,&point3,&tricfg);
 2404              		.loc 1 1168 0
 2405 0b7c 0DEB0B00 		add	r0, sp, fp
1164:../Source Files/lpc_ssp_glcd.c **** 	point3.y = 233;
 2406              		.loc 1 1164 0
 2407 0b80 ADF82610 		strh	r1, [sp, #38]	@ movhi
1168:../Source Files/lpc_ssp_glcd.c **** 	GLCD_Triangle(&point1,&point2,&point3,&tricfg);
 2408              		.loc 1 1168 0
 2409 0b84 09AA     		add	r2, sp, #36
 2410 0b86 0DEB0A01 		add	r1, sp, sl
 2411 0b8a 0AAB     		add	r3, sp, #40
1159:../Source Files/lpc_ssp_glcd.c **** 	point1.x = 30;
 2412              		.loc 1 1159 0
 2413 0b8c ADF81CC0 		strh	ip, [sp, #28]	@ movhi
1161:../Source Files/lpc_ssp_glcd.c **** 	point2.x = 28;
 2414              		.loc 1 1161 0
 2415 0b90 ADF820B0 		strh	fp, [sp, #32]	@ movhi
1163:../Source Files/lpc_ssp_glcd.c **** 	point3.x = 32;
 2416              		.loc 1 1163 0
 2417 0b94 ADF824A0 		strh	sl, [sp, #36]	@ movhi
1165:../Source Files/lpc_ssp_glcd.c **** 	tricfg.fill = YES;
 2418              		.loc 1 1165 0
 2419 0b98 8DF82850 		strb	r5, [sp, #40]
1166:../Source Files/lpc_ssp_glcd.c **** 	tricfg.bndry= NO;
 2420              		.loc 1 1166 0
 2421 0b9c 8DF82940 		strb	r4, [sp, #41]
1167:../Source Files/lpc_ssp_glcd.c **** 	tricfg.fill_color=Black;
 2422              		.loc 1 1167 0
 2423 0ba0 ADF82C40 		strh	r4, [sp, #44]	@ movhi
1168:../Source Files/lpc_ssp_glcd.c **** 	GLCD_Triangle(&point1,&point2,&point3,&tricfg);
 2424              		.loc 1 1168 0
 2425 0ba4 FFF7FEFF 		bl	GLCD_Triangle
 2426              	.LVL299:
1174:../Source Files/lpc_ssp_glcd.c **** 	point2.x = 6;
 2427              		.loc 1 1174 0
 2428 0ba8 0623     		movs	r3, #6
1173:../Source Files/lpc_ssp_glcd.c **** 	point1.y = 220;
 2429              		.loc 1 1173 0
 2430 0baa 4FF0DC0C 		mov	ip, #220
1174:../Source Files/lpc_ssp_glcd.c **** 	point2.x = 6;
 2431              		.loc 1 1174 0
 2432 0bae ADF82030 		strh	r3, [sp, #32]	@ movhi
1175:../Source Files/lpc_ssp_glcd.c **** 	point2.y = 218;
 2433              		.loc 1 1175 0
 2434 0bb2 4FF0DA0B 		mov	fp, #218
1176:../Source Files/lpc_ssp_glcd.c **** 	point3.x = 6;
 2435              		.loc 1 1176 0
 2436 0bb6 ADF82430 		strh	r3, [sp, #36]	@ movhi
1177:../Source Files/lpc_ssp_glcd.c **** 	point3.y = 222;
 2437              		.loc 1 1177 0
 2438 0bba 4FF0DE0A 		mov	sl, #222
1181:../Source Files/lpc_ssp_glcd.c **** 	GLCD_Triangle(&point1,&point2,&point3,&tricfg);
 2439              		.loc 1 1181 0
 2440 0bbe 07A8     		add	r0, sp, #28
 2441 0bc0 08A9     		add	r1, sp, #32
 2442 0bc2 09AA     		add	r2, sp, #36
 2443 0bc4 0AAB     		add	r3, sp, #40
1172:../Source Files/lpc_ssp_glcd.c **** 	point1.x = 1;
 2444              		.loc 1 1172 0
 2445 0bc6 ADF81C50 		strh	r5, [sp, #28]	@ movhi
1173:../Source Files/lpc_ssp_glcd.c **** 	point1.y = 220;
 2446              		.loc 1 1173 0
 2447 0bca ADF81EC0 		strh	ip, [sp, #30]	@ movhi
1178:../Source Files/lpc_ssp_glcd.c **** 	tricfg.fill = YES;
 2448              		.loc 1 1178 0
 2449 0bce 8DF82850 		strb	r5, [sp, #40]
1181:../Source Files/lpc_ssp_glcd.c **** 	GLCD_Triangle(&point1,&point2,&point3,&tricfg);
 2450              		.loc 1 1181 0
 2451 0bd2 CDF814C0 		str	ip, [sp, #20]
1175:../Source Files/lpc_ssp_glcd.c **** 	point2.y = 218;
 2452              		.loc 1 1175 0
 2453 0bd6 ADF822B0 		strh	fp, [sp, #34]	@ movhi
1177:../Source Files/lpc_ssp_glcd.c **** 	point3.y = 222;
 2454              		.loc 1 1177 0
 2455 0bda ADF826A0 		strh	sl, [sp, #38]	@ movhi
1179:../Source Files/lpc_ssp_glcd.c **** 	tricfg.bndry= NO;
 2456              		.loc 1 1179 0
 2457 0bde 8DF82940 		strb	r4, [sp, #41]
1180:../Source Files/lpc_ssp_glcd.c **** 	tricfg.fill_color=Black;
 2458              		.loc 1 1180 0
 2459 0be2 ADF82C40 		strh	r4, [sp, #44]	@ movhi
1181:../Source Files/lpc_ssp_glcd.c **** 	GLCD_Triangle(&point1,&point2,&point3,&tricfg);
 2460              		.loc 1 1181 0
 2461 0be6 FFF7FEFF 		bl	GLCD_Triangle
 2462              	.LVL300:
1185:../Source Files/lpc_ssp_glcd.c **** 	point1.y = 220;
 2463              		.loc 1 1185 0
 2464 0bea DDF814C0 		ldr	ip, [sp, #20]
1186:../Source Files/lpc_ssp_glcd.c **** 	point2.x = 310;
 2465              		.loc 1 1186 0
 2466 0bee 4FF49B70 		mov	r0, #310
1184:../Source Files/lpc_ssp_glcd.c **** 	point1.x = 315;
 2467              		.loc 1 1184 0
 2468 0bf2 40F23B12 		movw	r2, 315	@ movhi
 2469 0bf6 ADF81C20 		strh	r2, [sp, #28]	@ movhi
1186:../Source Files/lpc_ssp_glcd.c **** 	point2.x = 310;
 2470              		.loc 1 1186 0
 2471 0bfa ADF82000 		strh	r0, [sp, #32]	@ movhi
1188:../Source Files/lpc_ssp_glcd.c **** 	point3.x = 310;
 2472              		.loc 1 1188 0
 2473 0bfe ADF82400 		strh	r0, [sp, #36]	@ movhi
1193:../Source Files/lpc_ssp_glcd.c **** 	GLCD_Triangle(&point1,&point2,&point3,&tricfg);
 2474              		.loc 1 1193 0
 2475 0c02 08A9     		add	r1, sp, #32
 2476 0c04 07A8     		add	r0, sp, #28
 2477 0c06 09AA     		add	r2, sp, #36
 2478 0c08 0AAB     		add	r3, sp, #40
1185:../Source Files/lpc_ssp_glcd.c **** 	point1.y = 220;
 2479              		.loc 1 1185 0
 2480 0c0a ADF81EC0 		strh	ip, [sp, #30]	@ movhi
1190:../Source Files/lpc_ssp_glcd.c **** 	tricfg.fill = YES;
 2481              		.loc 1 1190 0
 2482 0c0e 8DF82850 		strb	r5, [sp, #40]
1187:../Source Files/lpc_ssp_glcd.c **** 	point2.y = 218;
 2483              		.loc 1 1187 0
 2484 0c12 ADF822B0 		strh	fp, [sp, #34]	@ movhi
1189:../Source Files/lpc_ssp_glcd.c **** 	point3.y = 222;
 2485              		.loc 1 1189 0
 2486 0c16 ADF826A0 		strh	sl, [sp, #38]	@ movhi
1191:../Source Files/lpc_ssp_glcd.c **** 	tricfg.bndry= NO;
 2487              		.loc 1 1191 0
 2488 0c1a 8DF82940 		strb	r4, [sp, #41]
1192:../Source Files/lpc_ssp_glcd.c **** 	tricfg.fill_color=Black;
 2489              		.loc 1 1192 0
 2490 0c1e ADF82C40 		strh	r4, [sp, #44]	@ movhi
1193:../Source Files/lpc_ssp_glcd.c **** 	GLCD_Triangle(&point1,&point2,&point3,&tricfg);
 2491              		.loc 1 1193 0
 2492 0c22 FFF7FEFF 		bl	GLCD_Triangle
 2493              	.LVL301:
1196:../Source Files/lpc_ssp_glcd.c **** 	GLCD_Text(0,225,"(0,0)",5,7,default5x7,1,Black);
 2494              		.loc 1 1196 0
 2495 0c26 0295     		str	r5, [sp, #8]
 2496 0c28 0097     		str	r7, [sp, #0]
 2497 0c2a 0196     		str	r6, [sp, #4]
 2498 0c2c 0394     		str	r4, [sp, #12]
 2499 0c2e 2046     		mov	r0, r4
 2500 0c30 E121     		movs	r1, #225
 2501 0c32 254A     		ldr	r2, .L190+24
 2502 0c34 4B46     		mov	r3, r9
 2503 0c36 FFF7FEFF 		bl	GLCD_Text
 2504              	.LVL302:
1155:../Source Files/lpc_ssp_glcd.c **** 	tricfg.fill_color=Black;
 2505              		.loc 1 1155 0
 2506 0c3a A046     		mov	r8, r4	@ movhi
1197:../Source Files/lpc_ssp_glcd.c **** 	for(y_scale=200,i=0; y_scale>=20; y_scale=y_scale-20,i++)
 2507              		.loc 1 1197 0
 2508 0c3c C825     		movs	r5, #200
 2509              	.LVL303:
 2510              	.L183:
1201:../Source Files/lpc_ssp_glcd.c **** 			GLCD_Text(14,y_scale,y_name[i],5,7,default5x7,1,Black);
 2511              		.loc 1 1201 0
 2512 0c3e 0721     		movs	r1, #7
 2513 0c40 1D4B     		ldr	r3, .L190+8
 2514 0c42 0091     		str	r1, [sp, #0]
 2515 0c44 4FF00100 		mov	r0, #1
 2516 0c48 4FF00001 		mov	r1, #0
1199:../Source Files/lpc_ssp_glcd.c **** 		if(y_scale!=20)
 2517              		.loc 1 1199 0
 2518 0c4c 142D     		cmp	r5, #20
 2519 0c4e 4FEA8402 		lsl	r2, r4, #2
1201:../Source Files/lpc_ssp_glcd.c **** 			GLCD_Text(14,y_scale,y_name[i],5,7,default5x7,1,Black);
 2520              		.loc 1 1201 0
 2521 0c52 0193     		str	r3, [sp, #4]
 2522 0c54 0290     		str	r0, [sp, #8]
 2523 0c56 0391     		str	r1, [sp, #12]
1199:../Source Files/lpc_ssp_glcd.c **** 		if(y_scale!=20)
 2524              		.loc 1 1199 0
 2525 0c58 02D0     		beq	.L181
1201:../Source Files/lpc_ssp_glcd.c **** 			GLCD_Text(14,y_scale,y_name[i],5,7,default5x7,1,Black);
 2526              		.loc 1 1201 0
 2527 0c5a 0E20     		movs	r0, #14
 2528 0c5c 29B2     		sxth	r1, r5
 2529 0c5e 01E0     		b	.L189
 2530              	.L181:
1205:../Source Files/lpc_ssp_glcd.c **** 			GLCD_Text(10,y_scale,y_name[i],5,7,default5x7,1,Black);
 2531              		.loc 1 1205 0
 2532 0c60 0A20     		movs	r0, #10
 2533 0c62 2946     		mov	r1, r5
 2534              	.L189:
 2535 0c64 14AB     		add	r3, sp, #80
1197:../Source Files/lpc_ssp_glcd.c **** 	for(y_scale=200,i=0; y_scale>=20; y_scale=y_scale-20,i++)
 2536              		.loc 1 1197 0
 2537 0c66 143D     		subs	r5, r5, #20
1205:../Source Files/lpc_ssp_glcd.c **** 			GLCD_Text(10,y_scale,y_name[i],5,7,default5x7,1,Black);
 2538              		.loc 1 1205 0
 2539 0c68 9A18     		adds	r2, r3, r2
1197:../Source Files/lpc_ssp_glcd.c **** 	for(y_scale=200,i=0; y_scale>=20; y_scale=y_scale-20,i++)
 2540              		.loc 1 1197 0
 2541 0c6a ADB2     		uxth	r5, r5
1205:../Source Files/lpc_ssp_glcd.c **** 			GLCD_Text(10,y_scale,y_name[i],5,7,default5x7,1,Black);
 2542              		.loc 1 1205 0
 2543 0c6c 0523     		movs	r3, #5
 2544 0c6e FFF7FEFF 		bl	GLCD_Text
 2545              	.LVL304:
 2546 0c72 0134     		adds	r4, r4, #1
1197:../Source Files/lpc_ssp_glcd.c **** 	for(y_scale=200,i=0; y_scale>=20; y_scale=y_scale-20,i++)
 2547              		.loc 1 1197 0
 2548 0c74 002D     		cmp	r5, #0
 2549 0c76 E2D1     		bne	.L183
 2550 0c78 3824     		movs	r4, #56
 2551              	.LVL305:
 2552              	.L184:
1211:../Source Files/lpc_ssp_glcd.c **** 		GLCD_Text(x_scale,225,x_name[i],5,7,default5x7,1,Black);
 2553              		.loc 1 1211 0 discriminator 2
 2554 0c7a 0F48     		ldr	r0, .L190+8
 2555 0c7c 0722     		movs	r2, #7
 2556 0c7e 0023     		movs	r3, #0
 2557 0c80 0121     		movs	r1, #1
 2558 0c82 0092     		str	r2, [sp, #0]
 2559 0c84 0190     		str	r0, [sp, #4]
 2560 0c86 0393     		str	r3, [sp, #12]
 2561 0c88 20B2     		sxth	r0, r4
 2562 0c8a 0322     		movs	r2, #3
 2563 0c8c 0CAB     		add	r3, sp, #48
1209:../Source Files/lpc_ssp_glcd.c **** 	for(x_scale=56,i=0; x_scale<=300; x_scale=x_scale+26,i++)
 2564              		.loc 1 1209 0 discriminator 2
 2565 0c8e 1A34     		adds	r4, r4, #26
1211:../Source Files/lpc_ssp_glcd.c **** 		GLCD_Text(x_scale,225,x_name[i],5,7,default5x7,1,Black);
 2566              		.loc 1 1211 0 discriminator 2
 2567 0c90 02FB0532 		mla	r2, r2, r5, r3
 2568 0c94 0291     		str	r1, [sp, #8]
 2569 0c96 0523     		movs	r3, #5
 2570 0c98 E121     		movs	r1, #225
1209:../Source Files/lpc_ssp_glcd.c **** 	for(x_scale=56,i=0; x_scale<=300; x_scale=x_scale+26,i++)
 2571              		.loc 1 1209 0 discriminator 2
 2572 0c9a A4B2     		uxth	r4, r4
1211:../Source Files/lpc_ssp_glcd.c **** 		GLCD_Text(x_scale,225,x_name[i],5,7,default5x7,1,Black);
 2573              		.loc 1 1211 0 discriminator 2
 2574 0c9c FFF7FEFF 		bl	GLCD_Text
 2575              	.LVL306:
 2576 0ca0 0135     		adds	r5, r5, #1
1209:../Source Files/lpc_ssp_glcd.c **** 	for(x_scale=56,i=0; x_scale<=300; x_scale=x_scale+26,i++)
 2577              		.loc 1 1209 0 discriminator 2
 2578 0ca2 B4F59E7F 		cmp	r4, #316
 2579 0ca6 E8D1     		bne	.L184
1213:../Source Files/lpc_ssp_glcd.c **** }
 2580              		.loc 1 1213 0
 2581 0ca8 1FB0     		add	sp, sp, #124
 2582 0caa BDE8F08F 		pop	{r4, r5, r6, r7, r8, r9, sl, fp, pc}
 2583              	.L191:
 2584 0cae 00BF     		.align	2
 2585              	.L190:
 2586 0cb0 00150000 		.word	.LANCHOR3+1032
 2587 0cb4 1E150000 		.word	.LANCHOR3+1062
 2588 0cb8 46150000 		.word	.LANCHOR3+1102
 2589 0cbc 00000000 		.word	.LC2
 2590 0cc0 02000000 		.word	.LC3
 2591 0cc4 04000000 		.word	.LC4
 2592 0cc8 2E000000 		.word	.LC5
 2593              		.cfi_endproc
 2594              	.LFE84:
 2596              		.align	1
 2597              		.global	GLCD_Frame
 2598              		.thumb
 2599              		.thumb_func
 2601              	GLCD_Frame:
 2602              	.LFB78:
 748:../Source Files/lpc_ssp_glcd.c **** {
 2603              		.loc 1 748 0
 2604              		.cfi_startproc
 2605              		@ args = 4, pretend = 0, frame = 0
 2606              		@ frame_needed = 0, uses_anonymous_args = 0
 2607              	.LVL307:
 2608 0ccc 2DE9F743 		push	{r0, r1, r2, r4, r5, r6, r7, r8, r9, lr}
 2609              	.LCFI21:
 2610              		.cfi_def_cfa_offset 40
 2611              		.cfi_offset 0, -40
 2612              		.cfi_offset 1, -36
 2613              		.cfi_offset 2, -32
 2614              		.cfi_offset 4, -28
 2615              		.cfi_offset 5, -24
 2616              		.cfi_offset 6, -20
 2617              		.cfi_offset 7, -16
 2618              		.cfi_offset 8, -12
 2619              		.cfi_offset 9, -8
 2620              		.cfi_offset 14, -4
 748:../Source Files/lpc_ssp_glcd.c **** {
 2621              		.loc 1 748 0
 2622 0cd0 BDF82880 		ldrh	r8, [sp, #40]
 2623 0cd4 0546     		mov	r5, r0
 2624 0cd6 0C46     		mov	r4, r1
 2625 0cd8 9146     		mov	r9, r2
 2626 0cda 1F46     		mov	r7, r3
 2627 0cdc 96B2     		uxth	r6, r2
 2628              	.LVL308:
 2629              	.L193:
 753:../Source Files/lpc_ssp_glcd.c **** 	while(fw)
 2630              		.loc 1 753 0 discriminator 1
 2631 0cde 002E     		cmp	r6, #0
 2632 0ce0 58D0     		beq	.L198
 2633              	.L196:
 2634 0ce2 6988     		ldrh	r1, [r5, #2]
 755:../Source Files/lpc_ssp_glcd.c **** 		if(fw < frame_width)
 2635              		.loc 1 755 0
 2636 0ce4 33B2     		sxth	r3, r6
 757:../Source Files/lpc_ssp_glcd.c **** 			GLCD_Line(p1->x, p1->y+fw, p2->x, p1->y+fw, fill_color);      // Draw the interior 4 sides
 2637              		.loc 1 757 0
 2638 0ce6 7218     		adds	r2, r6, r1
 755:../Source Files/lpc_ssp_glcd.c **** 		if(fw < frame_width)
 2639              		.loc 1 755 0
 2640 0ce8 4B45     		cmp	r3, r9
 757:../Source Files/lpc_ssp_glcd.c **** 			GLCD_Line(p1->x, p1->y+fw, p2->x, p1->y+fw, fill_color);      // Draw the interior 4 sides
 2641              		.loc 1 757 0
 2642 0cea 11B2     		sxth	r1, r2
 2643 0cec B5F90000 		ldrsh	r0, [r5, #0]
 2644 0cf0 B4F90020 		ldrsh	r2, [r4, #0]
 755:../Source Files/lpc_ssp_glcd.c **** 		if(fw < frame_width)
 2645              		.loc 1 755 0
 2646 0cf4 26DA     		bge	.L194
 757:../Source Files/lpc_ssp_glcd.c **** 			GLCD_Line(p1->x, p1->y+fw, p2->x, p1->y+fw, fill_color);      // Draw the interior 4 sides
 2647              		.loc 1 757 0
 2648 0cf6 0B46     		mov	r3, r1
 2649 0cf8 CDF80080 		str	r8, [sp, #0]
 2650 0cfc FFF7FEFF 		bl	GLCD_Line
 2651              	.LVL309:
 758:../Source Files/lpc_ssp_glcd.c **** 			GLCD_Line(p1->x, p2->y-fw, p2->x, p2->y-fw, fill_color);
 2652              		.loc 1 758 0
 2653 0d00 6188     		ldrh	r1, [r4, #2]
 2654 0d02 B5F90000 		ldrsh	r0, [r5, #0]
 2655 0d06 8A1B     		subs	r2, r1, r6
 2656 0d08 11B2     		sxth	r1, r2
 2657 0d0a 0B46     		mov	r3, r1
 2658 0d0c B4F90020 		ldrsh	r2, [r4, #0]
 2659 0d10 CDF80080 		str	r8, [sp, #0]
 2660 0d14 FFF7FEFF 		bl	GLCD_Line
 2661              	.LVL310:
 759:../Source Files/lpc_ssp_glcd.c **** 			GLCD_Line(p1->x+fw, p1->y, p1->x+fw, p2->y, fill_color);
 2662              		.loc 1 759 0
 2663 0d18 2888     		ldrh	r0, [r5, #0]
 2664 0d1a B5F90210 		ldrsh	r1, [r5, #2]
 2665 0d1e 3318     		adds	r3, r6, r0
 2666 0d20 18B2     		sxth	r0, r3
 2667 0d22 0246     		mov	r2, r0
 2668 0d24 B4F90230 		ldrsh	r3, [r4, #2]
 2669 0d28 CDF80080 		str	r8, [sp, #0]
 2670 0d2c FFF7FEFF 		bl	GLCD_Line
 2671              	.LVL311:
 760:../Source Files/lpc_ssp_glcd.c **** 			GLCD_Line(p2->x-fw, p1->y, p2->x-fw, p2->y, fill_color);
 2672              		.loc 1 760 0
 2673 0d30 2188     		ldrh	r1, [r4, #0]
 2674 0d32 B4F90230 		ldrsh	r3, [r4, #2]
 2675 0d36 8A1B     		subs	r2, r1, r6
 2676 0d38 10B2     		sxth	r0, r2
 2677 0d3a B5F90210 		ldrsh	r1, [r5, #2]
 2678 0d3e CDF80080 		str	r8, [sp, #0]
 2679 0d42 21E0     		b	.L197
 2680              	.L194:
 765:../Source Files/lpc_ssp_glcd.c **** 			GLCD_Line(p1->x, p1->y+fw, p2->x, p1->y+fw, color);      // inner border 4 sides
 2681              		.loc 1 765 0
 2682 0d44 0B46     		mov	r3, r1
 2683 0d46 0097     		str	r7, [sp, #0]
 2684 0d48 FFF7FEFF 		bl	GLCD_Line
 2685              	.LVL312:
 766:../Source Files/lpc_ssp_glcd.c **** 			GLCD_Line(p1->x, p2->y-fw, p2->x, p2->y-fw, color);
 2686              		.loc 1 766 0
 2687 0d4c 6088     		ldrh	r0, [r4, #2]
 2688 0d4e B4F90020 		ldrsh	r2, [r4, #0]
 2689 0d52 831B     		subs	r3, r0, r6
 2690 0d54 19B2     		sxth	r1, r3
 2691 0d56 0B46     		mov	r3, r1
 2692 0d58 B5F90000 		ldrsh	r0, [r5, #0]
 2693 0d5c 0097     		str	r7, [sp, #0]
 2694 0d5e FFF7FEFF 		bl	GLCD_Line
 2695              	.LVL313:
 767:../Source Files/lpc_ssp_glcd.c **** 			GLCD_Line(p1->x+fw, p1->y, p1->x+fw, p2->y, color);
 2696              		.loc 1 767 0
 2697 0d62 2988     		ldrh	r1, [r5, #0]
 2698 0d64 B4F90230 		ldrsh	r3, [r4, #2]
 2699 0d68 7218     		adds	r2, r6, r1
 2700 0d6a 10B2     		sxth	r0, r2
 2701 0d6c B5F90210 		ldrsh	r1, [r5, #2]
 2702 0d70 0246     		mov	r2, r0
 2703 0d72 0097     		str	r7, [sp, #0]
 2704 0d74 FFF7FEFF 		bl	GLCD_Line
 2705              	.LVL314:
 768:../Source Files/lpc_ssp_glcd.c **** 			GLCD_Line(p2->x-fw, p1->y, p2->x-fw, p2->y, color);
 2706              		.loc 1 768 0
 2707 0d78 2088     		ldrh	r0, [r4, #0]
 2708 0d7a B5F90210 		ldrsh	r1, [r5, #2]
 2709 0d7e 831B     		subs	r3, r0, r6
 2710 0d80 18B2     		sxth	r0, r3
 2711 0d82 B4F90230 		ldrsh	r3, [r4, #2]
 2712 0d86 0097     		str	r7, [sp, #0]
 2713              	.L197:
 2714 0d88 0246     		mov	r2, r0
 2715 0d8a 013E     		subs	r6, r6, #1
 2716 0d8c FFF7FEFF 		bl	GLCD_Line
 2717              	.LVL315:
 2718 0d90 B6B2     		uxth	r6, r6
 2719 0d92 A4E7     		b	.L193
 2720              	.L198:
 775:../Source Files/lpc_ssp_glcd.c **** 		GLCD_Line(p1->x, p1->y, p2->x, p1->y, color);      // Draw the outer border 4 sides
 2721              		.loc 1 775 0
 2722 0d94 B5F90210 		ldrsh	r1, [r5, #2]
 2723 0d98 B5F90000 		ldrsh	r0, [r5, #0]
 2724 0d9c B4F90020 		ldrsh	r2, [r4, #0]
 2725 0da0 0B46     		mov	r3, r1
 2726 0da2 0097     		str	r7, [sp, #0]
 2727 0da4 FFF7FEFF 		bl	GLCD_Line
 2728              	.LVL316:
 776:../Source Files/lpc_ssp_glcd.c **** 		GLCD_Line(p1->x, p2->y, p2->x, p2->y, color);
 2729              		.loc 1 776 0
 2730 0da8 B4F90210 		ldrsh	r1, [r4, #2]
 2731 0dac B5F90000 		ldrsh	r0, [r5, #0]
 2732 0db0 B4F90020 		ldrsh	r2, [r4, #0]
 2733 0db4 0B46     		mov	r3, r1
 2734 0db6 0097     		str	r7, [sp, #0]
 2735 0db8 FFF7FEFF 		bl	GLCD_Line
 2736              	.LVL317:
 777:../Source Files/lpc_ssp_glcd.c **** 		GLCD_Line(p1->x, p1->y, p1->x, p2->y, color);
 2737              		.loc 1 777 0
 2738 0dbc B5F90000 		ldrsh	r0, [r5, #0]
 2739 0dc0 B5F90210 		ldrsh	r1, [r5, #2]
 2740 0dc4 B4F90230 		ldrsh	r3, [r4, #2]
 2741 0dc8 0246     		mov	r2, r0
 2742 0dca 0097     		str	r7, [sp, #0]
 2743 0dcc FFF7FEFF 		bl	GLCD_Line
 2744              	.LVL318:
 778:../Source Files/lpc_ssp_glcd.c **** 		GLCD_Line(p2->x, p1->y, p2->x, p2->y, color);
 2745              		.loc 1 778 0
 2746 0dd0 B4F90000 		ldrsh	r0, [r4, #0]
 2747 0dd4 B5F90210 		ldrsh	r1, [r5, #2]
 2748 0dd8 B4F90230 		ldrsh	r3, [r4, #2]
 2749 0ddc 0246     		mov	r2, r0
 2750 0dde 0A97     		str	r7, [sp, #40]
 780:../Source Files/lpc_ssp_glcd.c **** }
 2751              		.loc 1 780 0
 2752 0de0 03B0     		add	sp, sp, #12
 2753 0de2 BDE8F043 		pop	{r4, r5, r6, r7, r8, r9, lr}
 778:../Source Files/lpc_ssp_glcd.c **** 		GLCD_Line(p2->x, p1->y, p2->x, p2->y, color);
 2754              		.loc 1 778 0
 2755 0de6 FFF7FEBF 		b	GLCD_Line
 2756              	.LVL319:
 2757              		.cfi_endproc
 2758              	.LFE78:
 2760              		.align	1
 2761              		.global	GLCD_Circle
 2762              		.thumb
 2763              		.thumb_func
 2765              	GLCD_Circle:
 2766              	.LFB80:
 962:../Source Files/lpc_ssp_glcd.c **** {
 2767              		.loc 1 962 0
 2768              		.cfi_startproc
 2769              		@ args = 0, pretend = 0, frame = 32
 2770              		@ frame_needed = 0, uses_anonymous_args = 0
 2771              	.LVL320:
 2772 0dea 2DE9F04F 		push	{r4, r5, r6, r7, r8, r9, sl, fp, lr}
 2773              	.LCFI22:
 2774              		.cfi_def_cfa_offset 36
 2775              		.cfi_offset 4, -36
 2776              		.cfi_offset 5, -32
 2777              		.cfi_offset 6, -28
 2778              		.cfi_offset 7, -24
 2779              		.cfi_offset 8, -20
 2780              		.cfi_offset 9, -16
 2781              		.cfi_offset 10, -12
 2782              		.cfi_offset 11, -8
 2783              		.cfi_offset 14, -4
 2784 0dee 1C46     		mov	r4, r3
 2785 0df0 8BB0     		sub	sp, sp, #44
 2786              	.LCFI23:
 2787              		.cfi_def_cfa_offset 80
 2788              	.LVL321:
 966:../Source Files/lpc_ssp_glcd.c **** 	P = 1 - radius;
 2789              		.loc 1 966 0
 2790 0df2 C2F10103 		rsb	r3, r2, #1
 2791              	.LVL322:
 962:../Source Files/lpc_ssp_glcd.c **** {
 2792              		.loc 1 962 0
 2793 0df6 0890     		str	r0, [sp, #32]
 966:../Source Files/lpc_ssp_glcd.c **** 	P = 1 - radius;
 2794              		.loc 1 966 0
 2795 0df8 98B2     		uxth	r0, r3
 2796              	.LVL323:
 962:../Source Files/lpc_ssp_glcd.c **** {
 2797              		.loc 1 962 0
 2798 0dfa 0991     		str	r1, [sp, #36]
 2799 0dfc 0792     		str	r2, [sp, #28]
 966:../Source Files/lpc_ssp_glcd.c **** 	P = 1 - radius;
 2800              		.loc 1 966 0
 2801 0dfe 0690     		str	r0, [sp, #24]
 2802              	.LVL324:
 2803 0e00 0746     		mov	r7, r0
 965:../Source Files/lpc_ssp_glcd.c **** 	b = radius;
 2804              		.loc 1 965 0
 2805 0e02 1646     		mov	r6, r2
 966:../Source Files/lpc_ssp_glcd.c **** 	P = 1 - radius;
 2806              		.loc 1 966 0
 2807 0e04 0025     		movs	r5, #0
 2808              	.LVL325:
 2809              	.L203:
 970:../Source Files/lpc_ssp_glcd.c **** 		if(cfg->fill)
 2810              		.loc 1 970 0
 2811 0e06 2178     		ldrb	r1, [r4, #0]	@ zero_extendqisi2
 2812 0e08 0029     		cmp	r1, #0
 2813 0e0a 47D0     		beq	.L200
 972:../Source Files/lpc_ssp_glcd.c **** 			GLCD_Line(x-a, y+b, x+a, y+b, cfg->fill_color);
 2814              		.loc 1 972 0
 2815 0e0c 089A     		ldr	r2, [sp, #32]
 2816 0e0e 0998     		ldr	r0, [sp, #36]
 2817 0e10 1FFA82F9 		uxth	r9, r2
 2818 0e14 1FFA80F8 		uxth	r8, r0
 961:../Source Files/lpc_ssp_glcd.c **** void GLCD_Circle(int16_t x, int16_t y, int16_t radius,COLORCFG_Type *cfg)
 2819              		.loc 1 961 0
 2820 0e18 ABB2     		uxth	r3, r5
 972:../Source Files/lpc_ssp_glcd.c **** 			GLCD_Line(x-a, y+b, x+a, y+b, cfg->fill_color);
 2821              		.loc 1 972 0
 2822 0e1a 1FFA86FA 		uxth	sl, r6
 961:../Source Files/lpc_ssp_glcd.c **** void GLCD_Circle(int16_t x, int16_t y, int16_t radius,COLORCFG_Type *cfg)
 2823              		.loc 1 961 0
 2824 0e1e C3EB090C 		rsb	ip, r3, r9
 2825 0e22 03EB090B 		add	fp, r3, r9
 972:../Source Files/lpc_ssp_glcd.c **** 			GLCD_Line(x-a, y+b, x+a, y+b, cfg->fill_color);
 2826              		.loc 1 972 0
 2827 0e26 A288     		ldrh	r2, [r4, #4]
 2828 0e28 0AEB0801 		add	r1, sl, r8
 2829 0e2c 0FFA8CFE 		sxth	lr, ip
 2830 0e30 09B2     		sxth	r1, r1
 2831 0e32 0FFA8BFB 		sxth	fp, fp
 2832 0e36 7046     		mov	r0, lr
 961:../Source Files/lpc_ssp_glcd.c **** void GLCD_Circle(int16_t x, int16_t y, int16_t radius,COLORCFG_Type *cfg)
 2833              		.loc 1 961 0
 2834 0e38 0593     		str	r3, [sp, #20]
 972:../Source Files/lpc_ssp_glcd.c **** 			GLCD_Line(x-a, y+b, x+a, y+b, cfg->fill_color);
 2835              		.loc 1 972 0
 2836 0e3a 0092     		str	r2, [sp, #0]
 2837 0e3c 0B46     		mov	r3, r1
 2838 0e3e 5A46     		mov	r2, fp
 2839 0e40 CDF80CE0 		str	lr, [sp, #12]
 2840 0e44 FFF7FEFF 		bl	GLCD_Line
 2841              	.LVL326:
 973:../Source Files/lpc_ssp_glcd.c **** 			GLCD_Line(x-a, y-b, x+a, y-b, cfg->fill_color);
 2842              		.loc 1 973 0
 2843 0e48 CAEB0803 		rsb	r3, sl, r8
 2844 0e4c A088     		ldrh	r0, [r4, #4]
 2845 0e4e DDF80CC0 		ldr	ip, [sp, #12]
 2846 0e52 19B2     		sxth	r1, r3
 2847 0e54 5A46     		mov	r2, fp
 2848 0e56 0B46     		mov	r3, r1
 2849 0e58 0090     		str	r0, [sp, #0]
 2850 0e5a 6046     		mov	r0, ip
 2851 0e5c FFF7FEFF 		bl	GLCD_Line
 2852              	.LVL327:
 961:../Source Files/lpc_ssp_glcd.c **** void GLCD_Circle(int16_t x, int16_t y, int16_t radius,COLORCFG_Type *cfg)
 2853              		.loc 1 961 0
 2854 0e60 0599     		ldr	r1, [sp, #20]
 974:../Source Files/lpc_ssp_glcd.c **** 			GLCD_Line(x-b, y+a, x+b, y+a, cfg->fill_color);
 2855              		.loc 1 974 0
 2856 0e62 A388     		ldrh	r3, [r4, #4]
 961:../Source Files/lpc_ssp_glcd.c **** void GLCD_Circle(int16_t x, int16_t y, int16_t radius,COLORCFG_Type *cfg)
 2857              		.loc 1 961 0
 2858 0e64 01EB0802 		add	r2, r1, r8
 974:../Source Files/lpc_ssp_glcd.c **** 			GLCD_Line(x-b, y+a, x+b, y+a, cfg->fill_color);
 2859              		.loc 1 974 0
 2860 0e68 CAEB090B 		rsb	fp, sl, r9
 2861 0e6c D144     		add	r9, sl, r9
 2862 0e6e 11B2     		sxth	r1, r2
 2863 0e70 0FFA8BFB 		sxth	fp, fp
 2864 0e74 0FFA89F9 		sxth	r9, r9
 2865 0e78 0093     		str	r3, [sp, #0]
 2866 0e7a 5846     		mov	r0, fp
 2867 0e7c 0B46     		mov	r3, r1
 2868 0e7e 4A46     		mov	r2, r9
 2869 0e80 FFF7FEFF 		bl	GLCD_Line
 2870              	.LVL328:
 961:../Source Files/lpc_ssp_glcd.c **** void GLCD_Circle(int16_t x, int16_t y, int16_t radius,COLORCFG_Type *cfg)
 2871              		.loc 1 961 0
 2872 0e84 0598     		ldr	r0, [sp, #20]
 975:../Source Files/lpc_ssp_glcd.c **** 			GLCD_Line(x-b, y-a, x+b, y-a, cfg->fill_color);
 2873              		.loc 1 975 0
 2874 0e86 A288     		ldrh	r2, [r4, #4]
 961:../Source Files/lpc_ssp_glcd.c **** void GLCD_Circle(int16_t x, int16_t y, int16_t radius,COLORCFG_Type *cfg)
 2875              		.loc 1 961 0
 2876 0e88 C0EB0808 		rsb	r8, r0, r8
 975:../Source Files/lpc_ssp_glcd.c **** 			GLCD_Line(x-b, y-a, x+b, y-a, cfg->fill_color);
 2877              		.loc 1 975 0
 2878 0e8c 0FFA88F1 		sxth	r1, r8
 2879 0e90 0092     		str	r2, [sp, #0]
 2880 0e92 5846     		mov	r0, fp
 2881 0e94 4A46     		mov	r2, r9
 2882 0e96 0B46     		mov	r3, r1
 2883 0e98 FFF7FEFF 		bl	GLCD_Line
 2884              	.LVL329:
 2885              	.L200:
 978:../Source Files/lpc_ssp_glcd.c **** 		if(P < 0)
 2886              		.loc 1 978 0
 2887 0e9c 3804     		lsls	r0, r7, #16
 2888 0e9e 07D5     		bpl	.L201
 961:../Source Files/lpc_ssp_glcd.c **** void GLCD_Circle(int16_t x, int16_t y, int16_t radius,COLORCFG_Type *cfg)
 2889              		.loc 1 961 0
 2890 0ea0 ABB2     		uxth	r3, r5
 979:../Source Files/lpc_ssp_glcd.c **** 			P+= 3 + 2*a++;
 2891              		.loc 1 979 0
 2892 0ea2 0337     		adds	r7, r7, #3
 2893              	.LVL330:
 2894 0ea4 07EB4300 		add	r0, r7, r3, lsl #1
 961:../Source Files/lpc_ssp_glcd.c **** void GLCD_Circle(int16_t x, int16_t y, int16_t radius,COLORCFG_Type *cfg)
 2895              		.loc 1 961 0
 2896 0ea8 5A1C     		adds	r2, r3, #1
 979:../Source Files/lpc_ssp_glcd.c **** 			P+= 3 + 2*a++;
 2897              		.loc 1 979 0
 2898 0eaa 87B2     		uxth	r7, r0
 2899              	.LVL331:
 961:../Source Files/lpc_ssp_glcd.c **** void GLCD_Circle(int16_t x, int16_t y, int16_t radius,COLORCFG_Type *cfg)
 2900              		.loc 1 961 0
 2901 0eac 91B2     		uxth	r1, r2
 2902              	.LVL332:
 2903 0eae 09E0     		b	.L202
 2904              	.LVL333:
 2905              	.L201:
 981:../Source Files/lpc_ssp_glcd.c **** 			P+= 5 + 2*(a++ - b--);
 2906              		.loc 1 981 0
 2907 0eb0 31B2     		sxth	r1, r6
 2908 0eb2 0537     		adds	r7, r7, #5
 2909              	.LVL334:
 2910 0eb4 6B1A     		subs	r3, r5, r1
 2911 0eb6 07EB4300 		add	r0, r7, r3, lsl #1
 961:../Source Files/lpc_ssp_glcd.c **** void GLCD_Circle(int16_t x, int16_t y, int16_t radius,COLORCFG_Type *cfg)
 2912              		.loc 1 961 0
 2913 0eba 6A1C     		adds	r2, r5, #1
 981:../Source Files/lpc_ssp_glcd.c **** 			P+= 5 + 2*(a++ - b--);
 2914              		.loc 1 981 0
 2915 0ebc 013E     		subs	r6, r6, #1
 2916              	.LVL335:
 2917 0ebe 87B2     		uxth	r7, r0
 2918              	.LVL336:
 961:../Source Files/lpc_ssp_glcd.c **** void GLCD_Circle(int16_t x, int16_t y, int16_t radius,COLORCFG_Type *cfg)
 2919              		.loc 1 961 0
 2920 0ec0 91B2     		uxth	r1, r2
 2921              	.LVL337:
 981:../Source Files/lpc_ssp_glcd.c **** 			P+= 5 + 2*(a++ - b--);
 2922              		.loc 1 981 0
 2923 0ec2 B6B2     		uxth	r6, r6
 2924              	.LVL338:
 2925              	.L202:
 982:../Source Files/lpc_ssp_glcd.c **** 	} while(a <= b);
 2926              		.loc 1 982 0
 2927 0ec4 09B2     		sxth	r1, r1
 2928              	.LVL339:
 2929 0ec6 33B2     		sxth	r3, r6
 2930 0ec8 0135     		adds	r5, r5, #1
 2931 0eca 9942     		cmp	r1, r3
 2932 0ecc 9BDD     		ble	.L203
 984:../Source Files/lpc_ssp_glcd.c **** 	cfg->fill = NO;
 2933              		.loc 1 984 0
 2934 0ece 0025     		movs	r5, #0
 986:../Source Files/lpc_ssp_glcd.c **** 	b = radius;
 2935              		.loc 1 986 0
 2936 0ed0 079E     		ldr	r6, [sp, #28]
 2937              	.LVL340:
 984:../Source Files/lpc_ssp_glcd.c **** 	cfg->fill = NO;
 2938              		.loc 1 984 0
 2939 0ed2 2570     		strb	r5, [r4, #0]
 2940              	.LVL341:
 2941              	.L207:
 990:../Source Files/lpc_ssp_glcd.c **** 		if(!cfg->fill && cfg->bndry)
 2942              		.loc 1 990 0
 2943 0ed4 2078     		ldrb	r0, [r4, #0]	@ zero_extendqisi2
 2944 0ed6 0028     		cmp	r0, #0
 2945 0ed8 57D1     		bne	.L204
 990:../Source Files/lpc_ssp_glcd.c **** 		if(!cfg->fill && cfg->bndry)
 2946              		.loc 1 990 0 is_stmt 0 discriminator 1
 2947 0eda 6278     		ldrb	r2, [r4, #1]	@ zero_extendqisi2
 2948 0edc 002A     		cmp	r2, #0
 2949 0ede 54D0     		beq	.L204
 992:../Source Files/lpc_ssp_glcd.c **** 			GLCD_PutPixel(a+x, b+y, cfg->bcolor);
 2950              		.loc 1 992 0 is_stmt 1
 2951 0ee0 089F     		ldr	r7, [sp, #32]
 2952 0ee2 0998     		ldr	r0, [sp, #36]
 2953 0ee4 1FFA87FA 		uxth	sl, r7
 2954 0ee8 1FFA80F8 		uxth	r8, r0
 961:../Source Files/lpc_ssp_glcd.c **** void GLCD_Circle(int16_t x, int16_t y, int16_t radius,COLORCFG_Type *cfg)
 2955              		.loc 1 961 0
 2956 0eec 1FFA85F9 		uxth	r9, r5
 992:../Source Files/lpc_ssp_glcd.c **** 			GLCD_PutPixel(a+x, b+y, cfg->bcolor);
 2957              		.loc 1 992 0
 2958 0ef0 B7B2     		uxth	r7, r6
 2959 0ef2 07EB080E 		add	lr, r7, r8
 961:../Source Files/lpc_ssp_glcd.c **** void GLCD_Circle(int16_t x, int16_t y, int16_t radius,COLORCFG_Type *cfg)
 2960              		.loc 1 961 0
 2961 0ef6 09EB0A01 		add	r1, r9, sl
 992:../Source Files/lpc_ssp_glcd.c **** 			GLCD_PutPixel(a+x, b+y, cfg->bcolor);
 2962              		.loc 1 992 0
 2963 0efa 1FFA8EFC 		uxth	ip, lr
 961:../Source Files/lpc_ssp_glcd.c **** void GLCD_Circle(int16_t x, int16_t y, int16_t radius,COLORCFG_Type *cfg)
 2964              		.loc 1 961 0
 2965 0efe 8BB2     		uxth	r3, r1
 992:../Source Files/lpc_ssp_glcd.c **** 			GLCD_PutPixel(a+x, b+y, cfg->bcolor);
 2966              		.loc 1 992 0
 2967 0f00 1846     		mov	r0, r3
 2968 0f02 6146     		mov	r1, ip
 2969 0f04 6288     		ldrh	r2, [r4, #2]
 2970 0f06 CDF80CC0 		str	ip, [sp, #12]
 961:../Source Files/lpc_ssp_glcd.c **** void GLCD_Circle(int16_t x, int16_t y, int16_t radius,COLORCFG_Type *cfg)
 2971              		.loc 1 961 0
 2972 0f0a 0793     		str	r3, [sp, #28]
 992:../Source Files/lpc_ssp_glcd.c **** 			GLCD_PutPixel(a+x, b+y, cfg->bcolor);
 2973              		.loc 1 992 0
 2974 0f0c FFF7FEFF 		bl	GLCD_PutPixel
 2975              	.LVL342:
 993:../Source Files/lpc_ssp_glcd.c **** 			GLCD_PutPixel(b+x, a+y, cfg->bcolor);
 2976              		.loc 1 993 0
 2977 0f10 07EB0A02 		add	r2, r7, sl
 2978 0f14 91B2     		uxth	r1, r2
 961:../Source Files/lpc_ssp_glcd.c **** void GLCD_Circle(int16_t x, int16_t y, int16_t radius,COLORCFG_Type *cfg)
 2979              		.loc 1 961 0
 2980 0f16 09EB0803 		add	r3, r9, r8
 2981 0f1a 9BB2     		uxth	r3, r3
 993:../Source Files/lpc_ssp_glcd.c **** 			GLCD_PutPixel(b+x, a+y, cfg->bcolor);
 2982              		.loc 1 993 0
 2983 0f1c 0591     		str	r1, [sp, #20]
 2984 0f1e 0598     		ldr	r0, [sp, #20]
 2985 0f20 1946     		mov	r1, r3
 2986 0f22 6288     		ldrh	r2, [r4, #2]
 2987 0f24 0493     		str	r3, [sp, #16]
 961:../Source Files/lpc_ssp_glcd.c **** void GLCD_Circle(int16_t x, int16_t y, int16_t radius,COLORCFG_Type *cfg)
 2988              		.loc 1 961 0
 2989 0f26 C9EB0A0B 		rsb	fp, r9, sl
 993:../Source Files/lpc_ssp_glcd.c **** 			GLCD_PutPixel(b+x, a+y, cfg->bcolor);
 2990              		.loc 1 993 0
 2991 0f2a FFF7FEFF 		bl	GLCD_PutPixel
 2992              	.LVL343:
 994:../Source Files/lpc_ssp_glcd.c **** 			GLCD_PutPixel(x-a, b+y, cfg->bcolor);
 2993              		.loc 1 994 0
 2994 0f2e DDF80CC0 		ldr	ip, [sp, #12]
 961:../Source Files/lpc_ssp_glcd.c **** void GLCD_Circle(int16_t x, int16_t y, int16_t radius,COLORCFG_Type *cfg)
 2995              		.loc 1 961 0
 2996 0f32 1FFA8BFB 		uxth	fp, fp
 994:../Source Files/lpc_ssp_glcd.c **** 			GLCD_PutPixel(x-a, b+y, cfg->bcolor);
 2997              		.loc 1 994 0
 2998 0f36 6146     		mov	r1, ip
 2999 0f38 5846     		mov	r0, fp
 3000 0f3a 6288     		ldrh	r2, [r4, #2]
 3001 0f3c FFF7FEFF 		bl	GLCD_PutPixel
 3002              	.LVL344:
 995:../Source Files/lpc_ssp_glcd.c **** 			GLCD_PutPixel(x-b, a+y, cfg->bcolor);
 3003              		.loc 1 995 0
 3004 0f40 C7EB0A0A 		rsb	sl, r7, sl
 3005 0f44 049A     		ldr	r2, [sp, #16]
 3006 0f46 1FFA8AFA 		uxth	sl, sl
 961:../Source Files/lpc_ssp_glcd.c **** void GLCD_Circle(int16_t x, int16_t y, int16_t radius,COLORCFG_Type *cfg)
 3007              		.loc 1 961 0
 3008 0f4a C9EB0809 		rsb	r9, r9, r8
 995:../Source Files/lpc_ssp_glcd.c **** 			GLCD_PutPixel(x-b, a+y, cfg->bcolor);
 3009              		.loc 1 995 0
 3010 0f4e 1146     		mov	r1, r2
 3011 0f50 5046     		mov	r0, sl
 3012 0f52 6288     		ldrh	r2, [r4, #2]
 961:../Source Files/lpc_ssp_glcd.c **** void GLCD_Circle(int16_t x, int16_t y, int16_t radius,COLORCFG_Type *cfg)
 3013              		.loc 1 961 0
 3014 0f54 1FFA89F9 		uxth	r9, r9
 997:../Source Files/lpc_ssp_glcd.c **** 			GLCD_PutPixel(a+x, y-b, cfg->bcolor);
 3015              		.loc 1 997 0
 3016 0f58 C7EB0807 		rsb	r7, r7, r8
 995:../Source Files/lpc_ssp_glcd.c **** 			GLCD_PutPixel(x-b, a+y, cfg->bcolor);
 3017              		.loc 1 995 0
 3018 0f5c FFF7FEFF 		bl	GLCD_PutPixel
 3019              	.LVL345:
 997:../Source Files/lpc_ssp_glcd.c **** 			GLCD_PutPixel(a+x, y-b, cfg->bcolor);
 3020              		.loc 1 997 0
 3021 0f60 BFB2     		uxth	r7, r7
 996:../Source Files/lpc_ssp_glcd.c **** 			GLCD_PutPixel(b+x, y-a, cfg->bcolor);
 3022              		.loc 1 996 0
 3023 0f62 0598     		ldr	r0, [sp, #20]
 3024 0f64 4946     		mov	r1, r9
 3025 0f66 6288     		ldrh	r2, [r4, #2]
 3026 0f68 FFF7FEFF 		bl	GLCD_PutPixel
 3027              	.LVL346:
 997:../Source Files/lpc_ssp_glcd.c **** 			GLCD_PutPixel(a+x, y-b, cfg->bcolor);
 3028              		.loc 1 997 0
 3029 0f6c 0798     		ldr	r0, [sp, #28]
 3030 0f6e 3946     		mov	r1, r7
 3031 0f70 6288     		ldrh	r2, [r4, #2]
 3032 0f72 FFF7FEFF 		bl	GLCD_PutPixel
 3033              	.LVL347:
 998:../Source Files/lpc_ssp_glcd.c **** 			GLCD_PutPixel(x-a, y-b, cfg->bcolor);
 3034              		.loc 1 998 0
 3035 0f76 5846     		mov	r0, fp
 3036 0f78 3946     		mov	r1, r7
 3037 0f7a 6288     		ldrh	r2, [r4, #2]
 3038 0f7c FFF7FEFF 		bl	GLCD_PutPixel
 3039              	.LVL348:
 999:../Source Files/lpc_ssp_glcd.c **** 			GLCD_PutPixel(x-b, y-a, cfg->bcolor);
 3040              		.loc 1 999 0
 3041 0f80 5046     		mov	r0, sl
 3042 0f82 4946     		mov	r1, r9
 3043 0f84 6288     		ldrh	r2, [r4, #2]
 3044 0f86 FFF7FEFF 		bl	GLCD_PutPixel
 3045              	.LVL349:
 3046              	.L204:
1002:../Source Files/lpc_ssp_glcd.c **** 		if(P < 0)
 3047              		.loc 1 1002 0
 3048 0f8a 0698     		ldr	r0, [sp, #24]
 3049 0f8c 0104     		lsls	r1, r0, #16
 3050 0f8e 09D5     		bpl	.L205
1003:../Source Files/lpc_ssp_glcd.c **** 			P+= 3 + 2*a++;
 3051              		.loc 1 1003 0
 3052 0f90 069A     		ldr	r2, [sp, #24]
 961:../Source Files/lpc_ssp_glcd.c **** void GLCD_Circle(int16_t x, int16_t y, int16_t radius,COLORCFG_Type *cfg)
 3053              		.loc 1 961 0
 3054 0f92 A9B2     		uxth	r1, r5
1003:../Source Files/lpc_ssp_glcd.c **** 			P+= 3 + 2*a++;
 3055              		.loc 1 1003 0
 3056 0f94 D31C     		adds	r3, r2, #3
 3057 0f96 03EB4100 		add	r0, r3, r1, lsl #1
 3058 0f9a 82B2     		uxth	r2, r0
 961:../Source Files/lpc_ssp_glcd.c **** void GLCD_Circle(int16_t x, int16_t y, int16_t radius,COLORCFG_Type *cfg)
 3059              		.loc 1 961 0
 3060 0f9c 0131     		adds	r1, r1, #1
1003:../Source Files/lpc_ssp_glcd.c **** 			P+= 3 + 2*a++;
 3061              		.loc 1 1003 0
 3062 0f9e 0692     		str	r2, [sp, #24]
 961:../Source Files/lpc_ssp_glcd.c **** void GLCD_Circle(int16_t x, int16_t y, int16_t radius,COLORCFG_Type *cfg)
 3063              		.loc 1 961 0
 3064 0fa0 88B2     		uxth	r0, r1
 3065              	.LVL350:
 3066 0fa2 0BE0     		b	.L206
 3067              	.LVL351:
 3068              	.L205:
1005:../Source Files/lpc_ssp_glcd.c **** 			P+= 5 + 2*(a++ - b--);
 3069              		.loc 1 1005 0
 3070 0fa4 0699     		ldr	r1, [sp, #24]
 3071 0fa6 33B2     		sxth	r3, r6
 3072 0fa8 E81A     		subs	r0, r5, r3
 3073 0faa 4A1D     		adds	r2, r1, #5
 3074 0fac 02EB4001 		add	r1, r2, r0, lsl #1
 3075 0fb0 8AB2     		uxth	r2, r1
 961:../Source Files/lpc_ssp_glcd.c **** void GLCD_Circle(int16_t x, int16_t y, int16_t radius,COLORCFG_Type *cfg)
 3076              		.loc 1 961 0
 3077 0fb2 6B1C     		adds	r3, r5, #1
1005:../Source Files/lpc_ssp_glcd.c **** 			P+= 5 + 2*(a++ - b--);
 3078              		.loc 1 1005 0
 3079 0fb4 013E     		subs	r6, r6, #1
 3080              	.LVL352:
 3081 0fb6 0692     		str	r2, [sp, #24]
 961:../Source Files/lpc_ssp_glcd.c **** void GLCD_Circle(int16_t x, int16_t y, int16_t radius,COLORCFG_Type *cfg)
 3082              		.loc 1 961 0
 3083 0fb8 98B2     		uxth	r0, r3
 3084              	.LVL353:
1005:../Source Files/lpc_ssp_glcd.c **** 			P+= 5 + 2*(a++ - b--);
 3085              		.loc 1 1005 0
 3086 0fba B6B2     		uxth	r6, r6
 3087              	.LVL354:
 3088              	.L206:
1006:../Source Files/lpc_ssp_glcd.c **** 	} while(a <= b);
 3089              		.loc 1 1006 0
 3090 0fbc 03B2     		sxth	r3, r0
 3091 0fbe 30B2     		sxth	r0, r6
 3092              	.LVL355:
 3093 0fc0 0135     		adds	r5, r5, #1
 3094 0fc2 8342     		cmp	r3, r0
 3095 0fc4 86DD     		ble	.L207
1007:../Source Files/lpc_ssp_glcd.c **** }
 3096              		.loc 1 1007 0
 3097 0fc6 0BB0     		add	sp, sp, #44
 3098 0fc8 BDE8F08F 		pop	{r4, r5, r6, r7, r8, r9, sl, fp, pc}
 3099              		.cfi_endproc
 3100              	.LFE80:
 3102              		.align	1
 3103              		.global	GLCD_Window
 3104              		.thumb
 3105              		.thumb_func
 3107              	GLCD_Window:
 3108              	.LFB58:
 133:../Source Files/lpc_ssp_glcd.c **** {
 3109              		.loc 1 133 0
 3110              		.cfi_startproc
 3111              		@ args = 0, pretend = 0, frame = 0
 3112              		@ frame_needed = 0, uses_anonymous_args = 0
 3113              	.LVL356:
 3114 0fcc F8B5     		push	{r3, r4, r5, r6, r7, lr}
 3115              	.LCFI24:
 3116              		.cfi_def_cfa_offset 24
 3117              		.cfi_offset 3, -24
 3118              		.cfi_offset 4, -20
 3119              		.cfi_offset 5, -16
 3120              		.cfi_offset 6, -12
 3121              		.cfi_offset 7, -8
 3122              		.cfi_offset 14, -4
 133:../Source Files/lpc_ssp_glcd.c **** {
 3123              		.loc 1 133 0
 3124 0fce 0546     		mov	r5, r0
 134:../Source Files/lpc_ssp_glcd.c **** 	Write_Command_Glcd(0x45);      /* Horizontal GRAM Start Address      */
 3125              		.loc 1 134 0
 3126 0fd0 4520     		movs	r0, #69
 3127              	.LVL357:
 133:../Source Files/lpc_ssp_glcd.c **** {
 3128              		.loc 1 133 0
 3129 0fd2 0C46     		mov	r4, r1
 3130 0fd4 1646     		mov	r6, r2
 3131 0fd6 1F46     		mov	r7, r3
 134:../Source Files/lpc_ssp_glcd.c **** 	Write_Command_Glcd(0x45);      /* Horizontal GRAM Start Address      */
 3132              		.loc 1 134 0
 3133 0fd8 FFF7FEFF 		bl	Write_Command_Glcd
 3134              	.LVL358:
 135:../Source Files/lpc_ssp_glcd.c **** 	Write_Data_Glcd(x);
 3135              		.loc 1 135 0
 3136 0fdc 2846     		mov	r0, r5
 3137 0fde FFF7FEFF 		bl	Write_Data_Glcd
 3138              	.LVL359:
 138:../Source Files/lpc_ssp_glcd.c **** 	Write_Data_Glcd(x+w-1);
 3139              		.loc 1 138 0
 3140 0fe2 013D     		subs	r5, r5, #1
 137:../Source Files/lpc_ssp_glcd.c **** 	Write_Command_Glcd(0x46);      /* Horizontal GRAM End   Address (-1) */
 3141              		.loc 1 137 0
 3142 0fe4 4620     		movs	r0, #70
