   1              		.syntax unified
   2              		.cpu cortex-m3
   3              		.fpu softvfp
   4              		.eabi_attribute 20, 1
   5              		.eabi_attribute 21, 1
   6              		.eabi_attribute 23, 3
   7              		.eabi_attribute 24, 1
   8              		.eabi_attribute 25, 1
   9              		.eabi_attribute 26, 1
  10              		.eabi_attribute 30, 6
  11              		.eabi_attribute 34, 1
  12              		.eabi_attribute 18, 4
  13              		.thumb
  14              		.file	"startup_LPC17xx.c"
  15              		.text
  16              	.Ltext0:
  17              		.cfi_sections	.debug_frame
  18              		.global	g_pfnVectors
  19              		.section	.isr_vector,"a",%progbits
  20              		.align	2
  23              	g_pfnVectors:
  24 0000 00000000 		.word	_estack
  25 0004 00000000 		.word	Reset_Handler
  26 0008 00000000 		.word	NMI_Handler
  27 000c 00000000 		.word	HardFault_Handler
  28 0010 00000000 		.word	MemManage_Handler
  29 0014 00000000 		.word	BusFault_Handler
  30 0018 00000000 		.word	UsageFault_Handler
  31 001c 00000000 		.word	0
  32 0020 00000000 		.word	0
  33 0024 00000000 		.word	0
  34 0028 00000000 		.word	0
  35 002c 00000000 		.word	SVC_Handler
  36 0030 00000000 		.word	DebugMon_Handler
  37 0034 00000000 		.word	0
  38 0038 00000000 		.word	PendSV_Handler
  39 003c 00000000 		.word	SysTick_Handler
  40 0040 00000000 		.word	WDT_IRQHandler
  41 0044 00000000 		.word	TIMER0_IRQHandler
  42 0048 00000000 		.word	TIMER1_IRQHandler
  43 004c 00000000 		.word	TIMER2_IRQHandler
  44 0050 00000000 		.word	TIMER3_IRQHandler
  45 0054 00000000 		.word	UART0_IRQHandler
  46 0058 00000000 		.word	UART1_IRQHandler
  47 005c 00000000 		.word	UART2_IRQHandler
  48 0060 00000000 		.word	UART3_IRQHandler
  49 0064 00000000 		.word	PWM1_IRQHandler
  50 0068 00000000 		.word	I2C0_IRQHandler
  51 006c 00000000 		.word	I2C1_IRQHandler
  52 0070 00000000 		.word	I2C2_IRQHandler
  53 0074 00000000 		.word	SPI_IRQHandler
  54 0078 00000000 		.word	SSP0_IRQHandler
  55 007c 00000000 		.word	SSP1_IRQHandler
  56 0080 00000000 		.word	PLL0_IRQHandler
  57 0084 00000000 		.word	RTC_IRQHandler
  58 0088 00000000 		.word	EINT0_IRQHandler
  59 008c 00000000 		.word	EINT1_IRQHandler
  60 0090 00000000 		.word	EINT2_IRQHandler
  61 0094 00000000 		.word	EINT3_IRQHandler
  62 0098 00000000 		.word	ADC_IRQHandler
  63 009c 00000000 		.word	BOD_IRQHandler
  64 00a0 00000000 		.word	USB_IRQHandler
  65 00a4 00000000 		.word	CAN_IRQHandler
  66 00a8 00000000 		.word	DMA_IRQHandler
  67 00ac 00000000 		.word	I2S_IRQHandler
  68 00b0 00000000 		.word	ENET_IRQHandler
  69 00b4 00000000 		.word	RIT_IRQHandler
  70 00b8 00000000 		.word	MCPWM_IRQHandler
  71 00bc 00000000 		.word	QEI_IRQHandler
  72 00c0 00000000 		.word	PLL1_IRQHandler
  73 00c4 00000000 		.word	USBActivity_IRQHandler
  74 00c8 00000000 		.word	CANActivity_IRQHandler
  75              		.text
  76              		.align	2
  77              		.weak	Reset_Handler
  78              		.thumb
  79              		.thumb_func
  81              	Reset_Handler:
  82              	.LFB0:
  83              		.file 1 "../startup_LPC17xx.c"
   1:../startup_LPC17xx.c **** //$Id: startup_LPC17xx.c 1269 2011-07-22 22:51:08Z tk $
   2:../startup_LPC17xx.c **** /**
   3:../startup_LPC17xx.c ****  ******************************************************************************
   4:../startup_LPC17xx.c ****  * @file      startup_LPC17xx.c
   5:../startup_LPC17xx.c ****  ******************************************************************************
   6:../startup_LPC17xx.c ****  */
   7:../startup_LPC17xx.c **** 
   8:../startup_LPC17xx.c **** #define STARTUP_FREERTOS	0
   9:../startup_LPC17xx.c **** 
  10:../startup_LPC17xx.c **** /* Includes ------------------------------------------------------------------*/
  11:../startup_LPC17xx.c **** /* Private typedef -----------------------------------------------------------*/
  12:../startup_LPC17xx.c **** typedef void( *const intfunc )( void );
  13:../startup_LPC17xx.c **** 
  14:../startup_LPC17xx.c **** /* Private define ------------------------------------------------------------*/
  15:../startup_LPC17xx.c **** #define WEAK __attribute__ ((weak))
  16:../startup_LPC17xx.c **** #define ALIAS(f) __attribute__ ((weak, alias (#f)))
  17:../startup_LPC17xx.c **** 
  18:../startup_LPC17xx.c **** /* Private macro -------------------------------------------------------------*/
  19:../startup_LPC17xx.c **** extern unsigned long _etext;
  20:../startup_LPC17xx.c **** /* start address for the initialization values of the .data section.
  21:../startup_LPC17xx.c **** defined in linker script */
  22:../startup_LPC17xx.c **** extern unsigned long _sidata;
  23:../startup_LPC17xx.c **** 
  24:../startup_LPC17xx.c **** /* start address for the .data section. defined in linker script */    
  25:../startup_LPC17xx.c **** extern unsigned long _sdata;
  26:../startup_LPC17xx.c **** 
  27:../startup_LPC17xx.c **** /* end address for the .data section. defined in linker script */    
  28:../startup_LPC17xx.c **** extern unsigned long _edata;
  29:../startup_LPC17xx.c ****    
  30:../startup_LPC17xx.c **** /* start address for the .bss section. defined in linker script */
  31:../startup_LPC17xx.c **** extern unsigned long _sbss;
  32:../startup_LPC17xx.c **** extern unsigned long _sbss_ahb;
  33:../startup_LPC17xx.c **** 
  34:../startup_LPC17xx.c **** /* end address for the .bss section. defined in linker script */      
  35:../startup_LPC17xx.c **** extern unsigned long _ebss;  
  36:../startup_LPC17xx.c **** extern unsigned long _ebss_ahb;  
  37:../startup_LPC17xx.c ****    
  38:../startup_LPC17xx.c **** /* init value for the stack pointer. defined in linker script */
  39:../startup_LPC17xx.c **** extern unsigned long _estack;
  40:../startup_LPC17xx.c **** 
  41:../startup_LPC17xx.c **** /* Private variables ---------------------------------------------------------*/
  42:../startup_LPC17xx.c **** /* Private function prototypes -----------------------------------------------*/
  43:../startup_LPC17xx.c **** void Reset_Handler(void) __attribute__((__interrupt__));
  44:../startup_LPC17xx.c **** extern int main(void);
  45:../startup_LPC17xx.c **** extern void SystemInit(void);
  46:../startup_LPC17xx.c **** extern void __libc_init_array(void);  /* calls CTORS of static objects */
  47:../startup_LPC17xx.c **** void __Init_Data(void);
  48:../startup_LPC17xx.c **** 
  49:../startup_LPC17xx.c **** // for FreeRTOS
  50:../startup_LPC17xx.c **** #if STARTUP_FREERTOS
  51:../startup_LPC17xx.c **** extern void xPortPendSVHandler(void);
  52:../startup_LPC17xx.c **** extern void xPortSysTickHandler(void);
  53:../startup_LPC17xx.c **** extern void vPortSVCHandler( void );
  54:../startup_LPC17xx.c **** #endif
  55:../startup_LPC17xx.c **** 
  56:../startup_LPC17xx.c **** /******************************************************************************
  57:../startup_LPC17xx.c **** *
  58:../startup_LPC17xx.c **** * Forward declaration of the default fault handlers.
  59:../startup_LPC17xx.c **** *
  60:../startup_LPC17xx.c **** *******************************************************************************/
  61:../startup_LPC17xx.c **** void WEAK Reset_Handler(void);
  62:../startup_LPC17xx.c **** void WEAK NMI_Handler(void);
  63:../startup_LPC17xx.c **** void WEAK HardFault_Handler(void);
  64:../startup_LPC17xx.c **** void WEAK MemManage_Handler(void);
  65:../startup_LPC17xx.c **** void WEAK BusFault_Handler(void);
  66:../startup_LPC17xx.c **** void WEAK UsageFault_Handler(void);
  67:../startup_LPC17xx.c **** void WEAK MemManage_Handler(void);
  68:../startup_LPC17xx.c **** void WEAK SVC_Handler(void);
  69:../startup_LPC17xx.c **** void WEAK DebugMon_Handler(void);
  70:../startup_LPC17xx.c **** void WEAK PendSV_Handler(void);
  71:../startup_LPC17xx.c **** void WEAK SysTick_Handler(void);
  72:../startup_LPC17xx.c **** 
  73:../startup_LPC17xx.c **** void WEAK Default_Handler(void);
  74:../startup_LPC17xx.c **** 
  75:../startup_LPC17xx.c **** /* External Interrupts */
  76:../startup_LPC17xx.c **** void WDT_IRQHandler(void) ALIAS(Default_Handler);
  77:../startup_LPC17xx.c **** void TIMER0_IRQHandler(void) ALIAS(Default_Handler);
  78:../startup_LPC17xx.c **** void TIMER1_IRQHandler(void) ALIAS(Default_Handler);
  79:../startup_LPC17xx.c **** void TIMER2_IRQHandler(void) ALIAS(Default_Handler);
  80:../startup_LPC17xx.c **** void TIMER3_IRQHandler(void) ALIAS(Default_Handler);
  81:../startup_LPC17xx.c **** void UART0_IRQHandler(void) ALIAS(Default_Handler);
  82:../startup_LPC17xx.c **** void UART1_IRQHandler(void) ALIAS(Default_Handler);
  83:../startup_LPC17xx.c **** void UART2_IRQHandler(void) ALIAS(Default_Handler);
  84:../startup_LPC17xx.c **** void UART3_IRQHandler(void) ALIAS(Default_Handler);
  85:../startup_LPC17xx.c **** void PWM1_IRQHandler(void) ALIAS(Default_Handler);
  86:../startup_LPC17xx.c **** void I2C0_IRQHandler(void) ALIAS(Default_Handler);
  87:../startup_LPC17xx.c **** void I2C1_IRQHandler(void) ALIAS(Default_Handler);
  88:../startup_LPC17xx.c **** void I2C2_IRQHandler(void) ALIAS(Default_Handler);
  89:../startup_LPC17xx.c **** void SPI_IRQHandler(void) ALIAS(Default_Handler);
  90:../startup_LPC17xx.c **** void SSP0_IRQHandler(void) ALIAS(Default_Handler);
  91:../startup_LPC17xx.c **** void SSP1_IRQHandler(void) ALIAS(Default_Handler);
  92:../startup_LPC17xx.c **** void PLL0_IRQHandler(void) ALIAS(Default_Handler);
  93:../startup_LPC17xx.c **** void RTC_IRQHandler(void) ALIAS(Default_Handler);
  94:../startup_LPC17xx.c **** void EINT0_IRQHandler(void) ALIAS(Default_Handler);
  95:../startup_LPC17xx.c **** void EINT1_IRQHandler(void) ALIAS(Default_Handler);
  96:../startup_LPC17xx.c **** void EINT2_IRQHandler(void) ALIAS(Default_Handler);
  97:../startup_LPC17xx.c **** void EINT3_IRQHandler(void) ALIAS(Default_Handler);
  98:../startup_LPC17xx.c **** void ADC_IRQHandler(void) ALIAS(Default_Handler);
  99:../startup_LPC17xx.c **** void BOD_IRQHandler(void) ALIAS(Default_Handler);
 100:../startup_LPC17xx.c **** void USB_IRQHandler(void) ALIAS(Default_Handler);
 101:../startup_LPC17xx.c **** void CAN_IRQHandler(void) ALIAS(Default_Handler);
 102:../startup_LPC17xx.c **** void DMA_IRQHandler(void) ALIAS(Default_Handler);
 103:../startup_LPC17xx.c **** void I2S_IRQHandler(void) ALIAS(Default_Handler);
 104:../startup_LPC17xx.c **** void ENET_IRQHandler(void) ALIAS(Default_Handler);
 105:../startup_LPC17xx.c **** void RIT_IRQHandler(void) ALIAS(Default_Handler);
 106:../startup_LPC17xx.c **** void MCPWM_IRQHandler(void) ALIAS(Default_Handler);
 107:../startup_LPC17xx.c **** void QEI_IRQHandler(void) ALIAS(Default_Handler);
 108:../startup_LPC17xx.c **** void PLL1_IRQHandler(void) ALIAS(Default_Handler);
 109:../startup_LPC17xx.c **** void USBActivity_IRQHandler(void) ALIAS(Default_Handler);
 110:../startup_LPC17xx.c **** void CANActivity_IRQHandler(void) ALIAS(Default_Handler);
 111:../startup_LPC17xx.c **** 
 112:../startup_LPC17xx.c **** /* Private functions ---------------------------------------------------------*/
 113:../startup_LPC17xx.c **** /******************************************************************************
 114:../startup_LPC17xx.c **** *
 115:../startup_LPC17xx.c **** * The minimal vector table for a Cortex M3.  Note that the proper constructs
 116:../startup_LPC17xx.c **** * must be placed on this to ensure that it ends up at physical address
 117:../startup_LPC17xx.c **** * 0x0000.0000.
 118:../startup_LPC17xx.c **** *
 119:../startup_LPC17xx.c **** ******************************************************************************/
 120:../startup_LPC17xx.c **** 
 121:../startup_LPC17xx.c **** __attribute__ ((section(".isr_vector")))
 122:../startup_LPC17xx.c **** void (* const g_pfnVectors[])(void) =
 123:../startup_LPC17xx.c **** {      
 124:../startup_LPC17xx.c ****     (intfunc)((unsigned long)&_estack), /* The initial stack pointer */
 125:../startup_LPC17xx.c ****     Reset_Handler,              /* Reset Handler */
 126:../startup_LPC17xx.c ****     NMI_Handler,                /* NMI Handler */
 127:../startup_LPC17xx.c ****     HardFault_Handler,          /* Hard Fault Handler */
 128:../startup_LPC17xx.c ****     MemManage_Handler,          /* MPU Fault Handler */
 129:../startup_LPC17xx.c ****     BusFault_Handler,           /* Bus Fault Handler */
 130:../startup_LPC17xx.c ****     UsageFault_Handler,         /* Usage Fault Handler */
 131:../startup_LPC17xx.c ****     0,                          /* Reserved */
 132:../startup_LPC17xx.c ****     0,                          /* Reserved */
 133:../startup_LPC17xx.c ****     0,                          /* Reserved */
 134:../startup_LPC17xx.c ****     0,                          /* Reserved */
 135:../startup_LPC17xx.c **** 
 136:../startup_LPC17xx.c **** #if !STARTUP_FREERTOS
 137:../startup_LPC17xx.c ****     SVC_Handler,                /* SVCall Handler */
 138:../startup_LPC17xx.c **** #else
 139:../startup_LPC17xx.c ****     // for FreeRTOS
 140:../startup_LPC17xx.c ****     vPortSVCHandler,
 141:../startup_LPC17xx.c **** #endif
 142:../startup_LPC17xx.c **** 
 143:../startup_LPC17xx.c ****     DebugMon_Handler,           /* Debug Monitor Handler */
 144:../startup_LPC17xx.c ****     0,                          /* Reserved */
 145:../startup_LPC17xx.c **** 
 146:../startup_LPC17xx.c **** #if !STARTUP_FREERTOS
 147:../startup_LPC17xx.c ****     PendSV_Handler,             /* PendSV Handler */
 148:../startup_LPC17xx.c ****     SysTick_Handler,            /* SysTick Handler */
 149:../startup_LPC17xx.c **** #else
 150:../startup_LPC17xx.c ****     // for FreeRTOS
 151:../startup_LPC17xx.c ****     xPortPendSVHandler,
 152:../startup_LPC17xx.c ****     xPortSysTickHandler,
 153:../startup_LPC17xx.c **** #endif
 154:../startup_LPC17xx.c **** 
 155:../startup_LPC17xx.c ****     /* External Interrupts */
 156:../startup_LPC17xx.c ****     WDT_IRQHandler,                         // 16, 0x40 - WDT
 157:../startup_LPC17xx.c ****     TIMER0_IRQHandler,                      // 17, 0x44 - TIMER0
 158:../startup_LPC17xx.c ****     TIMER1_IRQHandler,                      // 18, 0x48 - TIMER1
 159:../startup_LPC17xx.c ****     TIMER2_IRQHandler,                      // 19, 0x4c - TIMER2
 160:../startup_LPC17xx.c ****     TIMER3_IRQHandler,                      // 20, 0x50 - TIMER3
 161:../startup_LPC17xx.c ****     UART0_IRQHandler,                       // 21, 0x54 - UART0
 162:../startup_LPC17xx.c ****     UART1_IRQHandler,                       // 22, 0x58 - UART1
 163:../startup_LPC17xx.c ****     UART2_IRQHandler,                       // 23, 0x5c - UART2
 164:../startup_LPC17xx.c ****     UART3_IRQHandler,                       // 24, 0x60 - UART3
 165:../startup_LPC17xx.c ****     PWM1_IRQHandler,                        // 25, 0x64 - PWM1
 166:../startup_LPC17xx.c ****     I2C0_IRQHandler,                        // 26, 0x68 - I2C0
 167:../startup_LPC17xx.c ****     I2C1_IRQHandler,                        // 27, 0x6c - I2C1
 168:../startup_LPC17xx.c ****     I2C2_IRQHandler,                        // 28, 0x70 - I2C2
 169:../startup_LPC17xx.c ****     SPI_IRQHandler,                         // 29, 0x74 - SPI
 170:../startup_LPC17xx.c ****     SSP0_IRQHandler,                        // 30, 0x78 - SSP0
 171:../startup_LPC17xx.c ****     SSP1_IRQHandler,                        // 31, 0x7c - SSP1
 172:../startup_LPC17xx.c ****     PLL0_IRQHandler,                        // 32, 0x80 - PLL0 (Main PLL)
 173:../startup_LPC17xx.c ****     RTC_IRQHandler,                         // 33, 0x84 - RTC
 174:../startup_LPC17xx.c ****     EINT0_IRQHandler,                       // 34, 0x88 - EINT0
 175:../startup_LPC17xx.c ****     EINT1_IRQHandler,                       // 35, 0x8c - EINT1
 176:../startup_LPC17xx.c ****     EINT2_IRQHandler,                       // 36, 0x90 - EINT2
 177:../startup_LPC17xx.c ****     EINT3_IRQHandler,                       // 37, 0x94 - EINT3
 178:../startup_LPC17xx.c ****     ADC_IRQHandler,                         // 38, 0x98 - ADC
 179:../startup_LPC17xx.c ****     BOD_IRQHandler,                         // 39, 0x9c - BOD
 180:../startup_LPC17xx.c ****     USB_IRQHandler,                         // 40, 0xA0 - USB
 181:../startup_LPC17xx.c ****     CAN_IRQHandler,                         // 41, 0xa4 - CAN
 182:../startup_LPC17xx.c ****     DMA_IRQHandler,                         // 42, 0xa8 - GP DMA
 183:../startup_LPC17xx.c ****     I2S_IRQHandler,                         // 43, 0xac - I2S
 184:../startup_LPC17xx.c ****     ENET_IRQHandler,                        // 44, 0xb0 - Ethernet
 185:../startup_LPC17xx.c ****     RIT_IRQHandler,                         // 45, 0xb4 - RITINT
 186:../startup_LPC17xx.c ****     MCPWM_IRQHandler,                       // 46, 0xb8 - Motor Control PWM
 187:../startup_LPC17xx.c ****     QEI_IRQHandler,                         // 47, 0xbc - Quadrature Encoder
 188:../startup_LPC17xx.c ****     PLL1_IRQHandler,                        // 48, 0xc0 - PLL1 (USB PLL)
 189:../startup_LPC17xx.c ****     USBActivity_IRQHandler,                 // 49, 0xc4 - USB Activity interrupt to wakeup
 190:../startup_LPC17xx.c ****     CANActivity_IRQHandler,                 // 50, 0xc8 - CAN Activity interrupt to wakeup
 191:../startup_LPC17xx.c **** };
 192:../startup_LPC17xx.c **** 
 193:../startup_LPC17xx.c **** /**
 194:../startup_LPC17xx.c ****  * @brief  This is the code that gets called when the processor first
 195:../startup_LPC17xx.c ****  *          starts execution following a reset event. Only the absolutely
 196:../startup_LPC17xx.c ****  *          necessary set is performed, after which the application
 197:../startup_LPC17xx.c ****  *          supplied main() routine is called.
 198:../startup_LPC17xx.c ****  * @param  None
 199:../startup_LPC17xx.c ****  * @retval : None
 200:../startup_LPC17xx.c **** */
 201:../startup_LPC17xx.c **** 
 202:../startup_LPC17xx.c **** void Reset_Handler(void)
 203:../startup_LPC17xx.c **** {
  84              		.loc 1 203 0
  85              		.cfi_startproc
  86              		@ Stack Align: May be called with mis-aligned SP.
  87              		@ args = 0, pretend = 0, frame = 8
  88              		@ frame_needed = 1, uses_anonymous_args = 0
  89 0000 6846     		mov	r0, sp
  90              		.cfi_register 13, 0
  91 0002 20F00701 		bic	r1, r0, #7
  92 0006 8D46     		mov	sp, r1
  93 0008 81B5     		push	{r0, r7, lr}
  94              	.LCFI0:
  95              		.cfi_def_cfa_offset 12
  96              		.cfi_offset 13, -12
  97              		.cfi_offset 7, -8
  98              		.cfi_offset 14, -4
  99 000a 83B0     		sub	sp, sp, #12
 100              	.LCFI1:
 101              		.cfi_def_cfa_offset 24
 102 000c 00AF     		add	r7, sp, #0
 103              	.LCFI2:
 104              		.cfi_def_cfa_register 7
 204:../startup_LPC17xx.c ****   /* Initialize data and bss */
 205:../startup_LPC17xx.c ****   unsigned long *pulSrc, *pulDest;
 206:../startup_LPC17xx.c **** 
 207:../startup_LPC17xx.c ****   /* Copy the data segment initializers from flash to SRAM */
 208:../startup_LPC17xx.c ****   pulSrc = &_sidata;
 105              		.loc 1 208 0
 106 000e 40F20003 		movw	r3, #:lower16:_sidata
 107 0012 C0F20003 		movt	r3, #:upper16:_sidata
 108 0016 7B60     		str	r3, [r7, #4]
 209:../startup_LPC17xx.c **** 
 210:../startup_LPC17xx.c ****   for(pulDest = &_sdata; pulDest < &_edata; )
 109              		.loc 1 210 0
 110 0018 40F20003 		movw	r3, #:lower16:_sdata
 111 001c C0F20003 		movt	r3, #:upper16:_sdata
 112 0020 3B60     		str	r3, [r7, #0]
 113 0022 0BE0     		b	.L2
 114              	.L3:
 211:../startup_LPC17xx.c ****   {
 212:../startup_LPC17xx.c ****     *(pulDest++) = *(pulSrc++);
 115              		.loc 1 212 0
 116 0024 7B68     		ldr	r3, [r7, #4]
 117 0026 1A68     		ldr	r2, [r3, #0]
 118 0028 3B68     		ldr	r3, [r7, #0]
 119 002a 1A60     		str	r2, [r3, #0]
 120 002c 3B68     		ldr	r3, [r7, #0]
 121 002e 03F10403 		add	r3, r3, #4
 122 0032 3B60     		str	r3, [r7, #0]
 123 0034 7B68     		ldr	r3, [r7, #4]
 124 0036 03F10403 		add	r3, r3, #4
 125 003a 7B60     		str	r3, [r7, #4]
 126              	.L2:
 210:../startup_LPC17xx.c ****   for(pulDest = &_sdata; pulDest < &_edata; )
 127              		.loc 1 210 0 discriminator 1
 128 003c 3A68     		ldr	r2, [r7, #0]
 129 003e 40F20003 		movw	r3, #:lower16:_edata
 130 0042 C0F20003 		movt	r3, #:upper16:_edata
 131 0046 9A42     		cmp	r2, r3
 132 0048 ECD3     		bcc	.L3
 213:../startup_LPC17xx.c ****   }
 214:../startup_LPC17xx.c **** 
 215:../startup_LPC17xx.c ****   /* Zero fill the bss segment. */
 216:../startup_LPC17xx.c ****   for(pulDest = &_sbss; pulDest < &_ebss; )
 133              		.loc 1 216 0
 134 004a 40F20003 		movw	r3, #:lower16:_sbss
 135 004e C0F20003 		movt	r3, #:upper16:_sbss
 136 0052 3B60     		str	r3, [r7, #0]
 137 0054 07E0     		b	.L4
 138              	.L5:
 217:../startup_LPC17xx.c ****   {
 218:../startup_LPC17xx.c ****     *(pulDest++) = 0;
 139              		.loc 1 218 0
 140 0056 3B68     		ldr	r3, [r7, #0]
 141 0058 4FF00002 		mov	r2, #0
 142 005c 1A60     		str	r2, [r3, #0]
 143 005e 3B68     		ldr	r3, [r7, #0]
 144 0060 03F10403 		add	r3, r3, #4
 145 0064 3B60     		str	r3, [r7, #0]
 146              	.L4:
 216:../startup_LPC17xx.c ****   for(pulDest = &_sbss; pulDest < &_ebss; )
 147              		.loc 1 216 0 discriminator 1
 148 0066 3A68     		ldr	r2, [r7, #0]
 149 0068 40F20003 		movw	r3, #:lower16:_ebss
 150 006c C0F20003 		movt	r3, #:upper16:_ebss
 151 0070 9A42     		cmp	r2, r3
 152 0072 F0D3     		bcc	.L5
 219:../startup_LPC17xx.c ****   }
 220:../startup_LPC17xx.c **** 
 221:../startup_LPC17xx.c ****   /* Zero fill the bss_ahb segment. */
 222:../startup_LPC17xx.c ****   for(pulDest = &_sbss_ahb; pulDest < &_ebss_ahb; )
 153              		.loc 1 222 0
 154 0074 40F20003 		movw	r3, #:lower16:_sbss_ahb
 155 0078 C0F20003 		movt	r3, #:upper16:_sbss_ahb
 156 007c 3B60     		str	r3, [r7, #0]
 157 007e 07E0     		b	.L6
 158              	.L7:
 223:../startup_LPC17xx.c ****   {
 224:../startup_LPC17xx.c ****     *(pulDest++) = 0;
 159              		.loc 1 224 0
 160 0080 3B68     		ldr	r3, [r7, #0]
 161 0082 4FF00002 		mov	r2, #0
 162 0086 1A60     		str	r2, [r3, #0]
 163 0088 3B68     		ldr	r3, [r7, #0]
 164 008a 03F10403 		add	r3, r3, #4
 165 008e 3B60     		str	r3, [r7, #0]
 166              	.L6:
 222:../startup_LPC17xx.c ****   for(pulDest = &_sbss_ahb; pulDest < &_ebss_ahb; )
 167              		.loc 1 222 0 discriminator 1
 168 0090 3A68     		ldr	r2, [r7, #0]
 169 0092 40F20003 		movw	r3, #:lower16:_ebss_ahb
 170 0096 C0F20003 		movt	r3, #:upper16:_ebss_ahb
 171 009a 9A42     		cmp	r2, r3
 172 009c F0D3     		bcc	.L7
 225:../startup_LPC17xx.c ****   }
 226:../startup_LPC17xx.c **** 
 227:../startup_LPC17xx.c ****   /* Call the application's entry point.*/
 228:../startup_LPC17xx.c ****   SystemInit();
 173              		.loc 1 228 0
 174 009e FFF7FEFF 		bl	SystemInit
 229:../startup_LPC17xx.c ****   main();
 175              		.loc 1 229 0
 176 00a2 FFF7FEFF 		bl	main
 177              	.L8:
 230:../startup_LPC17xx.c **** 
 231:../startup_LPC17xx.c ****   //
 232:../startup_LPC17xx.c ****   // we should never reach this point
 233:../startup_LPC17xx.c ****   // however, wait endless...
 234:../startup_LPC17xx.c ****   //
 235:../startup_LPC17xx.c ****   while( 1 );
 178              		.loc 1 235 0 discriminator 1
 179 00a6 FEE7     		b	.L8
 180              		.cfi_endproc
 181              	.LFE0:
 183              		.align	2
 184              		.global	_init
 185              		.thumb
 186              		.thumb_func
 188              	_init:
 189              	.LFB1:
 236:../startup_LPC17xx.c **** }
 237:../startup_LPC17xx.c **** 
 238:../startup_LPC17xx.c **** // dummy for newer gcc versions
 239:../startup_LPC17xx.c **** void _init()
 240:../startup_LPC17xx.c **** {
 190              		.loc 1 240 0
 191              		.cfi_startproc
 192              		@ args = 0, pretend = 0, frame = 0
 193              		@ frame_needed = 1, uses_anonymous_args = 0
 194              		@ link register save eliminated.
 195 00a8 80B4     		push	{r7}
 196              	.LCFI3:
 197              		.cfi_def_cfa_offset 4
 198              		.cfi_offset 7, -4
 199 00aa 00AF     		add	r7, sp, #0
 200              	.LCFI4:
 201              		.cfi_def_cfa_register 7
 241:../startup_LPC17xx.c **** }
 202              		.loc 1 241 0
 203 00ac BD46     		mov	sp, r7
 204 00ae 80BC     		pop	{r7}
 205 00b0 7047     		bx	lr
 206              		.cfi_endproc
 207              	.LFE1:
 209 00b2 00BF     		.align	2
 210              		.weak	Default_Handler
 211              		.thumb
 212              		.thumb_func
 214              	Default_Handler:
 215              	.LFB2:
 242:../startup_LPC17xx.c **** 
 243:../startup_LPC17xx.c **** /*******************************************************************************
 244:../startup_LPC17xx.c **** *
 245:../startup_LPC17xx.c **** * Provide weak aliases for each Exception handler to the Default_Handler.
 246:../startup_LPC17xx.c **** * As they are weak aliases, any function with the same name will override
 247:../startup_LPC17xx.c **** * this definition.
 248:../startup_LPC17xx.c **** *
 249:../startup_LPC17xx.c **** *******************************************************************************/
 250:../startup_LPC17xx.c **** #pragma weak NMI_Handler = Default_Handler
 251:../startup_LPC17xx.c **** #pragma weak MemManage_Handler = Default_Handler
 252:../startup_LPC17xx.c **** #pragma weak BusFault_Handler = Default_Handler
 253:../startup_LPC17xx.c **** #pragma weak HardFault_Handler = Default_Handler
 254:../startup_LPC17xx.c **** #pragma weak UsageFault_Handler = Default_Handler
 255:../startup_LPC17xx.c **** #pragma weak SVC_Handler = Default_Handler
 256:../startup_LPC17xx.c **** #pragma weak DebugMon_Handler = Default_Handler
 257:../startup_LPC17xx.c **** #pragma weak PendSV_Handler = Default_Handler
 258:../startup_LPC17xx.c **** #pragma weak SysTick_Handler = Default_Handler
 259:../startup_LPC17xx.c **** 
 260:../startup_LPC17xx.c **** /**
 261:../startup_LPC17xx.c ****  * @brief  This is the code that gets called when the processor receives an
 262:../startup_LPC17xx.c ****  *         unexpected interrupt.  This simply enters an infinite loop, preserving
 263:../startup_LPC17xx.c ****  *         the system state for examination by a debugger.
 264:../startup_LPC17xx.c ****  *
 265:../startup_LPC17xx.c ****  * @param  None    
 266:../startup_LPC17xx.c ****  * @retval : None      
 267:../startup_LPC17xx.c **** */
 268:../startup_LPC17xx.c **** 
 269:../startup_LPC17xx.c **** void Default_Handler(void)
 270:../startup_LPC17xx.c **** {
 216              		.loc 1 270 0
 217              		.cfi_startproc
 218              		@ args = 0, pretend = 0, frame = 0
 219              		@ frame_needed = 1, uses_anonymous_args = 0
 220              		@ link register save eliminated.
 221 00b4 80B4     		push	{r7}
 222              	.LCFI5:
 223              		.cfi_def_cfa_offset 4
 224              		.cfi_offset 7, -4
 225 00b6 00AF     		add	r7, sp, #0
 226              	.LCFI6:
 227              		.cfi_def_cfa_register 7
 228              	.L11:
 271:../startup_LPC17xx.c ****   /* Go into an infinite loop. */
 272:../startup_LPC17xx.c ****   while (1)
 273:../startup_LPC17xx.c ****   {
 274:../startup_LPC17xx.c ****     // TK: TODO - insert an error notification here
 275:../startup_LPC17xx.c ****     // We could send a debug message via USB, but this could be critical if there is
 276:../startup_LPC17xx.c ****     // an issue in the MIDI or USB handler or related application hooks
 277:../startup_LPC17xx.c ****     //
 278:../startup_LPC17xx.c ****     // Alternatively we could flash the On-Board LED - it's safe!
 279:../startup_LPC17xx.c ****   }
 229              		.loc 1 279 0 discriminator 1
 230 00b8 FEE7     		b	.L11
 231              		.cfi_endproc
 232              	.LFE2:
 234              		.weak	TIMER0_IRQHandler
 235              		.thumb_set TIMER0_IRQHandler,Default_Handler
 236              		.weak	TIMER1_IRQHandler
 237              		.thumb_set TIMER1_IRQHandler,Default_Handler
 238              		.weak	TIMER2_IRQHandler
 239              		.thumb_set TIMER2_IRQHandler,Default_Handler
 240              		.weak	TIMER3_IRQHandler
 241              		.thumb_set TIMER3_IRQHandler,Default_Handler
 242              		.weak	UART0_IRQHandler
 243              		.thumb_set UART0_IRQHandler,Default_Handler
 244              		.weak	UART1_IRQHandler
 245              		.thumb_set UART1_IRQHandler,Default_Handler
 246              		.weak	UART2_IRQHandler
 247              		.thumb_set UART2_IRQHandler,Default_Handler
 248              		.weak	UART3_IRQHandler
 249              		.thumb_set UART3_IRQHandler,Default_Handler
 250              		.weak	PWM1_IRQHandler
 251              		.thumb_set PWM1_IRQHandler,Default_Handler
 252              		.weak	I2C0_IRQHandler
 253              		.thumb_set I2C0_IRQHandler,Default_Handler
 254              		.weak	I2C1_IRQHandler
 255              		.thumb_set I2C1_IRQHandler,Default_Handler
 256              		.weak	I2C2_IRQHandler
 257              		.thumb_set I2C2_IRQHandler,Default_Handler
 258              		.weak	SPI_IRQHandler
 259              		.thumb_set SPI_IRQHandler,Default_Handler
 260              		.weak	SSP0_IRQHandler
 261              		.thumb_set SSP0_IRQHandler,Default_Handler
 262              		.weak	SSP1_IRQHandler
 263              		.thumb_set SSP1_IRQHandler,Default_Handler
 264              		.weak	PLL0_IRQHandler
 265              		.thumb_set PLL0_IRQHandler,Default_Handler
 266              		.weak	RTC_IRQHandler
 267              		.thumb_set RTC_IRQHandler,Default_Handler
 268              		.weak	EINT0_IRQHandler
 269              		.thumb_set EINT0_IRQHandler,Default_Handler
 270              		.weak	EINT1_IRQHandler
 271              		.thumb_set EINT1_IRQHandler,Default_Handler
 272              		.weak	EINT2_IRQHandler
 273              		.thumb_set EINT2_IRQHandler,Default_Handler
 274              		.weak	EINT3_IRQHandler
 275              		.thumb_set EINT3_IRQHandler,Default_Handler
 276              		.weak	ADC_IRQHandler
 277              		.thumb_set ADC_IRQHandler,Default_Handler
 278              		.weak	BOD_IRQHandler
 279              		.thumb_set BOD_IRQHandler,Default_Handler
 280              		.weak	USB_IRQHandler
 281              		.thumb_set USB_IRQHandler,Default_Handler
 282              		.weak	CAN_IRQHandler
 283              		.thumb_set CAN_IRQHandler,Default_Handler
 284              		.weak	DMA_IRQHandler
 285              		.thumb_set DMA_IRQHandler,Default_Handler
 286              		.weak	I2S_IRQHandler
 287              		.thumb_set I2S_IRQHandler,Default_Handler
 288              		.weak	ENET_IRQHandler
 289              		.thumb_set ENET_IRQHandler,Default_Handler
 290              		.weak	RIT_IRQHandler
 291              		.thumb_set RIT_IRQHandler,Default_Handler
 292              		.weak	MCPWM_IRQHandler
 293              		.thumb_set MCPWM_IRQHandler,Default_Handler
 294              		.weak	QEI_IRQHandler
 295              		.thumb_set QEI_IRQHandler,Default_Handler
 296              		.weak	PLL1_IRQHandler
 297              		.thumb_set PLL1_IRQHandler,Default_Handler
 298              		.weak	USBActivity_IRQHandler
 299              		.thumb_set USBActivity_IRQHandler,Default_Handler
 300              		.weak	CANActivity_IRQHandler
 301              		.thumb_set CANActivity_IRQHandler,Default_Handler
 302              		.weak	NMI_Handler
 303              		.thumb_set NMI_Handler,Default_Handler
 304              		.weak	MemManage_Handler
 305              		.thumb_set MemManage_Handler,Default_Handler
 306              		.weak	BusFault_Handler
 307              		.thumb_set BusFault_Handler,Default_Handler
 308              		.weak	HardFault_Handler
 309              		.thumb_set HardFault_Handler,Default_Handler
 310              		.weak	UsageFault_Handler
 311              		.thumb_set UsageFault_Handler,Default_Handler
 312              		.weak	SVC_Handler
 313              		.thumb_set SVC_Handler,Default_Handler
 314              		.weak	DebugMon_Handler
 315              		.thumb_set DebugMon_Handler,Default_Handler
 316              		.weak	PendSV_Handler
 317              		.thumb_set PendSV_Handler,Default_Handler
 318              		.weak	SysTick_Handler
 319              		.thumb_set SysTick_Handler,Default_Handler
 320              		.weak	WDT_IRQHandler
 321              		.thumb_set WDT_IRQHandler,Default_Handler
 322              	.Letext0: