   1              		.syntax unified
   2              		.cpu cortex-m3
   3              		.fpu softvfp
   4              		.eabi_attribute 20, 1
   5              		.eabi_attribute 21, 1
   6              		.eabi_attribute 23, 3
   7              		.eabi_attribute 24, 1
   8              		.eabi_attribute 25, 1
   9              		.eabi_attribute 26, 1
  10              		.eabi_attribute 30, 4
  11              		.eabi_attribute 34, 1
  12              		.eabi_attribute 18, 4
  13              		.thumb
  14              		.file	"lpc_ssp_glcd.c"
  15              		.text
  16              	.Ltext0:
  17              		.cfi_sections	.debug_frame
  18              		.align	1
  19              		.thumb
  20              		.thumb_func
  22              	wr_dat_start:
  23              	.LFB65:
  24              		.file 1 "../Source Files/lpc_ssp_glcd.c"
   1:../Source Files/lpc_ssp_glcd.c **** /**********************************************************************
   2:../Source Files/lpc_ssp_glcd.c **** * $Id$		lpc_ssp_glcd.c
   3:../Source Files/lpc_ssp_glcd.c **** *//**
   4:../Source Files/lpc_ssp_glcd.c **** * @file		lpc_ssp_glcd.c
   5:../Source Files/lpc_ssp_glcd.c **** * @brief	Contains all functions support for SSP based GLCD
   6:../Source Files/lpc_ssp_glcd.c **** *           library on LPC17xx
   7:../Source Files/lpc_ssp_glcd.c **** * @version	1.0
   8:../Source Files/lpc_ssp_glcd.c **** * @date		18. Dec. 2013
   9:../Source Files/lpc_ssp_glcd.c **** * @author	Dwijay.Edutech Learning Solutions
  10:../Source Files/lpc_ssp_glcd.c **** ***********************************************************************
  11:../Source Files/lpc_ssp_glcd.c **** * Software that is described herein is for illustrative purposes only
  12:../Source Files/lpc_ssp_glcd.c **** * which provides customers with programming information regarding the
  13:../Source Files/lpc_ssp_glcd.c **** * products. This software is supplied "AS IS" without any warranties.
  14:../Source Files/lpc_ssp_glcd.c **** * NXP Semiconductors assumes no responsibility or liability for the
  15:../Source Files/lpc_ssp_glcd.c **** * use of the software, conveys no license or title under any patent,
  16:../Source Files/lpc_ssp_glcd.c **** * copyright, or mask work right to the product. NXP Semiconductors
  17:../Source Files/lpc_ssp_glcd.c **** * reserves the right to make changes in the software without
  18:../Source Files/lpc_ssp_glcd.c **** * notification. NXP Semiconductors also make no representation or
  19:../Source Files/lpc_ssp_glcd.c **** * warranty that such application will be suitable for the specified
  20:../Source Files/lpc_ssp_glcd.c **** * use without further testing or modification.
  21:../Source Files/lpc_ssp_glcd.c **** **********************************************************************/
  22:../Source Files/lpc_ssp_glcd.c **** 
  23:../Source Files/lpc_ssp_glcd.c **** /* Peripheral group ----------------------------------------------------------- */
  24:../Source Files/lpc_ssp_glcd.c **** /** @addtogroup GLCD
  25:../Source Files/lpc_ssp_glcd.c ****  * @{
  26:../Source Files/lpc_ssp_glcd.c ****  */
  27:../Source Files/lpc_ssp_glcd.c **** 
  28:../Source Files/lpc_ssp_glcd.c **** /* Includes ------------------------------------------------------------------- */
  29:../Source Files/lpc_ssp_glcd.c **** #include "lpc_ssp_glcd.h"
  30:../Source Files/lpc_ssp_glcd.c **** #include "math.h"
  31:../Source Files/lpc_ssp_glcd.c **** #include "Font_24x16.h"
  32:../Source Files/lpc_ssp_glcd.c **** #include "Font_5x7.h"
  33:../Source Files/lpc_ssp_glcd.c **** 
  34:../Source Files/lpc_ssp_glcd.c **** 
  35:../Source Files/lpc_ssp_glcd.c **** /* If this source file built with example, the LPC17xx FW library configuration
  36:../Source Files/lpc_ssp_glcd.c ****  * file in each example directory ("lpc17xx_libcfg.h") must be included,
  37:../Source Files/lpc_ssp_glcd.c ****  * otherwise the default FW library configuration file must be included instead
  38:../Source Files/lpc_ssp_glcd.c ****  */
  39:../Source Files/lpc_ssp_glcd.c **** 
  40:../Source Files/lpc_ssp_glcd.c **** /******************************************************************************/
  41:../Source Files/lpc_ssp_glcd.c **** static volatile uint16_t TextColor = Black, BackColor = White;
  42:../Source Files/lpc_ssp_glcd.c **** 
  43:../Source Files/lpc_ssp_glcd.c **** // Swap two bytes
  44:../Source Files/lpc_ssp_glcd.c **** #define SWAP(x,y) do { (x)=(x)^(y); (y)=(x)^(y); (x)=(x)^(y); } while(0)
  45:../Source Files/lpc_ssp_glcd.c **** #define bit_test(D,i) (D & (0x01 << i))
  46:../Source Files/lpc_ssp_glcd.c **** 
  47:../Source Files/lpc_ssp_glcd.c **** /** @addtogroup GLCD_Public_Functions
  48:../Source Files/lpc_ssp_glcd.c ****  * @{
  49:../Source Files/lpc_ssp_glcd.c ****  */
  50:../Source Files/lpc_ssp_glcd.c **** 
  51:../Source Files/lpc_ssp_glcd.c **** /* Public Functions ----------------------------------------------------------- */
  52:../Source Files/lpc_ssp_glcd.c **** 
  53:../Source Files/lpc_ssp_glcd.c **** /*********************************************************************//**
  54:../Source Files/lpc_ssp_glcd.c ****  * @brief	    This function controls Backlight
  55:../Source Files/lpc_ssp_glcd.c ****  * @param[in]	NewState	ENABLE/DISABLE the Backlight
  56:../Source Files/lpc_ssp_glcd.c ****  * @return 		None
  57:../Source Files/lpc_ssp_glcd.c ****  **********************************************************************/
  58:../Source Files/lpc_ssp_glcd.c **** void GLCD_Backlight (FunctionalState NewState)
  59:../Source Files/lpc_ssp_glcd.c **** {
  60:../Source Files/lpc_ssp_glcd.c **** 	if(NewState)
  61:../Source Files/lpc_ssp_glcd.c **** 	{
  62:../Source Files/lpc_ssp_glcd.c **** 		GPIO_SetValue(2, LCD_BK);
  63:../Source Files/lpc_ssp_glcd.c **** 	}
  64:../Source Files/lpc_ssp_glcd.c **** 	else
  65:../Source Files/lpc_ssp_glcd.c **** 	{
  66:../Source Files/lpc_ssp_glcd.c **** 		GPIO_ClearValue(2, LCD_BK);
  67:../Source Files/lpc_ssp_glcd.c **** 	}
  68:../Source Files/lpc_ssp_glcd.c **** }
  69:../Source Files/lpc_ssp_glcd.c **** 
  70:../Source Files/lpc_ssp_glcd.c **** 
  71:../Source Files/lpc_ssp_glcd.c **** /*********************************************************************//**
  72:../Source Files/lpc_ssp_glcd.c ****  * @brief	    This function resets GLCD
  73:../Source Files/lpc_ssp_glcd.c ****  * @param[in]	None
  74:../Source Files/lpc_ssp_glcd.c ****  * @return 		None
  75:../Source Files/lpc_ssp_glcd.c ****  **********************************************************************/
  76:../Source Files/lpc_ssp_glcd.c **** void GLCD_Reset (void)
  77:../Source Files/lpc_ssp_glcd.c **** {
  78:../Source Files/lpc_ssp_glcd.c **** 	GPIO_SetValue(0, LCD_RST);
  79:../Source Files/lpc_ssp_glcd.c **** 	delay_ms(2);
  80:../Source Files/lpc_ssp_glcd.c **** 	GPIO_ClearValue(0, LCD_RST);  //reset low
  81:../Source Files/lpc_ssp_glcd.c **** 	delay_ms(4);
  82:../Source Files/lpc_ssp_glcd.c **** 	GPIO_SetValue(0, LCD_RST);  //reset low
  83:../Source Files/lpc_ssp_glcd.c **** }
  84:../Source Files/lpc_ssp_glcd.c **** 
  85:../Source Files/lpc_ssp_glcd.c **** 
  86:../Source Files/lpc_ssp_glcd.c **** /*********************************************************************//**
  87:../Source Files/lpc_ssp_glcd.c ****  * @brief	    This function controls GLCD Output
  88:../Source Files/lpc_ssp_glcd.c ****  * @param[in]	drv	    Output Format
  89:../Source Files/lpc_ssp_glcd.c ****  * 						- TOP_LEFT
  90:../Source Files/lpc_ssp_glcd.c ****  * 						- TOP_RIGHT
  91:../Source Files/lpc_ssp_glcd.c ****  * 						- BOTTOM_LEFT
  92:../Source Files/lpc_ssp_glcd.c ****  * 						- BOTTOM_RIGHT
  93:../Source Files/lpc_ssp_glcd.c ****  * @return 		None
  94:../Source Files/lpc_ssp_glcd.c ****  **********************************************************************/
  95:../Source Files/lpc_ssp_glcd.c **** void GLCD_Driver_OutCtrl (DRIVER_OUT_Type drv)
  96:../Source Files/lpc_ssp_glcd.c **** {
  97:../Source Files/lpc_ssp_glcd.c **** 	Write_Command_Glcd(0x01);    // Driver Output Control
  98:../Source Files/lpc_ssp_glcd.c **** 
  99:../Source Files/lpc_ssp_glcd.c **** 	switch (drv)
 100:../Source Files/lpc_ssp_glcd.c **** 	{
 101:../Source Files/lpc_ssp_glcd.c **** 	case TOP_LEFT:
 102:../Source Files/lpc_ssp_glcd.c **** 		Write_Data_Glcd(0x72EF);       // Page 36-39 of SSD2119 datasheet
 103:../Source Files/lpc_ssp_glcd.c **** 		break;
 104:../Source Files/lpc_ssp_glcd.c **** 
 105:../Source Files/lpc_ssp_glcd.c **** 	case TOP_RIGHT:
 106:../Source Files/lpc_ssp_glcd.c **** 		Write_Data_Glcd(0x70EF);       // Page 36-39 of SSD2119 datasheet
 107:../Source Files/lpc_ssp_glcd.c **** 		break;
 108:../Source Files/lpc_ssp_glcd.c **** 
 109:../Source Files/lpc_ssp_glcd.c **** 	case BOTTOM_LEFT:
 110:../Source Files/lpc_ssp_glcd.c **** 		Write_Data_Glcd(0x32EF);       // Page 36-39 of SSD2119 datasheet
 111:../Source Files/lpc_ssp_glcd.c **** 		break;
 112:../Source Files/lpc_ssp_glcd.c **** 
 113:../Source Files/lpc_ssp_glcd.c **** 	case BOTTOM_RIGHT:
 114:../Source Files/lpc_ssp_glcd.c **** 		Write_Data_Glcd(0x30EF);       // Page 36-39 of SSD2119 datasheet
 115:../Source Files/lpc_ssp_glcd.c **** 		break;
 116:../Source Files/lpc_ssp_glcd.c **** 
 117:../Source Files/lpc_ssp_glcd.c **** 	default:
 118:../Source Files/lpc_ssp_glcd.c **** 		break;
 119:../Source Files/lpc_ssp_glcd.c **** 	}
 120:../Source Files/lpc_ssp_glcd.c **** }
 121:../Source Files/lpc_ssp_glcd.c **** 
 122:../Source Files/lpc_ssp_glcd.c **** 
 123:../Source Files/lpc_ssp_glcd.c **** /*********************************************************************//**
 124:../Source Files/lpc_ssp_glcd.c ****  * @brief	    Set draw window region to required width and height
 125:../Source Files/lpc_ssp_glcd.c ****  *              as well as location
 126:../Source Files/lpc_ssp_glcd.c ****  * @param[in]	x        horizontal position
 127:../Source Files/lpc_ssp_glcd.c ****  *              y        vertical position
 128:../Source Files/lpc_ssp_glcd.c ****  *              w        width of bitmap
 129:../Source Files/lpc_ssp_glcd.c ****  *              h        height of bitmap
 130:../Source Files/lpc_ssp_glcd.c ****  * @return 		None
 131:../Source Files/lpc_ssp_glcd.c ****  **********************************************************************/
 132:../Source Files/lpc_ssp_glcd.c **** void GLCD_Window (uint16_t x, uint16_t y, uint16_t w, uint16_t h)
 133:../Source Files/lpc_ssp_glcd.c **** {
 134:../Source Files/lpc_ssp_glcd.c **** 	Write_Command_Glcd(0x45);      /* Horizontal GRAM Start Address      */
 135:../Source Files/lpc_ssp_glcd.c **** 	Write_Data_Glcd(x);
 136:../Source Files/lpc_ssp_glcd.c **** 
 137:../Source Files/lpc_ssp_glcd.c **** 	Write_Command_Glcd(0x46);      /* Horizontal GRAM End   Address (-1) */
 138:../Source Files/lpc_ssp_glcd.c **** 	Write_Data_Glcd(x+w-1);
 139:../Source Files/lpc_ssp_glcd.c **** 
 140:../Source Files/lpc_ssp_glcd.c **** 	Write_Command_Glcd(0x44);      /* Vertical   GRAM Start Address      */
 141:../Source Files/lpc_ssp_glcd.c **** 	Write_Data_Glcd(y);
 142:../Source Files/lpc_ssp_glcd.c **** 
 143:../Source Files/lpc_ssp_glcd.c **** 	Write_Command_Glcd(0x44);      /* Vertical   GRAM End   Address (-1) */
 144:../Source Files/lpc_ssp_glcd.c **** 	Write_Data_Glcd((y+h-1)<<8);
 145:../Source Files/lpc_ssp_glcd.c **** }
 146:../Source Files/lpc_ssp_glcd.c **** 
 147:../Source Files/lpc_ssp_glcd.c **** 
 148:../Source Files/lpc_ssp_glcd.c **** /*********************************************************************//**
 149:../Source Files/lpc_ssp_glcd.c ****  * @brief	    This function Sets Cursor to to desired location
 150:../Source Files/lpc_ssp_glcd.c ****  * @param[in]	x        horizontal position
 151:../Source Files/lpc_ssp_glcd.c ****  *              y        vertical position
 152:../Source Files/lpc_ssp_glcd.c ****  *              w        width of bitmap
 153:../Source Files/lpc_ssp_glcd.c ****  *              h        height of bitmap
 154:../Source Files/lpc_ssp_glcd.c ****  * @return 		None
 155:../Source Files/lpc_ssp_glcd.c ****  **********************************************************************/
 156:../Source Files/lpc_ssp_glcd.c **** void GLCD_Set_Loc (uint16_t x, uint16_t y, uint16_t w, uint16_t h)
 157:../Source Files/lpc_ssp_glcd.c **** {
 158:../Source Files/lpc_ssp_glcd.c **** 	GLCD_Window (x,y,w,h);
 159:../Source Files/lpc_ssp_glcd.c **** 
 160:../Source Files/lpc_ssp_glcd.c **** 	Write_Command_Glcd(0x4E);    // GDDRAM Horizontal
 161:../Source Files/lpc_ssp_glcd.c **** 	Write_Data_Glcd(x);       // Page 58 of SSD2119 datasheet
 162:../Source Files/lpc_ssp_glcd.c **** 
 163:../Source Files/lpc_ssp_glcd.c **** 	Write_Command_Glcd(0x4F);    // GDDRAM Vertical
 164:../Source Files/lpc_ssp_glcd.c **** 	Write_Data_Glcd(y);       // Page 58 of SSD2119 datasheet
 165:../Source Files/lpc_ssp_glcd.c **** 
 166:../Source Files/lpc_ssp_glcd.c **** 	Write_Command_Glcd(0x22);    // RAM data write/read
 167:../Source Files/lpc_ssp_glcd.c **** }
 168:../Source Files/lpc_ssp_glcd.c **** 
 169:../Source Files/lpc_ssp_glcd.c **** 
 170:../Source Files/lpc_ssp_glcd.c **** /*********************************************************************//**
 171:../Source Files/lpc_ssp_glcd.c ****  * @brief	    This function Sets Cursor to Home
 172:../Source Files/lpc_ssp_glcd.c ****  * @param[in]	None
 173:../Source Files/lpc_ssp_glcd.c ****  * @return 		None
 174:../Source Files/lpc_ssp_glcd.c ****  **********************************************************************/
 175:../Source Files/lpc_ssp_glcd.c **** void GLCD_Display_Home (void)
 176:../Source Files/lpc_ssp_glcd.c **** {
 177:../Source Files/lpc_ssp_glcd.c **** 	GLCD_Set_Loc (0,0,320,240);
 178:../Source Files/lpc_ssp_glcd.c **** }
 179:../Source Files/lpc_ssp_glcd.c **** 
 180:../Source Files/lpc_ssp_glcd.c **** 
 181:../Source Files/lpc_ssp_glcd.c **** /*********************************************************************//**
 182:../Source Files/lpc_ssp_glcd.c ****  * @brief	    This function Initializes GLCD
 183:../Source Files/lpc_ssp_glcd.c ****  * @param[in]	None
 184:../Source Files/lpc_ssp_glcd.c ****  * @return 		None
 185:../Source Files/lpc_ssp_glcd.c ****  **********************************************************************/
 186:../Source Files/lpc_ssp_glcd.c **** void GLCD_Init (void)
 187:../Source Files/lpc_ssp_glcd.c **** {
 188:../Source Files/lpc_ssp_glcd.c **** 	GPIO_SetDir(2, LCD_RS, 1);   // RS as output
 189:../Source Files/lpc_ssp_glcd.c **** 	GPIO_SetDir(0, LCD_RST, 1);  // Reset as Output
 190:../Source Files/lpc_ssp_glcd.c **** 	GPIO_SetDir(2, LCD_BK, 1);   // Backlight as output
 191:../Source Files/lpc_ssp_glcd.c **** 
 192:../Source Files/lpc_ssp_glcd.c **** 	delay_ms(2);
 193:../Source Files/lpc_ssp_glcd.c **** 	GLCD_Reset();                // Reset GLCD
 194:../Source Files/lpc_ssp_glcd.c **** 	GLCD_Backlight(ENABLE);
 195:../Source Files/lpc_ssp_glcd.c **** 	delay_ms(2);
 196:../Source Files/lpc_ssp_glcd.c **** 
 197:../Source Files/lpc_ssp_glcd.c **** 	Write_Command_Glcd(0x28);    // VCOM OTP
 198:../Source Files/lpc_ssp_glcd.c **** 	Write_Data_Glcd(0x0006);     // Page 55-56 of SSD2119 datasheet
 199:../Source Files/lpc_ssp_glcd.c **** 
 200:../Source Files/lpc_ssp_glcd.c **** 	Write_Command_Glcd(0x00);    // start Oscillator
 201:../Source Files/lpc_ssp_glcd.c **** 	Write_Data_Glcd(0x0001);     // Page 36 of SSD2119 datasheet
 202:../Source Files/lpc_ssp_glcd.c **** 
 203:../Source Files/lpc_ssp_glcd.c **** 	Write_Command_Glcd(0x10);    // Sleep mode
 204:../Source Files/lpc_ssp_glcd.c **** 	Write_Data_Glcd(0x0000);     // Page 49 of SSD2119 datasheet
 205:../Source Files/lpc_ssp_glcd.c **** 
 206:../Source Files/lpc_ssp_glcd.c **** 	GLCD_Driver_OutCtrl (TOP_LEFT);
 207:../Source Files/lpc_ssp_glcd.c **** 
 208:../Source Files/lpc_ssp_glcd.c **** 	Write_Command_Glcd(0x02);    // LCD Driving Waveform Control
 209:../Source Files/lpc_ssp_glcd.c **** 	Write_Data_Glcd(0x0600);     // Page 40-42 of SSD2119 datasheet
 210:../Source Files/lpc_ssp_glcd.c **** 
 211:../Source Files/lpc_ssp_glcd.c **** 	Write_Command_Glcd(0x03);    // Power Control 1
 212:../Source Files/lpc_ssp_glcd.c **** 	Write_Data_Glcd(0x6A38);     // Page 43-44 of SSD2119 datasheet 6A38
 213:../Source Files/lpc_ssp_glcd.c **** 
 214:../Source Files/lpc_ssp_glcd.c **** 	Write_Command_Glcd(0x11);    // Entry Mode
 215:../Source Files/lpc_ssp_glcd.c **** 	Write_Data_Glcd(0x6870);     // Page 50-52 of SSD2119 datasheet
 216:../Source Files/lpc_ssp_glcd.c **** 
 217:../Source Files/lpc_ssp_glcd.c **** 	Write_Command_Glcd(0x0F);    // Gate Scan Position
 218:../Source Files/lpc_ssp_glcd.c **** 	Write_Data_Glcd(0x0000);     // Page 49 of SSD2119 datasheet
 219:../Source Files/lpc_ssp_glcd.c **** 
 220:../Source Files/lpc_ssp_glcd.c **** 	Write_Command_Glcd(0x0B);    // Frame Cycle Control
 221:../Source Files/lpc_ssp_glcd.c **** 	Write_Data_Glcd(0x5308);     // Page 45 of SSD2119 datasheet
 222:../Source Files/lpc_ssp_glcd.c **** 
 223:../Source Files/lpc_ssp_glcd.c **** 	Write_Command_Glcd(0x0C);    // Power Control 2
 224:../Source Files/lpc_ssp_glcd.c **** 	Write_Data_Glcd(0x0003);     // Page 47 of SSD2119 datasheet
 225:../Source Files/lpc_ssp_glcd.c **** 
 226:../Source Files/lpc_ssp_glcd.c **** 	Write_Command_Glcd(0x0D);    // Power Control 3
 227:../Source Files/lpc_ssp_glcd.c **** 	Write_Data_Glcd(0x000A);     // Page 48 of SSD2119 datasheet
 228:../Source Files/lpc_ssp_glcd.c **** 
 229:../Source Files/lpc_ssp_glcd.c **** 	Write_Command_Glcd(0x0E);    // Power Control 4
 230:../Source Files/lpc_ssp_glcd.c **** 	Write_Data_Glcd(0x2E00);     // Page 48 of SSD2119 datasheet
 231:../Source Files/lpc_ssp_glcd.c **** 
 232:../Source Files/lpc_ssp_glcd.c **** 	Write_Command_Glcd(0x1E);    // Power Control 5
 233:../Source Files/lpc_ssp_glcd.c **** 	Write_Data_Glcd(0x00BE);     // Page 53 of SSD2119 datasheet
 234:../Source Files/lpc_ssp_glcd.c **** 
 235:../Source Files/lpc_ssp_glcd.c **** 	Write_Command_Glcd(0x25);    // Frame Frequency Control
 236:../Source Files/lpc_ssp_glcd.c **** 	Write_Data_Glcd(0x8000);     // Page 53 of SSD2119 datasheet  8000
 237:../Source Files/lpc_ssp_glcd.c **** 
 238:../Source Files/lpc_ssp_glcd.c **** 	Write_Command_Glcd(0x26);    // Analog setting
 239:../Source Files/lpc_ssp_glcd.c **** 	Write_Data_Glcd(0x7800);     // Page 54 of SSD2119 datasheet
 240:../Source Files/lpc_ssp_glcd.c **** 
 241:../Source Files/lpc_ssp_glcd.c **** 	Write_Command_Glcd(0x4E);    // Ram Address Set
 242:../Source Files/lpc_ssp_glcd.c **** 	Write_Data_Glcd(0x0000);     // Page 58 of SSD2119 datasheet
 243:../Source Files/lpc_ssp_glcd.c **** 
 244:../Source Files/lpc_ssp_glcd.c **** 	Write_Command_Glcd(0x4F);    // Ram Address Set
 245:../Source Files/lpc_ssp_glcd.c **** 	Write_Data_Glcd(0x0000);     // Page 58 of SSD2119 datasheet
 246:../Source Files/lpc_ssp_glcd.c **** 
 247:../Source Files/lpc_ssp_glcd.c **** 	Write_Command_Glcd(0x12);    // Sleep mode
 248:../Source Files/lpc_ssp_glcd.c **** 	Write_Data_Glcd(0x08D9);     // Page 49 of SSD2119 datasheet
 249:../Source Files/lpc_ssp_glcd.c **** 
 250:../Source Files/lpc_ssp_glcd.c **** 	// Gamma Control (R30h to R3Bh) -- Page 56 of SSD2119 datasheet
 251:../Source Files/lpc_ssp_glcd.c **** 	Write_Command_Glcd(0x30);
 252:../Source Files/lpc_ssp_glcd.c **** 	Write_Data_Glcd(0x0000);
 253:../Source Files/lpc_ssp_glcd.c **** 
 254:../Source Files/lpc_ssp_glcd.c **** 	Write_Command_Glcd(0x31);
 255:../Source Files/lpc_ssp_glcd.c **** 	Write_Data_Glcd(0x0104);
 256:../Source Files/lpc_ssp_glcd.c **** 
 257:../Source Files/lpc_ssp_glcd.c **** 	Write_Command_Glcd(0x32);
 258:../Source Files/lpc_ssp_glcd.c **** 	Write_Data_Glcd(0x0100);
 259:../Source Files/lpc_ssp_glcd.c **** 
 260:../Source Files/lpc_ssp_glcd.c **** 	Write_Command_Glcd(0x33);
 261:../Source Files/lpc_ssp_glcd.c **** 	Write_Data_Glcd(0x0305);
 262:../Source Files/lpc_ssp_glcd.c **** 
 263:../Source Files/lpc_ssp_glcd.c **** 	Write_Command_Glcd(0x34);
 264:../Source Files/lpc_ssp_glcd.c **** 	Write_Data_Glcd(0x0505);
 265:../Source Files/lpc_ssp_glcd.c **** 
 266:../Source Files/lpc_ssp_glcd.c **** 	Write_Command_Glcd(0x35);
 267:../Source Files/lpc_ssp_glcd.c **** 	Write_Data_Glcd(0x0305);
 268:../Source Files/lpc_ssp_glcd.c **** 
 269:../Source Files/lpc_ssp_glcd.c **** 	Write_Command_Glcd(0x36);
 270:../Source Files/lpc_ssp_glcd.c **** 	Write_Data_Glcd(0x0707);
 271:../Source Files/lpc_ssp_glcd.c **** 
 272:../Source Files/lpc_ssp_glcd.c **** 	Write_Command_Glcd(0x37);
 273:../Source Files/lpc_ssp_glcd.c **** 	Write_Data_Glcd(0x0300);
 274:../Source Files/lpc_ssp_glcd.c **** 
 275:../Source Files/lpc_ssp_glcd.c **** 	Write_Command_Glcd(0x3A);
 276:../Source Files/lpc_ssp_glcd.c **** 	Write_Data_Glcd(0x1200);
 277:../Source Files/lpc_ssp_glcd.c **** 
 278:../Source Files/lpc_ssp_glcd.c **** 	Write_Command_Glcd(0x3B);
 279:../Source Files/lpc_ssp_glcd.c **** 	Write_Data_Glcd(0x0800);
 280:../Source Files/lpc_ssp_glcd.c **** 
 281:../Source Files/lpc_ssp_glcd.c **** 	Write_Command_Glcd(0x07);      // Display Control
 282:../Source Files/lpc_ssp_glcd.c **** 	Write_Data_Glcd(0x0033);       // Page 45 of SSD2119 datasheet
 283:../Source Files/lpc_ssp_glcd.c **** 
 284:../Source Files/lpc_ssp_glcd.c **** 	delay_ms(5);
 285:../Source Files/lpc_ssp_glcd.c **** 
 286:../Source Files/lpc_ssp_glcd.c **** 	Write_Command_Glcd(0x22);    // RAM data write/read
 287:../Source Files/lpc_ssp_glcd.c **** }
 288:../Source Files/lpc_ssp_glcd.c **** 
 289:../Source Files/lpc_ssp_glcd.c **** 
 290:../Source Files/lpc_ssp_glcd.c **** /*********************************************************************//**
 291:../Source Files/lpc_ssp_glcd.c ****  * @brief	    Draw a pixel in foreground color
 292:../Source Files/lpc_ssp_glcd.c ****  * @param[in]	x        horizontal position
 293:../Source Files/lpc_ssp_glcd.c ****  *              y        vertical position
 294:../Source Files/lpc_ssp_glcd.c ****  * @return 		None
 295:../Source Files/lpc_ssp_glcd.c ****  **********************************************************************/
 296:../Source Files/lpc_ssp_glcd.c **** void GLCD_PutPixel (uint16_t x, uint16_t y, uint16_t color)
 297:../Source Files/lpc_ssp_glcd.c **** {
 298:../Source Files/lpc_ssp_glcd.c **** 	Write_Command_Glcd(0x4E);     /* GDDRAM Horizontal */
 299:../Source Files/lpc_ssp_glcd.c **** 	Write_Data_Glcd(x);
 300:../Source Files/lpc_ssp_glcd.c **** 
 301:../Source Files/lpc_ssp_glcd.c **** 	Write_Command_Glcd(0x4F);     /* GDDRAM Vertical */
 302:../Source Files/lpc_ssp_glcd.c **** 	Write_Data_Glcd(y);
 303:../Source Files/lpc_ssp_glcd.c **** 
 304:../Source Files/lpc_ssp_glcd.c **** 	Write_Command_Glcd(0x22);      /* RAM data write     */
 305:../Source Files/lpc_ssp_glcd.c **** 	Write_Data_Glcd(color);
 306:../Source Files/lpc_ssp_glcd.c **** }
 307:../Source Files/lpc_ssp_glcd.c **** 
 308:../Source Files/lpc_ssp_glcd.c **** 
 309:../Source Files/lpc_ssp_glcd.c **** /*********************************************************************//**
 310:../Source Files/lpc_ssp_glcd.c ****  * @brief	    Set foreground color
 311:../Source Files/lpc_ssp_glcd.c ****  * @param[in]	color    foreground color
 312:../Source Files/lpc_ssp_glcd.c ****  * @return 		None
 313:../Source Files/lpc_ssp_glcd.c ****  **********************************************************************/
 314:../Source Files/lpc_ssp_glcd.c **** void GLCD_SetTextColor (uint16_t color)
 315:../Source Files/lpc_ssp_glcd.c **** {
 316:../Source Files/lpc_ssp_glcd.c **** 	TextColor = color;
 317:../Source Files/lpc_ssp_glcd.c **** }
 318:../Source Files/lpc_ssp_glcd.c **** 
 319:../Source Files/lpc_ssp_glcd.c **** 
 320:../Source Files/lpc_ssp_glcd.c **** /*********************************************************************//**
 321:../Source Files/lpc_ssp_glcd.c ****  * @brief	    Set background color
 322:../Source Files/lpc_ssp_glcd.c ****  * @param[in]	color    background color
 323:../Source Files/lpc_ssp_glcd.c ****  * @return 		None
 324:../Source Files/lpc_ssp_glcd.c ****  **********************************************************************/
 325:../Source Files/lpc_ssp_glcd.c **** void GLCD_SetBackColor (uint16_t color)
 326:../Source Files/lpc_ssp_glcd.c **** {
 327:../Source Files/lpc_ssp_glcd.c **** 	BackColor = color;
 328:../Source Files/lpc_ssp_glcd.c **** }
 329:../Source Files/lpc_ssp_glcd.c **** 
 330:../Source Files/lpc_ssp_glcd.c **** 
 331:../Source Files/lpc_ssp_glcd.c **** /*********************************************************************//**
 332:../Source Files/lpc_ssp_glcd.c ****  * @brief	    Start of data writing to LCD controller
 333:../Source Files/lpc_ssp_glcd.c ****  * @param[in]	None
 334:../Source Files/lpc_ssp_glcd.c ****  * @return 		None
 335:../Source Files/lpc_ssp_glcd.c ****  **********************************************************************/
 336:../Source Files/lpc_ssp_glcd.c **** static __INLINE void wr_dat_start (void)
 337:../Source Files/lpc_ssp_glcd.c **** {
  25              		.loc 1 337 0
  26              		.cfi_startproc
  27              		@ args = 0, pretend = 0, frame = 0
  28              		@ frame_needed = 0, uses_anonymous_args = 0
 338:../Source Files/lpc_ssp_glcd.c **** 	CS_Force1 (LPC_SSP1, DISABLE);
  29              		.loc 1 338 0
  30 0000 0021     		movs	r1, #0
 337:../Source Files/lpc_ssp_glcd.c **** {
  31              		.loc 1 337 0
  32 0002 08B5     		push	{r3, lr}
  33              	.LCFI0:
  34              		.cfi_def_cfa_offset 8
  35              		.cfi_offset 3, -8
  36              		.cfi_offset 14, -4
  37              		.loc 1 338 0
  38 0004 0448     		ldr	r0, .L2
  39 0006 FFF7FEFF 		bl	CS_Force1
  40              	.LVL0:
 339:../Source Files/lpc_ssp_glcd.c **** 	GPIO_SetValue(2, LCD_RS);  // select data mode
  41              		.loc 1 339 0
  42 000a 0220     		movs	r0, #2
  43 000c 0121     		movs	r1, #1
 340:../Source Files/lpc_ssp_glcd.c **** }
  44              		.loc 1 340 0
  45 000e BDE80840 		pop	{r3, lr}
 339:../Source Files/lpc_ssp_glcd.c **** 	GPIO_SetValue(2, LCD_RS);  // select data mode
  46              		.loc 1 339 0
  47 0012 FFF7FEBF 		b	GPIO_SetValue
  48              	.LVL1:
  49              	.L3:
  50 0016 00BF     		.align	2
  51              	.L2:
  52 0018 00000340 		.word	1073938432
  53              		.cfi_endproc
  54              	.LFE65:
  56              		.align	1
  57              		.thumb
  58              		.thumb_func
  60              	wr_dat_stop:
  61              	.LFB66:
 341:../Source Files/lpc_ssp_glcd.c **** 
 342:../Source Files/lpc_ssp_glcd.c **** 
 343:../Source Files/lpc_ssp_glcd.c **** /*********************************************************************//**
 344:../Source Files/lpc_ssp_glcd.c ****  * @brief	    Stop of data writing to LCD controller
 345:../Source Files/lpc_ssp_glcd.c ****  * @param[in]	None
 346:../Source Files/lpc_ssp_glcd.c ****  * @return 		None
 347:../Source Files/lpc_ssp_glcd.c ****  **********************************************************************/
 348:../Source Files/lpc_ssp_glcd.c **** static __INLINE void wr_dat_stop (void)
 349:../Source Files/lpc_ssp_glcd.c **** {
  62              		.loc 1 349 0
  63              		.cfi_startproc
  64              		@ args = 0, pretend = 0, frame = 0
  65              		@ frame_needed = 0, uses_anonymous_args = 0
  66              		@ link register save eliminated.
 350:../Source Files/lpc_ssp_glcd.c **** 	CS_Force1 (LPC_SSP1, ENABLE);
  67              		.loc 1 350 0
  68 001c 0148     		ldr	r0, .L5
  69 001e 0121     		movs	r1, #1
 351:../Source Files/lpc_ssp_glcd.c **** }
  70              		.loc 1 351 0
 350:../Source Files/lpc_ssp_glcd.c **** 	CS_Force1 (LPC_SSP1, ENABLE);
  71              		.loc 1 350 0
  72 0020 FFF7FEBF 		b	CS_Force1
  73              	.LVL2:
  74              	.L6:
  75              		.align	2
  76              	.L5:
  77 0024 00000340 		.word	1073938432
  78              		.cfi_endproc
  79              	.LFE66:
  81              		.align	1
  82              		.thumb
  83              		.thumb_func
  85              	wr_dat_only:
  86              	.LFB67:
 352:../Source Files/lpc_ssp_glcd.c **** 
 353:../Source Files/lpc_ssp_glcd.c **** 
 354:../Source Files/lpc_ssp_glcd.c **** /*********************************************************************//**
 355:../Source Files/lpc_ssp_glcd.c ****  * @brief	    Data writing to LCD controller
 356:../Source Files/lpc_ssp_glcd.c ****  * @param[in]	c     data to be written
 357:../Source Files/lpc_ssp_glcd.c ****  * @return 		None
 358:../Source Files/lpc_ssp_glcd.c ****  **********************************************************************/
 359:../Source Files/lpc_ssp_glcd.c **** static __INLINE void wr_dat_only (uint16_t c)
 360:../Source Files/lpc_ssp_glcd.c **** {
  87              		.loc 1 360 0
  88              		.cfi_startproc
  89              		@ args = 0, pretend = 0, frame = 24
  90              		@ frame_needed = 0, uses_anonymous_args = 0
  91              	.LVL3:
  92 0028 7FB5     		push	{r0, r1, r2, r3, r4, r5, r6, lr}
  93              	.LCFI1:
  94              		.cfi_def_cfa_offset 32
  95              		.cfi_offset 0, -32
  96              		.cfi_offset 1, -28
  97              		.cfi_offset 2, -24
  98              		.cfi_offset 3, -20
  99              		.cfi_offset 4, -16
 100              		.cfi_offset 5, -12
 101              		.cfi_offset 6, -8
 102              		.cfi_offset 14, -4
 361:../Source Files/lpc_ssp_glcd.c **** 	SSP_DATA_SETUP_Type xferConfig;
 362:../Source Files/lpc_ssp_glcd.c **** 
 363:../Source Files/lpc_ssp_glcd.c **** 	Tx_Buf1[0] = (uchar)(c>>8);    // 1st byte extract
 103              		.loc 1 363 0
 104 002a 074B     		ldr	r3, .L8
 105 002c 020A     		lsrs	r2, r0, #8
 364:../Source Files/lpc_ssp_glcd.c **** 	Tx_Buf1[1] = (uchar) c;        // 2nd byte extract
 106              		.loc 1 364 0
 107 002e 5870     		strb	r0, [r3, #1]
 365:../Source Files/lpc_ssp_glcd.c **** 
 366:../Source Files/lpc_ssp_glcd.c **** 	xferConfig.tx_data = Tx_Buf1;               /* Send Instruction Byte    */
 367:../Source Files/lpc_ssp_glcd.c **** 	xferConfig.rx_data = NULL;
 368:../Source Files/lpc_ssp_glcd.c **** 	xferConfig.length = 2;
 108              		.loc 1 368 0
 109 0030 0220     		movs	r0, #2
 110              	.LVL4:
 363:../Source Files/lpc_ssp_glcd.c **** 	Tx_Buf1[0] = (uchar)(c>>8);    // 1st byte extract
 111              		.loc 1 363 0
 112 0032 1A70     		strb	r2, [r3, #0]
 113              		.loc 1 368 0
 114 0034 0490     		str	r0, [sp, #16]
 367:../Source Files/lpc_ssp_glcd.c **** 	xferConfig.rx_data = NULL;
 115              		.loc 1 367 0
 116 0036 0022     		movs	r2, #0
 369:../Source Files/lpc_ssp_glcd.c **** 	SSP_ReadWrite(LPC_SSP1, &xferConfig, SSP_TRANSFER_POLLING);
 117              		.loc 1 369 0
 118 0038 6946     		mov	r1, sp
 119 003a 0448     		ldr	r0, .L8+4
 366:../Source Files/lpc_ssp_glcd.c **** 	xferConfig.tx_data = Tx_Buf1;               /* Send Instruction Byte    */
 120              		.loc 1 366 0
 121 003c 0093     		str	r3, [sp, #0]
 367:../Source Files/lpc_ssp_glcd.c **** 	xferConfig.rx_data = NULL;
 122              		.loc 1 367 0
 123 003e 0292     		str	r2, [sp, #8]
 124              		.loc 1 369 0
 125 0040 FFF7FEFF 		bl	SSP_ReadWrite
 126              	.LVL5:
 370:../Source Files/lpc_ssp_glcd.c **** }
 127              		.loc 1 370 0
 128 0044 07B0     		add	sp, sp, #28
 129 0046 00BD     		pop	{pc}
 130              	.L9:
 131              		.align	2
 132              	.L8:
 133 0048 00000000 		.word	Tx_Buf1
 134 004c 00000340 		.word	1073938432
 135              		.cfi_endproc
 136              	.LFE67:
 138              		.align	1
 139              		.global	GLCD_Backlight
 140              		.thumb
 141              		.thumb_func
 143              	GLCD_Backlight:
 144              	.LFB55:
  59:../Source Files/lpc_ssp_glcd.c **** {
 145              		.loc 1 59 0
 146              		.cfi_startproc
 147              		@ args = 0, pretend = 0, frame = 0
 148              		@ frame_needed = 0, uses_anonymous_args = 0
 149              		@ link register save eliminated.
 150              	.LVL6:
  60:../Source Files/lpc_ssp_glcd.c **** 	if(NewState)
 151              		.loc 1 60 0
 152 0050 20B1     		cbz	r0, .L11
  62:../Source Files/lpc_ssp_glcd.c **** 		GPIO_SetValue(2, LCD_BK);
 153              		.loc 1 62 0
 154 0052 0220     		movs	r0, #2
 155              	.LVL7:
 156 0054 4FF48071 		mov	r1, #256
  68:../Source Files/lpc_ssp_glcd.c **** }
 157              		.loc 1 68 0
  62:../Source Files/lpc_ssp_glcd.c **** 		GPIO_SetValue(2, LCD_BK);
 158              		.loc 1 62 0
 159 0058 FFF7FEBF 		b	GPIO_SetValue
 160              	.LVL8:
 161              	.L11:
  66:../Source Files/lpc_ssp_glcd.c **** 		GPIO_ClearValue(2, LCD_BK);
 162              		.loc 1 66 0
 163 005c 0220     		movs	r0, #2
 164              	.LVL9:
 165 005e 4FF48071 		mov	r1, #256
  68:../Source Files/lpc_ssp_glcd.c **** }
 166              		.loc 1 68 0
  66:../Source Files/lpc_ssp_glcd.c **** 		GPIO_ClearValue(2, LCD_BK);
 167              		.loc 1 66 0
 168 0062 FFF7FEBF 		b	GPIO_ClearValue
 169              	.LVL10:
 170              		.cfi_endproc
 171              	.LFE55:
 173              		.align	1
 174              		.global	GLCD_Reset
 175              		.thumb
 176              		.thumb_func
 178              	GLCD_Reset:
 179              	.LFB56:
  77:../Source Files/lpc_ssp_glcd.c **** {
 180              		.loc 1 77 0
 181              		.cfi_startproc
 182              		@ args = 0, pretend = 0, frame = 0
 183              		@ frame_needed = 0, uses_anonymous_args = 0
 184 0066 08B5     		push	{r3, lr}
 185              	.LCFI2:
 186              		.cfi_def_cfa_offset 8
 187              		.cfi_offset 3, -8
 188              		.cfi_offset 14, -4
  78:../Source Files/lpc_ssp_glcd.c **** 	GPIO_SetValue(0, LCD_RST);
 189              		.loc 1 78 0
 190 0068 2021     		movs	r1, #32
 191 006a 0020     		movs	r0, #0
 192 006c FFF7FEFF 		bl	GPIO_SetValue
 193              	.LVL11:
  79:../Source Files/lpc_ssp_glcd.c **** 	delay_ms(2);
 194              		.loc 1 79 0
 195 0070 0220     		movs	r0, #2
 196 0072 FFF7FEFF 		bl	delay_ms
 197              	.LVL12:
  80:../Source Files/lpc_ssp_glcd.c **** 	GPIO_ClearValue(0, LCD_RST);  //reset low
 198              		.loc 1 80 0
 199 0076 2021     		movs	r1, #32
 200 0078 0020     		movs	r0, #0
 201 007a FFF7FEFF 		bl	GPIO_ClearValue
 202              	.LVL13:
  81:../Source Files/lpc_ssp_glcd.c **** 	delay_ms(4);
 203              		.loc 1 81 0
 204 007e 0420     		movs	r0, #4
 205 0080 FFF7FEFF 		bl	delay_ms
 206              	.LVL14:
  82:../Source Files/lpc_ssp_glcd.c **** 	GPIO_SetValue(0, LCD_RST);  //reset low
 207              		.loc 1 82 0
 208 0084 0020     		movs	r0, #0
 209 0086 2021     		movs	r1, #32
  83:../Source Files/lpc_ssp_glcd.c **** }
 210              		.loc 1 83 0
 211 0088 BDE80840 		pop	{r3, lr}
  82:../Source Files/lpc_ssp_glcd.c **** 	GPIO_SetValue(0, LCD_RST);  //reset low
 212              		.loc 1 82 0
 213 008c FFF7FEBF 		b	GPIO_SetValue
 214              	.LVL15:
 215              		.cfi_endproc
 216              	.LFE56:
 218              		.align	1
 219              		.global	GLCD_SetTextColor
 220              		.thumb
 221              		.thumb_func
 223              	GLCD_SetTextColor:
 224              	.LFB63:
 315:../Source Files/lpc_ssp_glcd.c **** {
 225              		.loc 1 315 0
 226              		.cfi_startproc
 227              		@ args = 0, pretend = 0, frame = 0
 228              		@ frame_needed = 0, uses_anonymous_args = 0
 229              		@ link register save eliminated.
 230              	.LVL16:
 316:../Source Files/lpc_ssp_glcd.c **** 	TextColor = color;
 231              		.loc 1 316 0
 232 0090 014B     		ldr	r3, .L15
 233 0092 1880     		strh	r0, [r3, #0]	@ movhi
 234 0094 7047     		bx	lr
 235              	.L16:
 236 0096 00BF     		.align	2
 237              	.L15:
 238 0098 00000000 		.word	.LANCHOR0
 239              		.cfi_endproc
 240              	.LFE63:
 242              		.align	1
 243              		.global	GLCD_SetBackColor
 244              		.thumb
 245              		.thumb_func
 247              	GLCD_SetBackColor:
 248              	.LFB64:
 326:../Source Files/lpc_ssp_glcd.c **** {
 249              		.loc 1 326 0
 250              		.cfi_startproc
 251              		@ args = 0, pretend = 0, frame = 0
 252              		@ frame_needed = 0, uses_anonymous_args = 0
 253              		@ link register save eliminated.
 254              	.LVL17:
 327:../Source Files/lpc_ssp_glcd.c **** 	BackColor = color;
 255              		.loc 1 327 0
 256 009c 014B     		ldr	r3, .L18
 257 009e 1880     		strh	r0, [r3, #0]	@ movhi
 258 00a0 7047     		bx	lr
 259              	.L19:
 260 00a2 00BF     		.align	2
 261              	.L18:
 262 00a4 00000000 		.word	.LANCHOR1
 263              		.cfi_endproc
 264              	.LFE64:
 266              		.align	1
 267              		.global	Write_Command_Glcd
 268              		.thumb
 269              		.thumb_func
 271              	Write_Command_Glcd:
 272              	.LFB86:
 371:../Source Files/lpc_ssp_glcd.c **** 
 372:../Source Files/lpc_ssp_glcd.c **** 
 373:../Source Files/lpc_ssp_glcd.c **** /*********************************************************************//**
 374:../Source Files/lpc_ssp_glcd.c ****  * @brief	    Clear display
 375:../Source Files/lpc_ssp_glcd.c ****  * @param[in]	color    display clearing color
 376:../Source Files/lpc_ssp_glcd.c ****  * @return 		None
 377:../Source Files/lpc_ssp_glcd.c ****  **********************************************************************/
 378:../Source Files/lpc_ssp_glcd.c **** void GLCD_Clear (uint16_t color)
 379:../Source Files/lpc_ssp_glcd.c **** {
 380:../Source Files/lpc_ssp_glcd.c **** 	unsigned int   i;
 381:../Source Files/lpc_ssp_glcd.c **** 
 382:../Source Files/lpc_ssp_glcd.c **** 	GLCD_Window (0,0,320,240);    // Window Max
 383:../Source Files/lpc_ssp_glcd.c **** 
 384:../Source Files/lpc_ssp_glcd.c **** 	Write_Command_Glcd(0x4E);     /* GDDRAM Horizontal */
 385:../Source Files/lpc_ssp_glcd.c **** 	Write_Data_Glcd(0);
 386:../Source Files/lpc_ssp_glcd.c **** 
 387:../Source Files/lpc_ssp_glcd.c **** 	Write_Command_Glcd(0x4F);     /* GDDRAM Vertical */
 388:../Source Files/lpc_ssp_glcd.c **** 	Write_Data_Glcd(0);
 389:../Source Files/lpc_ssp_glcd.c **** 
 390:../Source Files/lpc_ssp_glcd.c **** 	Write_Command_Glcd(0x22);
 391:../Source Files/lpc_ssp_glcd.c **** 	wr_dat_start();
 392:../Source Files/lpc_ssp_glcd.c **** 	for(i = 0; i < (WIDTH*HEIGHT); i++)
 393:../Source Files/lpc_ssp_glcd.c **** 		wr_dat_only(color);
 394:../Source Files/lpc_ssp_glcd.c **** 	wr_dat_stop();
 395:../Source Files/lpc_ssp_glcd.c **** }
 396:../Source Files/lpc_ssp_glcd.c **** 
 397:../Source Files/lpc_ssp_glcd.c **** 
 398:../Source Files/lpc_ssp_glcd.c **** /*********************************************************************//**
 399:../Source Files/lpc_ssp_glcd.c ****  * @brief	    Draw character on given position
 400:../Source Files/lpc_ssp_glcd.c ****  * @param[in]	x       horizontal position
 401:../Source Files/lpc_ssp_glcd.c ****  *              y       vertical position
 402:../Source Files/lpc_ssp_glcd.c ****  *              c       pointer to character bitmap
 403:../Source Files/lpc_ssp_glcd.c ****  * @return 		None
 404:../Source Files/lpc_ssp_glcd.c ****  **********************************************************************/
 405:../Source Files/lpc_ssp_glcd.c **** void GLCD_Draw_Char (uint16_t x, uint16_t y, uint16_t *c)
 406:../Source Files/lpc_ssp_glcd.c **** {
 407:../Source Files/lpc_ssp_glcd.c **** 	int idx = 0, i, j;
 408:../Source Files/lpc_ssp_glcd.c **** 
 409:../Source Files/lpc_ssp_glcd.c **** 	x = x-CHAR_W;
 410:../Source Files/lpc_ssp_glcd.c **** 
 411:../Source Files/lpc_ssp_glcd.c **** 	Write_Command_Glcd(0x45);      /* Horizontal GRAM Start Address      */
 412:../Source Files/lpc_ssp_glcd.c **** 	Write_Data_Glcd(x);
 413:../Source Files/lpc_ssp_glcd.c **** 
 414:../Source Files/lpc_ssp_glcd.c **** 	Write_Command_Glcd(0x46);      /* Horizontal GRAM End   Address (-1) */
 415:../Source Files/lpc_ssp_glcd.c **** 	Write_Data_Glcd(x+CHAR_W-1);
 416:../Source Files/lpc_ssp_glcd.c **** 
 417:../Source Files/lpc_ssp_glcd.c **** 	Write_Command_Glcd(0x44);      /* Vertical   GRAM Start Address      */
 418:../Source Files/lpc_ssp_glcd.c **** 	Write_Data_Glcd(y);
 419:../Source Files/lpc_ssp_glcd.c **** 
 420:../Source Files/lpc_ssp_glcd.c **** 	Write_Command_Glcd(0x44);      /* Vertical   GRAM End   Address (-1) */
 421:../Source Files/lpc_ssp_glcd.c **** 	Write_Data_Glcd((y+CHAR_H-1)<<8);
 422:../Source Files/lpc_ssp_glcd.c **** 
 423:../Source Files/lpc_ssp_glcd.c **** 	Write_Command_Glcd(0x4E);     /* GDDRAM Horizontal */
 424:../Source Files/lpc_ssp_glcd.c **** 	Write_Data_Glcd(x);
 425:../Source Files/lpc_ssp_glcd.c **** 
 426:../Source Files/lpc_ssp_glcd.c **** 	Write_Command_Glcd(0x4F);     /* GDDRAM Vertical */
 427:../Source Files/lpc_ssp_glcd.c **** 	Write_Data_Glcd(y);
 428:../Source Files/lpc_ssp_glcd.c **** 
 429:../Source Files/lpc_ssp_glcd.c **** 	Write_Command_Glcd(0x22);
 430:../Source Files/lpc_ssp_glcd.c **** 
 431:../Source Files/lpc_ssp_glcd.c **** 	wr_dat_start();
 432:../Source Files/lpc_ssp_glcd.c **** 	for (j = 0; j < CHAR_H; j++)
 433:../Source Files/lpc_ssp_glcd.c **** 	{
 434:../Source Files/lpc_ssp_glcd.c **** 		for (i = 0; i<CHAR_W; i++)
 435:../Source Files/lpc_ssp_glcd.c **** 		{
 436:../Source Files/lpc_ssp_glcd.c **** 			if((c[idx] & (1 << i)) == 0x00)
 437:../Source Files/lpc_ssp_glcd.c **** 			{
 438:../Source Files/lpc_ssp_glcd.c **** 				wr_dat_only(BackColor);
 439:../Source Files/lpc_ssp_glcd.c **** 			}
 440:../Source Files/lpc_ssp_glcd.c **** 			else
 441:../Source Files/lpc_ssp_glcd.c **** 			{
 442:../Source Files/lpc_ssp_glcd.c **** 				wr_dat_only(TextColor);
 443:../Source Files/lpc_ssp_glcd.c **** 			}
 444:../Source Files/lpc_ssp_glcd.c **** 		}
 445:../Source Files/lpc_ssp_glcd.c **** 		c++;
 446:../Source Files/lpc_ssp_glcd.c **** 	}
 447:../Source Files/lpc_ssp_glcd.c **** 	wr_dat_stop();
 448:../Source Files/lpc_ssp_glcd.c **** }
 449:../Source Files/lpc_ssp_glcd.c **** 
 450:../Source Files/lpc_ssp_glcd.c **** 
 451:../Source Files/lpc_ssp_glcd.c **** /*********************************************************************//**
 452:../Source Files/lpc_ssp_glcd.c ****  * @brief	    Disply character on given line
 453:../Source Files/lpc_ssp_glcd.c ****  * @param[in]	ln       line number
 454:../Source Files/lpc_ssp_glcd.c ****  *              col      column number
 455:../Source Files/lpc_ssp_glcd.c ****  *              c        ascii character
 456:../Source Files/lpc_ssp_glcd.c ****  * @return 		None
 457:../Source Files/lpc_ssp_glcd.c ****  **********************************************************************/
 458:../Source Files/lpc_ssp_glcd.c **** void GLCD_Display_Char (uint16_t ln, uint16_t col, uchar c)
 459:../Source Files/lpc_ssp_glcd.c **** {
 460:../Source Files/lpc_ssp_glcd.c **** 	c -= 32;
 461:../Source Files/lpc_ssp_glcd.c **** 	GLCD_Draw_Char(col * CHAR_W, ln * CHAR_H, (uint16_t *)&Font_24x16[c * CHAR_H]);
 462:../Source Files/lpc_ssp_glcd.c **** }
 463:../Source Files/lpc_ssp_glcd.c **** 
 464:../Source Files/lpc_ssp_glcd.c **** 
 465:../Source Files/lpc_ssp_glcd.c **** /*********************************************************************//**
 466:../Source Files/lpc_ssp_glcd.c ****  * @brief	    Disply string on given line
 467:../Source Files/lpc_ssp_glcd.c ****  * @param[in]	ln       line number
 468:../Source Files/lpc_ssp_glcd.c ****  *              col      column number
 469:../Source Files/lpc_ssp_glcd.c ****  *              s        pointer to string
 470:../Source Files/lpc_ssp_glcd.c ****  * @return 		None
 471:../Source Files/lpc_ssp_glcd.c ****  **********************************************************************/
 472:../Source Files/lpc_ssp_glcd.c **** void GLCD_Display_String (uint16_t ln, uint16_t col, uchar *s)
 473:../Source Files/lpc_ssp_glcd.c **** {
 474:../Source Files/lpc_ssp_glcd.c **** 	GLCD_Window(0,0,320,240);  // Window Max
 475:../Source Files/lpc_ssp_glcd.c **** 	while (*s)
 476:../Source Files/lpc_ssp_glcd.c **** 	{
 477:../Source Files/lpc_ssp_glcd.c **** 		GLCD_Display_Char(ln, col++, *s++);
 478:../Source Files/lpc_ssp_glcd.c **** 	}
 479:../Source Files/lpc_ssp_glcd.c **** }
 480:../Source Files/lpc_ssp_glcd.c **** 
 481:../Source Files/lpc_ssp_glcd.c **** 
 482:../Source Files/lpc_ssp_glcd.c **** /*********************************************************************//**
 483:../Source Files/lpc_ssp_glcd.c ****  * @brief	    Clear given line
 484:../Source Files/lpc_ssp_glcd.c ****  * @param[in]	ln       line number
 485:../Source Files/lpc_ssp_glcd.c ****  * @return 		None
 486:../Source Files/lpc_ssp_glcd.c ****  **********************************************************************/
 487:../Source Files/lpc_ssp_glcd.c **** void GLCD_ClearLn (uint16_t ln)
 488:../Source Files/lpc_ssp_glcd.c **** {
 489:../Source Files/lpc_ssp_glcd.c **** 	GLCD_Window(0,0,320,240);  // Window Max
 490:../Source Files/lpc_ssp_glcd.c **** 	GLCD_Display_String(ln, 0, "                    ");
 491:../Source Files/lpc_ssp_glcd.c **** }
 492:../Source Files/lpc_ssp_glcd.c **** 
 493:../Source Files/lpc_ssp_glcd.c **** 
 494:../Source Files/lpc_ssp_glcd.c **** /*********************************************************************//**
 495:../Source Files/lpc_ssp_glcd.c ****  * @brief	    Draw bargraph
 496:../Source Files/lpc_ssp_glcd.c ****  * @param[in]	x        horizontal position
 497:../Source Files/lpc_ssp_glcd.c ****  *              y        vertical position
 498:../Source Files/lpc_ssp_glcd.c ****  *              w        maximum width of bargraph (in pixels)
 499:../Source Files/lpc_ssp_glcd.c ****  *              val      value of active bargraph (in 1/1024)
 500:../Source Files/lpc_ssp_glcd.c ****  * @return 		None
 501:../Source Files/lpc_ssp_glcd.c ****  **********************************************************************/
 502:../Source Files/lpc_ssp_glcd.c **** void GLCD_Bargraph (uint16_t x, uint16_t y, uint16_t w, uint16_t h, uint16_t val)
 503:../Source Files/lpc_ssp_glcd.c **** {
 504:../Source Files/lpc_ssp_glcd.c **** 	int i,j;
 505:../Source Files/lpc_ssp_glcd.c **** 
 506:../Source Files/lpc_ssp_glcd.c **** 	Write_Command_Glcd(0x45);      /* Horizontal GRAM Start Address      */
 507:../Source Files/lpc_ssp_glcd.c **** 	Write_Data_Glcd(x);
 508:../Source Files/lpc_ssp_glcd.c **** 
 509:../Source Files/lpc_ssp_glcd.c **** 	Write_Command_Glcd(0x46);      /* Horizontal GRAM End   Address (-1) */
 510:../Source Files/lpc_ssp_glcd.c **** 	Write_Data_Glcd(x+w-1);
 511:../Source Files/lpc_ssp_glcd.c **** 
 512:../Source Files/lpc_ssp_glcd.c **** 	Write_Command_Glcd(0x44);      /* Vertical   GRAM Start Address      */
 513:../Source Files/lpc_ssp_glcd.c **** 	Write_Data_Glcd(y);
 514:../Source Files/lpc_ssp_glcd.c **** 
 515:../Source Files/lpc_ssp_glcd.c **** 	Write_Command_Glcd(0x44);      /* Vertical   GRAM End   Address (-1) */
 516:../Source Files/lpc_ssp_glcd.c **** 	Write_Data_Glcd((y+CHAR_H-1)<<8);
 517:../Source Files/lpc_ssp_glcd.c **** 
 518:../Source Files/lpc_ssp_glcd.c **** 	Write_Command_Glcd(0x4E);     /* GDDRAM Horizontal */
 519:../Source Files/lpc_ssp_glcd.c **** 	Write_Data_Glcd(x);
 520:../Source Files/lpc_ssp_glcd.c **** 
 521:../Source Files/lpc_ssp_glcd.c **** 	Write_Command_Glcd(0x4F);     /* GDDRAM Vertical */
 522:../Source Files/lpc_ssp_glcd.c **** 	Write_Data_Glcd(y);
 523:../Source Files/lpc_ssp_glcd.c **** 
 524:../Source Files/lpc_ssp_glcd.c **** 	Write_Command_Glcd(0x22);
 525:../Source Files/lpc_ssp_glcd.c **** 
 526:../Source Files/lpc_ssp_glcd.c **** 	val = (val * w) >> 10;                /* Scale value for 24x12 characters   */
 527:../Source Files/lpc_ssp_glcd.c **** 
 528:../Source Files/lpc_ssp_glcd.c **** 	wr_dat_start();
 529:../Source Files/lpc_ssp_glcd.c **** 	for (i = h; i >0; i--)
 530:../Source Files/lpc_ssp_glcd.c **** 	{
 531:../Source Files/lpc_ssp_glcd.c **** 		for (j = 0; j <= w-1; j++)
 532:../Source Files/lpc_ssp_glcd.c **** 		{
 533:../Source Files/lpc_ssp_glcd.c **** 			if(j <= val)
 534:../Source Files/lpc_ssp_glcd.c **** 			{
 535:../Source Files/lpc_ssp_glcd.c **** 				wr_dat_only(BackColor);
 536:../Source Files/lpc_ssp_glcd.c **** 			}
 537:../Source Files/lpc_ssp_glcd.c **** 			else
 538:../Source Files/lpc_ssp_glcd.c **** 			{
 539:../Source Files/lpc_ssp_glcd.c **** 				wr_dat_only(TextColor);
 540:../Source Files/lpc_ssp_glcd.c **** 			}
 541:../Source Files/lpc_ssp_glcd.c **** 		}
 542:../Source Files/lpc_ssp_glcd.c **** 	}
 543:../Source Files/lpc_ssp_glcd.c **** 	wr_dat_stop();
 544:../Source Files/lpc_ssp_glcd.c **** }
 545:../Source Files/lpc_ssp_glcd.c **** 
 546:../Source Files/lpc_ssp_glcd.c **** 
 547:../Source Files/lpc_ssp_glcd.c **** /*********************************************************************//**
 548:../Source Files/lpc_ssp_glcd.c ****  * @brief	    Display graphical bitmap image at position x horizontally
 549:../Source Files/lpc_ssp_glcd.c ****  *              and y vertically (This function is optimized for
 550:../Source Files/lpc_ssp_glcd.c ****  *              16 bits per pixel format, it has to be adapted for
 551:../Source Files/lpc_ssp_glcd.c ****  *              any other bits per pixel format)
 552:../Source Files/lpc_ssp_glcd.c ****  * @param[in]	x        horizontal position
 553:../Source Files/lpc_ssp_glcd.c ****  *              y        vertical position
 554:../Source Files/lpc_ssp_glcd.c ****  *              w        width of bitmap
 555:../Source Files/lpc_ssp_glcd.c ****  *              h        height of bitmap
 556:../Source Files/lpc_ssp_glcd.c ****  *              bitmap   address at which the bitmap data resides
 557:../Source Files/lpc_ssp_glcd.c ****  * @return 		None
 558:../Source Files/lpc_ssp_glcd.c ****  **********************************************************************/
 559:../Source Files/lpc_ssp_glcd.c **** void GLCD_Bitmap (uint16_t x, uint16_t y, uint16_t w, uint16_t h, uint16_t *bitmap)
 560:../Source Files/lpc_ssp_glcd.c **** {
 561:../Source Files/lpc_ssp_glcd.c **** 	uint32_t i,j,k;
 562:../Source Files/lpc_ssp_glcd.c **** 
 563:../Source Files/lpc_ssp_glcd.c **** 	GLCD_Set_Loc (x,y,w,h);
 564:../Source Files/lpc_ssp_glcd.c **** 
 565:../Source Files/lpc_ssp_glcd.c **** 	wr_dat_start();
 566:../Source Files/lpc_ssp_glcd.c **** 	k = 16;
 567:../Source Files/lpc_ssp_glcd.c **** 	for (j = 0; j < h; j++)
 568:../Source Files/lpc_ssp_glcd.c **** 	{
 569:../Source Files/lpc_ssp_glcd.c **** 		for (i = 0; i < w; i++)
 570:../Source Files/lpc_ssp_glcd.c **** 		{
 571:../Source Files/lpc_ssp_glcd.c **** 			wr_dat_only(bitmap[k++]);
 572:../Source Files/lpc_ssp_glcd.c **** 		}
 573:../Source Files/lpc_ssp_glcd.c **** 	}
 574:../Source Files/lpc_ssp_glcd.c **** 	wr_dat_stop();
 575:../Source Files/lpc_ssp_glcd.c **** }
 576:../Source Files/lpc_ssp_glcd.c **** 
 577:../Source Files/lpc_ssp_glcd.c **** 
 578:../Source Files/lpc_ssp_glcd.c **** /*********************************************************************//**
 579:../Source Files/lpc_ssp_glcd.c ****  * @brief	    F at position x horizontally
 580:../Source Files/lpc_ssp_glcd.c ****  *              and y vertically (This function is optimized for
 581:../Source Files/lpc_ssp_glcd.c ****  *              16 bits per pixel format, it has to be adapted for
 582:../Source Files/lpc_ssp_glcd.c ****  *              any other bits per pixel format)
 583:../Source Files/lpc_ssp_glcd.c ****  * @param[in]	x        horizontal position
 584:../Source Files/lpc_ssp_glcd.c ****  *              y        vertical position
 585:../Source Files/lpc_ssp_glcd.c ****  *              w        width of bitmap
 586:../Source Files/lpc_ssp_glcd.c ****  *              h        height of bitmap
 587:../Source Files/lpc_ssp_glcd.c ****  *              color    window color
 588:../Source Files/lpc_ssp_glcd.c ****  * @return 		None
 589:../Source Files/lpc_ssp_glcd.c ****  **********************************************************************/
 590:../Source Files/lpc_ssp_glcd.c **** void GLCD_Window_Fill (uint16_t x, uint16_t y, uint16_t w, uint16_t h, uint16_t color)
 591:../Source Files/lpc_ssp_glcd.c **** {
 592:../Source Files/lpc_ssp_glcd.c **** 	uint32_t i,j;
 593:../Source Files/lpc_ssp_glcd.c **** 
 594:../Source Files/lpc_ssp_glcd.c **** 	GLCD_Set_Loc (x,y,w,h);
 595:../Source Files/lpc_ssp_glcd.c **** 
 596:../Source Files/lpc_ssp_glcd.c **** 	wr_dat_start();
 597:../Source Files/lpc_ssp_glcd.c **** 	for (j = 0; j < h; j++)
 598:../Source Files/lpc_ssp_glcd.c **** 	{
 599:../Source Files/lpc_ssp_glcd.c **** 		for (i = 0; i < w; i++)
 600:../Source Files/lpc_ssp_glcd.c **** 		{
 601:../Source Files/lpc_ssp_glcd.c **** 			wr_dat_only(color);
 602:../Source Files/lpc_ssp_glcd.c **** 		}
 603:../Source Files/lpc_ssp_glcd.c **** 	}
 604:../Source Files/lpc_ssp_glcd.c **** 	wr_dat_stop();
 605:../Source Files/lpc_ssp_glcd.c **** }
 606:../Source Files/lpc_ssp_glcd.c **** 
 607:../Source Files/lpc_ssp_glcd.c **** 
 608:../Source Files/lpc_ssp_glcd.c **** /*********************************************************************//**
 609:../Source Files/lpc_ssp_glcd.c ****  * @brief	    Draw a line on a graphic LCD using Bresenham's
 610:../Source Files/lpc_ssp_glcd.c ****  *              line drawing algorithm
 611:../Source Files/lpc_ssp_glcd.c ****  * @param[in]	(x1, y1)   the start coordinate
 612:../Source Files/lpc_ssp_glcd.c ****  *              (x2, y2)   the end coordinate
 613:../Source Files/lpc_ssp_glcd.c ****  *              color      line color
 614:../Source Files/lpc_ssp_glcd.c ****  * @return 		None
 615:../Source Files/lpc_ssp_glcd.c ****  **********************************************************************/
 616:../Source Files/lpc_ssp_glcd.c **** void GLCD_Line(int16_t x1, int16_t y1, int16_t x2, int16_t y2, uint16_t color)
 617:../Source Files/lpc_ssp_glcd.c **** {
 618:../Source Files/lpc_ssp_glcd.c **** 	int16_t  x, y, addx, addy, dx, dy;
 619:../Source Files/lpc_ssp_glcd.c **** 	int32_t P,i;
 620:../Source Files/lpc_ssp_glcd.c **** 
 621:../Source Files/lpc_ssp_glcd.c **** 	dx = abs((int16_t)(x2 - x1));
 622:../Source Files/lpc_ssp_glcd.c **** 	dy = abs((int16_t)(y2 - y1));
 623:../Source Files/lpc_ssp_glcd.c **** 	x = x1;
 624:../Source Files/lpc_ssp_glcd.c **** 	y = y1;
 625:../Source Files/lpc_ssp_glcd.c **** 
 626:../Source Files/lpc_ssp_glcd.c **** 	if(x1 > x2)
 627:../Source Files/lpc_ssp_glcd.c **** 		addx = -1;
 628:../Source Files/lpc_ssp_glcd.c **** 	else
 629:../Source Files/lpc_ssp_glcd.c **** 		addx = 1;
 630:../Source Files/lpc_ssp_glcd.c **** 	if(y1 > y2)
 631:../Source Files/lpc_ssp_glcd.c **** 		addy = -1;
 632:../Source Files/lpc_ssp_glcd.c **** 	else
 633:../Source Files/lpc_ssp_glcd.c **** 		addy = 1;
 634:../Source Files/lpc_ssp_glcd.c **** 
 635:../Source Files/lpc_ssp_glcd.c **** 
 636:../Source Files/lpc_ssp_glcd.c **** 	if(dx >= dy)
 637:../Source Files/lpc_ssp_glcd.c **** 	{
 638:../Source Files/lpc_ssp_glcd.c **** 		P = 2*dy - dx;
 639:../Source Files/lpc_ssp_glcd.c **** 
 640:../Source Files/lpc_ssp_glcd.c **** 		for(i=0; i<=dx; ++i)
 641:../Source Files/lpc_ssp_glcd.c **** 		{
 642:../Source Files/lpc_ssp_glcd.c **** 			GLCD_PutPixel(x, y, color);
 643:../Source Files/lpc_ssp_glcd.c **** 
 644:../Source Files/lpc_ssp_glcd.c **** 			if(P < 0)
 645:../Source Files/lpc_ssp_glcd.c **** 			{
 646:../Source Files/lpc_ssp_glcd.c **** 				P += 2*dy;
 647:../Source Files/lpc_ssp_glcd.c **** 				x += addx;
 648:../Source Files/lpc_ssp_glcd.c **** 			}
 649:../Source Files/lpc_ssp_glcd.c **** 			else
 650:../Source Files/lpc_ssp_glcd.c **** 			{
 651:../Source Files/lpc_ssp_glcd.c **** 				P += 2*dy - 2*dx;
 652:../Source Files/lpc_ssp_glcd.c **** 				x += addx;
 653:../Source Files/lpc_ssp_glcd.c **** 				y += addy;
 654:../Source Files/lpc_ssp_glcd.c **** 			}
 655:../Source Files/lpc_ssp_glcd.c **** 		}
 656:../Source Files/lpc_ssp_glcd.c **** 	}
 657:../Source Files/lpc_ssp_glcd.c **** 	else
 658:../Source Files/lpc_ssp_glcd.c **** 	{
 659:../Source Files/lpc_ssp_glcd.c **** 		P = 2*dx - dy;
 660:../Source Files/lpc_ssp_glcd.c **** 
 661:../Source Files/lpc_ssp_glcd.c **** 		for(i=0; i<=dy; ++i)
 662:../Source Files/lpc_ssp_glcd.c **** 		{
 663:../Source Files/lpc_ssp_glcd.c **** 			GLCD_PutPixel(x, y, color);
 664:../Source Files/lpc_ssp_glcd.c **** 
 665:../Source Files/lpc_ssp_glcd.c **** 			if(P < 0)
 666:../Source Files/lpc_ssp_glcd.c **** 			{
 667:../Source Files/lpc_ssp_glcd.c **** 				P += 2*dx;
 668:../Source Files/lpc_ssp_glcd.c **** 				y += addy;
 669:../Source Files/lpc_ssp_glcd.c **** 			}
 670:../Source Files/lpc_ssp_glcd.c **** 			else
 671:../Source Files/lpc_ssp_glcd.c **** 			{
 672:../Source Files/lpc_ssp_glcd.c **** 				P += 2*dx - 2*dy;
 673:../Source Files/lpc_ssp_glcd.c **** 				x += addx;
 674:../Source Files/lpc_ssp_glcd.c **** 				y += addy;
 675:../Source Files/lpc_ssp_glcd.c **** 			}
 676:../Source Files/lpc_ssp_glcd.c **** 		}
 677:../Source Files/lpc_ssp_glcd.c **** 	}
 678:../Source Files/lpc_ssp_glcd.c **** }
 679:../Source Files/lpc_ssp_glcd.c **** 
 680:../Source Files/lpc_ssp_glcd.c **** 
 681:../Source Files/lpc_ssp_glcd.c **** /*********************************************************************//**
 682:../Source Files/lpc_ssp_glcd.c ****  * @brief	    Draw a Rectangle on a graphic LCD
 683:../Source Files/lpc_ssp_glcd.c ****  * @param[in]	(x1, y1)     the start coordinate
 684:../Source Files/lpc_ssp_glcd.c ****  *              (x2, y2)     the end coordinate
 685:../Source Files/lpc_ssp_glcd.c ****  *              fill         Fill Rectangle TRUE/FALSE or ON/OFF
 686:../Source Files/lpc_ssp_glcd.c ****  *              color        Boundary color
 687:../Source Files/lpc_ssp_glcd.c ****  *              fill_color   fill color
 688:../Source Files/lpc_ssp_glcd.c ****  * @return 		None
 689:../Source Files/lpc_ssp_glcd.c ****  **********************************************************************/
 690:../Source Files/lpc_ssp_glcd.c **** void GLCD_Rect(COORDINATE_Type *p1, COORDINATE_Type *p2, Bool fill, uint16_t color, uint16_t fill_c
 691:../Source Files/lpc_ssp_glcd.c **** {
 692:../Source Files/lpc_ssp_glcd.c **** 	int16_t  width,height;                          // Find the y min and max
 693:../Source Files/lpc_ssp_glcd.c **** 
 694:../Source Files/lpc_ssp_glcd.c **** 	if(fill)
 695:../Source Files/lpc_ssp_glcd.c **** 	{
 696:../Source Files/lpc_ssp_glcd.c **** 		if(p2->x > p1->x)
 697:../Source Files/lpc_ssp_glcd.c **** 		{
 698:../Source Files/lpc_ssp_glcd.c **** 			if(p2->y > p1->y)
 699:../Source Files/lpc_ssp_glcd.c **** 			{
 700:../Source Files/lpc_ssp_glcd.c **** 				width = p2->x - p1->x;
 701:../Source Files/lpc_ssp_glcd.c **** 				height = p2->y - p1->y;
 702:../Source Files/lpc_ssp_glcd.c **** 				GLCD_Window_Fill(p1->x+1,p1->y+1,width-1,height-1,fill_color);
 703:../Source Files/lpc_ssp_glcd.c **** 			}
 704:../Source Files/lpc_ssp_glcd.c **** 			else
 705:../Source Files/lpc_ssp_glcd.c **** 			{
 706:../Source Files/lpc_ssp_glcd.c **** 				width = p2->x - p1->x;
 707:../Source Files/lpc_ssp_glcd.c **** 				height = p1->y - p2->y;
 708:../Source Files/lpc_ssp_glcd.c **** 				GLCD_Window_Fill(p1->x+1,p2->y+1,width-1,height-1,fill_color);
 709:../Source Files/lpc_ssp_glcd.c **** 			}
 710:../Source Files/lpc_ssp_glcd.c **** 		}
 711:../Source Files/lpc_ssp_glcd.c **** 		else
 712:../Source Files/lpc_ssp_glcd.c **** 		{
 713:../Source Files/lpc_ssp_glcd.c **** 			if(p2->y > p1->y)
 714:../Source Files/lpc_ssp_glcd.c **** 			{
 715:../Source Files/lpc_ssp_glcd.c **** 				width = p1->x - p2->x;
 716:../Source Files/lpc_ssp_glcd.c **** 				height = p2->y - p1->y;
 717:../Source Files/lpc_ssp_glcd.c **** 				GLCD_Window_Fill(p2->x+1,p1->y+1,width-1,height-1,fill_color);
 718:../Source Files/lpc_ssp_glcd.c **** 			}
 719:../Source Files/lpc_ssp_glcd.c **** 			else
 720:../Source Files/lpc_ssp_glcd.c **** 			{
 721:../Source Files/lpc_ssp_glcd.c **** 				width = p1->x - p2->x;
 722:../Source Files/lpc_ssp_glcd.c **** 				height = p1->y - p2->y;
 723:../Source Files/lpc_ssp_glcd.c **** 				GLCD_Window_Fill(p2->x+1,p2->y+1,width-1,height-1,fill_color);
 724:../Source Files/lpc_ssp_glcd.c **** 			}
 725:../Source Files/lpc_ssp_glcd.c **** 		}
 726:../Source Files/lpc_ssp_glcd.c **** 		fill = NO;
 727:../Source Files/lpc_ssp_glcd.c **** 	}
 728:../Source Files/lpc_ssp_glcd.c **** 	if(!fill)
 729:../Source Files/lpc_ssp_glcd.c **** 	{
 730:../Source Files/lpc_ssp_glcd.c **** 		GLCD_Line(p1->x, p1->y, p2->x, p1->y, color);      // Draw the outer border 4 sides
 731:../Source Files/lpc_ssp_glcd.c **** 		GLCD_Line(p1->x, p2->y, p2->x, p2->y, color);
 732:../Source Files/lpc_ssp_glcd.c **** 		GLCD_Line(p1->x, p1->y, p1->x, p2->y, color);
 733:../Source Files/lpc_ssp_glcd.c **** 		GLCD_Line(p2->x, p1->y, p2->x, p2->y, color);
 734:../Source Files/lpc_ssp_glcd.c **** 	}
 735:../Source Files/lpc_ssp_glcd.c **** }
 736:../Source Files/lpc_ssp_glcd.c **** 
 737:../Source Files/lpc_ssp_glcd.c **** 
 738:../Source Files/lpc_ssp_glcd.c **** /*********************************************************************//**
 739:../Source Files/lpc_ssp_glcd.c ****  * @brief	    Draw a frame on a graphic LCD
 740:../Source Files/lpc_ssp_glcd.c ****  * @param[in]	(x1, y1)     the start coordinate
 741:../Source Files/lpc_ssp_glcd.c ****  *              (x2, y2)     the end coordinate
 742:../Source Files/lpc_ssp_glcd.c ****  *              frame_width  Total Width of Frame
 743:../Source Files/lpc_ssp_glcd.c ****  *              color        Boundary color
 744:../Source Files/lpc_ssp_glcd.c ****  *              fill_color   Frame fill color
 745:../Source Files/lpc_ssp_glcd.c ****  * @return 		None
 746:../Source Files/lpc_ssp_glcd.c ****  **********************************************************************/
 747:../Source Files/lpc_ssp_glcd.c **** void GLCD_Frame(COORDINATE_Type *p1, COORDINATE_Type *p2, int16_t frame_width, uint16_t color, uint
 748:../Source Files/lpc_ssp_glcd.c **** {
 749:../Source Files/lpc_ssp_glcd.c **** 	int16_t fw;                          // Find the y min and max
 750:../Source Files/lpc_ssp_glcd.c **** 
 751:../Source Files/lpc_ssp_glcd.c **** 	fw = frame_width;
 752:../Source Files/lpc_ssp_glcd.c **** 
 753:../Source Files/lpc_ssp_glcd.c **** 	while(fw)
 754:../Source Files/lpc_ssp_glcd.c **** 	{
 755:../Source Files/lpc_ssp_glcd.c **** 		if(fw < frame_width)
 756:../Source Files/lpc_ssp_glcd.c **** 		{
 757:../Source Files/lpc_ssp_glcd.c **** 			GLCD_Line(p1->x, p1->y+fw, p2->x, p1->y+fw, fill_color);      // Draw the interior 4 sides
 758:../Source Files/lpc_ssp_glcd.c **** 			GLCD_Line(p1->x, p2->y-fw, p2->x, p2->y-fw, fill_color);
 759:../Source Files/lpc_ssp_glcd.c **** 			GLCD_Line(p1->x+fw, p1->y, p1->x+fw, p2->y, fill_color);
 760:../Source Files/lpc_ssp_glcd.c **** 			GLCD_Line(p2->x-fw, p1->y, p2->x-fw, p2->y, fill_color);
 761:../Source Files/lpc_ssp_glcd.c **** 			fw--;
 762:../Source Files/lpc_ssp_glcd.c **** 		}
 763:../Source Files/lpc_ssp_glcd.c **** 		else
 764:../Source Files/lpc_ssp_glcd.c **** 		{
 765:../Source Files/lpc_ssp_glcd.c **** 			GLCD_Line(p1->x, p1->y+fw, p2->x, p1->y+fw, color);      // inner border 4 sides
 766:../Source Files/lpc_ssp_glcd.c **** 			GLCD_Line(p1->x, p2->y-fw, p2->x, p2->y-fw, color);
 767:../Source Files/lpc_ssp_glcd.c **** 			GLCD_Line(p1->x+fw, p1->y, p1->x+fw, p2->y, color);
 768:../Source Files/lpc_ssp_glcd.c **** 			GLCD_Line(p2->x-fw, p1->y, p2->x-fw, p2->y, color);
 769:../Source Files/lpc_ssp_glcd.c **** 			fw--;
 770:../Source Files/lpc_ssp_glcd.c **** 		}
 771:../Source Files/lpc_ssp_glcd.c **** 	}
 772:../Source Files/lpc_ssp_glcd.c **** 
 773:../Source Files/lpc_ssp_glcd.c **** 	if(!fw)
 774:../Source Files/lpc_ssp_glcd.c **** 	{
 775:../Source Files/lpc_ssp_glcd.c **** 		GLCD_Line(p1->x, p1->y, p2->x, p1->y, color);      // Draw the outer border 4 sides
 776:../Source Files/lpc_ssp_glcd.c **** 		GLCD_Line(p1->x, p2->y, p2->x, p2->y, color);
 777:../Source Files/lpc_ssp_glcd.c **** 		GLCD_Line(p1->x, p1->y, p1->x, p2->y, color);
 778:../Source Files/lpc_ssp_glcd.c **** 		GLCD_Line(p2->x, p1->y, p2->x, p2->y, color);
 779:../Source Files/lpc_ssp_glcd.c **** 	}
 780:../Source Files/lpc_ssp_glcd.c **** }
 781:../Source Files/lpc_ssp_glcd.c **** 
 782:../Source Files/lpc_ssp_glcd.c **** 
 783:../Source Files/lpc_ssp_glcd.c **** /*********************************************************************//**
 784:../Source Files/lpc_ssp_glcd.c ****  * @brief	    Draw a rectangle/frame on a graphic LCD
 785:../Source Files/lpc_ssp_glcd.c ****  * @param[in]	(x1, y1)     the start coordinate
 786:../Source Files/lpc_ssp_glcd.c ****  *              (x2, y2)     the end coordinate
 787:../Source Files/lpc_ssp_glcd.c ****  *              (x3, y3)     the end coordinate
 788:../Source Files/lpc_ssp_glcd.c ****  *              fill         Fill Triangle TRUE/FALSE or ON/OFF
 789:../Source Files/lpc_ssp_glcd.c ****  *              color        Boundary color
 790:../Source Files/lpc_ssp_glcd.c ****  *              fill_color   Triangle Fill Color
 791:../Source Files/lpc_ssp_glcd.c ****  * @return 		None
 792:../Source Files/lpc_ssp_glcd.c ****  **********************************************************************/
 793:../Source Files/lpc_ssp_glcd.c **** void GLCD_Triangle(COORDINATE_Type *p1, COORDINATE_Type *p2, COORDINATE_Type *p3,COLORCFG_Type *cfg
 794:../Source Files/lpc_ssp_glcd.c **** {
 795:../Source Files/lpc_ssp_glcd.c ****     if(cfg->fill)
 796:../Source Files/lpc_ssp_glcd.c ****     {
 797:../Source Files/lpc_ssp_glcd.c ****     	uint16_t t1x,t2x,y,minx,maxx,t1xp,t2xp;
 798:../Source Files/lpc_ssp_glcd.c ****     	Bool changed1 = FALSE;
 799:../Source Files/lpc_ssp_glcd.c ****     	Bool changed2 = FALSE;
 800:../Source Files/lpc_ssp_glcd.c ****     	int16_t signx1,signx2,dx1,dy1,dx2,dy2;
 801:../Source Files/lpc_ssp_glcd.c ****     	uint16_t e1,e2;
 802:../Source Files/lpc_ssp_glcd.c ****         // Sort vertices
 803:../Source Files/lpc_ssp_glcd.c ****     	if (p1->y > p2->y) { SWAP(p1->y,p2->y); SWAP(p1->x,p2->x); }
 804:../Source Files/lpc_ssp_glcd.c ****     	if (p1->y > p3->y) { SWAP(p1->y,p3->y); SWAP(p1->x,p3->x); }
 805:../Source Files/lpc_ssp_glcd.c ****     	if (p2->y > p3->y) { SWAP(p2->y,p3->y); SWAP(p2->x,p3->x); }
 806:../Source Files/lpc_ssp_glcd.c **** 
 807:../Source Files/lpc_ssp_glcd.c ****     	t1x=t2x=p1->x; y=p1->y;   // Starting points
 808:../Source Files/lpc_ssp_glcd.c **** 
 809:../Source Files/lpc_ssp_glcd.c ****     	dx1 = (int16_t)(p2->x - p1->x);
 810:../Source Files/lpc_ssp_glcd.c ****     	if(dx1<0) { dx1=-dx1; signx1=-1; } else signx1=1;
 811:../Source Files/lpc_ssp_glcd.c ****     	dy1 = (int16_t)(p2->y - p1->y);
 812:../Source Files/lpc_ssp_glcd.c **** 
 813:../Source Files/lpc_ssp_glcd.c ****     	dx2 = (int8_t)(p3->x - p1->x);
 814:../Source Files/lpc_ssp_glcd.c ****     	if(dx2<0) { dx2=-dx2; signx2=-1; } else signx2=1;
 815:../Source Files/lpc_ssp_glcd.c ****     	dy2 = (int8_t)(p3->y - p1->y);
 816:../Source Files/lpc_ssp_glcd.c **** 
 817:../Source Files/lpc_ssp_glcd.c ****     	if (dy1 > dx1)
 818:../Source Files/lpc_ssp_glcd.c ****     	{   // swap values
 819:../Source Files/lpc_ssp_glcd.c ****             SWAP(dx1,dy1);
 820:../Source Files/lpc_ssp_glcd.c ****     		changed1 = TRUE;
 821:../Source Files/lpc_ssp_glcd.c ****     	}
 822:../Source Files/lpc_ssp_glcd.c ****     	if (dy2 > dx2)
 823:../Source Files/lpc_ssp_glcd.c ****     	{   // swap values
 824:../Source Files/lpc_ssp_glcd.c ****             SWAP(dy2,dx2);
 825:../Source Files/lpc_ssp_glcd.c ****     		changed2 = TRUE;
 826:../Source Files/lpc_ssp_glcd.c ****     	}
 827:../Source Files/lpc_ssp_glcd.c **** 
 828:../Source Files/lpc_ssp_glcd.c ****     	e2 = (uint16_t)(dx2>>1);
 829:../Source Files/lpc_ssp_glcd.c ****         // Flat top, just process the second half
 830:../Source Files/lpc_ssp_glcd.c ****         if(p1->y==p2->y) goto next;
 831:../Source Files/lpc_ssp_glcd.c ****         e1 = (uint16_t)(dx1>>1);
 832:../Source Files/lpc_ssp_glcd.c **** 
 833:../Source Files/lpc_ssp_glcd.c ****     	for (uint8_t i = 0; i < dx1;)
 834:../Source Files/lpc_ssp_glcd.c ****     	{
 835:../Source Files/lpc_ssp_glcd.c ****     		t1xp=0; t2xp=0;
 836:../Source Files/lpc_ssp_glcd.c ****     		if(t1x<t2x) { minx=t1x; maxx=t2x; }
 837:../Source Files/lpc_ssp_glcd.c ****     		else		{ minx=t2x; maxx=t1x; }
 838:../Source Files/lpc_ssp_glcd.c ****             // process first line until y value is about to change
 839:../Source Files/lpc_ssp_glcd.c ****     		while(i<dx1)
 840:../Source Files/lpc_ssp_glcd.c ****     		{
 841:../Source Files/lpc_ssp_glcd.c ****     			i++;
 842:../Source Files/lpc_ssp_glcd.c ****     			e1 += dy1;
 843:../Source Files/lpc_ssp_glcd.c ****     	   	   	while (e1 >= dx1)
 844:../Source Files/lpc_ssp_glcd.c ****     	   	   	{
 845:../Source Files/lpc_ssp_glcd.c ****     				e1 -= dx1;
 846:../Source Files/lpc_ssp_glcd.c ****        	   	   	   if (changed1) t1xp=signx1;//t1x += signx1;
 847:../Source Files/lpc_ssp_glcd.c ****     				else          goto next1;
 848:../Source Files/lpc_ssp_glcd.c ****     			}
 849:../Source Files/lpc_ssp_glcd.c ****     			if (changed1) break;
 850:../Source Files/lpc_ssp_glcd.c ****     			else t1x += signx1;
 851:../Source Files/lpc_ssp_glcd.c ****     		}
 852:../Source Files/lpc_ssp_glcd.c ****     	// Move line
 853:../Source Files/lpc_ssp_glcd.c ****     	next1:
 854:../Source Files/lpc_ssp_glcd.c ****             // process second line until y value is about to change
 855:../Source Files/lpc_ssp_glcd.c ****     		while (1)
 856:../Source Files/lpc_ssp_glcd.c ****     		{
 857:../Source Files/lpc_ssp_glcd.c ****     			e2 += dy2;
 858:../Source Files/lpc_ssp_glcd.c ****     			while (e2 >= dx2)
 859:../Source Files/lpc_ssp_glcd.c ****     			{
 860:../Source Files/lpc_ssp_glcd.c ****     				e2 -= dx2;
 861:../Source Files/lpc_ssp_glcd.c ****     				if (changed2) t2xp=signx2;//t2x += signx2;
 862:../Source Files/lpc_ssp_glcd.c ****     				else          goto next2;
 863:../Source Files/lpc_ssp_glcd.c ****     			}
 864:../Source Files/lpc_ssp_glcd.c ****     			if (changed2)     break;
 865:../Source Files/lpc_ssp_glcd.c ****     			else              t2x += signx2;
 866:../Source Files/lpc_ssp_glcd.c ****     		}
 867:../Source Files/lpc_ssp_glcd.c ****     	next2:
 868:../Source Files/lpc_ssp_glcd.c ****     		if(minx>t1x) minx=t1x; if(minx>t2x) minx=t2x;
 869:../Source Files/lpc_ssp_glcd.c ****     		if(maxx<t1x) maxx=t1x; if(maxx<t2x) maxx=t2x;
 870:../Source Files/lpc_ssp_glcd.c ****     		GLCD_Line(minx,y,maxx,y,cfg->fill_color);    // Draw line from min to max points found on the
 871:../Source Files/lpc_ssp_glcd.c **** 
 872:../Source Files/lpc_ssp_glcd.c ****     		// Now increase y
 873:../Source Files/lpc_ssp_glcd.c ****     		if(!changed1) t1x += signx1;
 874:../Source Files/lpc_ssp_glcd.c ****     		t1x+=t1xp;
 875:../Source Files/lpc_ssp_glcd.c ****     		if(!changed2) t2x += signx2;
 876:../Source Files/lpc_ssp_glcd.c ****     		t2x+=t2xp;
 877:../Source Files/lpc_ssp_glcd.c ****         	y += 1;
 878:../Source Files/lpc_ssp_glcd.c ****     		if(y==p2->y) break;
 879:../Source Files/lpc_ssp_glcd.c ****        }
 880:../Source Files/lpc_ssp_glcd.c ****     	next:
 881:../Source Files/lpc_ssp_glcd.c ****     	// Second half
 882:../Source Files/lpc_ssp_glcd.c ****     	dx1 = (int8_t)(p3->x - p2->x); if(dx1<0) { dx1=-dx1; signx1=-1; } else signx1=1;
 883:../Source Files/lpc_ssp_glcd.c ****     	dy1 = (int8_t)(p3->y - p2->y);
 884:../Source Files/lpc_ssp_glcd.c ****     	t1x=p2->x;
 885:../Source Files/lpc_ssp_glcd.c **** 
 886:../Source Files/lpc_ssp_glcd.c ****     	if (dy1 > dx1)
 887:../Source Files/lpc_ssp_glcd.c ****     	{   // swap values
 888:../Source Files/lpc_ssp_glcd.c ****             SWAP(dy1,dx1);
 889:../Source Files/lpc_ssp_glcd.c ****     		changed1 = TRUE;
 890:../Source Files/lpc_ssp_glcd.c ****     	} else changed1=FALSE;
 891:../Source Files/lpc_ssp_glcd.c **** 
 892:../Source Files/lpc_ssp_glcd.c ****     	e1 = (uint8_t)(dx1>>1);
 893:../Source Files/lpc_ssp_glcd.c **** 
 894:../Source Files/lpc_ssp_glcd.c ****     	for (uint8_t i = 0; i<=dx1; i++)
 895:../Source Files/lpc_ssp_glcd.c ****     	{
 896:../Source Files/lpc_ssp_glcd.c ****     		t1xp=0; t2xp=0;
 897:../Source Files/lpc_ssp_glcd.c ****     		if(t1x<t2x) { minx=t1x; maxx=t2x; }
 898:../Source Files/lpc_ssp_glcd.c ****     		else		{ minx=t2x; maxx=t1x; }
 899:../Source Files/lpc_ssp_glcd.c ****     	    // process first line until y value is about to change
 900:../Source Files/lpc_ssp_glcd.c ****     		while(i<dx1)
 901:../Source Files/lpc_ssp_glcd.c ****     		{
 902:../Source Files/lpc_ssp_glcd.c ****         		e1 += dy1;
 903:../Source Files/lpc_ssp_glcd.c ****     	   	   	while (e1 >= dx1)
 904:../Source Files/lpc_ssp_glcd.c ****     	   	   	{
 905:../Source Files/lpc_ssp_glcd.c ****     				e1 -= dx1;
 906:../Source Files/lpc_ssp_glcd.c ****        	   	   	   	if (changed1) { t1xp=signx1; break; }//t1x += signx1;
 907:../Source Files/lpc_ssp_glcd.c ****     				else          goto next3;
 908:../Source Files/lpc_ssp_glcd.c ****     			}
 909:../Source Files/lpc_ssp_glcd.c ****     			if (changed1) break;
 910:../Source Files/lpc_ssp_glcd.c ****     			else   	   	  t1x += signx1;
 911:../Source Files/lpc_ssp_glcd.c ****     			if(i<dx1) i++;
 912:../Source Files/lpc_ssp_glcd.c ****     		}
 913:../Source Files/lpc_ssp_glcd.c ****     	next3:
 914:../Source Files/lpc_ssp_glcd.c ****             // process second line until y value is about to change
 915:../Source Files/lpc_ssp_glcd.c ****     		while (t2x!=p3->x)
 916:../Source Files/lpc_ssp_glcd.c ****     		{
 917:../Source Files/lpc_ssp_glcd.c ****     			e2 += dy2;
 918:../Source Files/lpc_ssp_glcd.c ****     	   	   	while (e2 >= dx2)
 919:../Source Files/lpc_ssp_glcd.c ****     	   	   	{
 920:../Source Files/lpc_ssp_glcd.c ****     				e2 -= dx2;
 921:../Source Files/lpc_ssp_glcd.c ****     				if(changed2) t2xp=signx2;
 922:../Source Files/lpc_ssp_glcd.c ****     				else          goto next4;
 923:../Source Files/lpc_ssp_glcd.c ****     			}
 924:../Source Files/lpc_ssp_glcd.c ****     			if (changed2)     break;
 925:../Source Files/lpc_ssp_glcd.c ****     			else              t2x += signx2;
 926:../Source Files/lpc_ssp_glcd.c ****     		}
 927:../Source Files/lpc_ssp_glcd.c ****     	next4:
 928:../Source Files/lpc_ssp_glcd.c **** 
 929:../Source Files/lpc_ssp_glcd.c ****     		if(minx>t1x) minx=t1x; if(minx>t2x) minx=t2x;
 930:../Source Files/lpc_ssp_glcd.c ****     		if(maxx<t1x) maxx=t1x; if(maxx<t2x) maxx=t2x;
 931:../Source Files/lpc_ssp_glcd.c ****     		GLCD_Line(minx,y,maxx,y,cfg->fill_color);    // Draw line from min to max points found on the
 932:../Source Files/lpc_ssp_glcd.c ****     		// Now increase y
 933:../Source Files/lpc_ssp_glcd.c ****     		if(!changed1) t1x += signx1;
 934:../Source Files/lpc_ssp_glcd.c ****     		t1x+=t1xp;
 935:../Source Files/lpc_ssp_glcd.c ****     		if(!changed2) t2x += signx2;
 936:../Source Files/lpc_ssp_glcd.c ****     		t2x+=t2xp;
 937:../Source Files/lpc_ssp_glcd.c ****         	y += 1;
 938:../Source Files/lpc_ssp_glcd.c ****     		if(y>p3->y) break;
 939:../Source Files/lpc_ssp_glcd.c ****     	}
 940:../Source Files/lpc_ssp_glcd.c ****     	cfg->fill = NO;
 941:../Source Files/lpc_ssp_glcd.c ****     }
 942:../Source Files/lpc_ssp_glcd.c **** 
 943:../Source Files/lpc_ssp_glcd.c **** 
 944:../Source Files/lpc_ssp_glcd.c **** 	if(!cfg->fill && cfg->bndry)
 945:../Source Files/lpc_ssp_glcd.c **** 	{
 946:../Source Files/lpc_ssp_glcd.c **** 		GLCD_Line(p1->x, p1->y, p2->x, p2->y, cfg->bcolor);
 947:../Source Files/lpc_ssp_glcd.c **** 		GLCD_Line(p1->x, p1->y, p3->x, p3->y, cfg->bcolor);
 948:../Source Files/lpc_ssp_glcd.c **** 		GLCD_Line(p2->x, p2->y, p3->x, p3->y, cfg->bcolor);
 949:../Source Files/lpc_ssp_glcd.c **** 	}
 950:../Source Files/lpc_ssp_glcd.c **** }
 951:../Source Files/lpc_ssp_glcd.c **** 
 952:../Source Files/lpc_ssp_glcd.c **** 
 953:../Source Files/lpc_ssp_glcd.c **** /*********************************************************************//**
 954:../Source Files/lpc_ssp_glcd.c ****  * @brief	    Draw a Circle with given Center and Radius
 955:../Source Files/lpc_ssp_glcd.c ****  * @param[in]	(x, y)     the center of the circle
 956:../Source Files/lpc_ssp_glcd.c ****  *              radius     the radius of the circle
 957:../Source Files/lpc_ssp_glcd.c ****  *              fill       YES or NO
 958:../Source Files/lpc_ssp_glcd.c ****  *              color      Boundary color
 959:../Source Files/lpc_ssp_glcd.c ****  * @return 		None
 960:../Source Files/lpc_ssp_glcd.c ****  **********************************************************************/
 961:../Source Files/lpc_ssp_glcd.c **** void GLCD_Circle(int16_t x, int16_t y, int16_t radius,COLORCFG_Type *cfg)
 962:../Source Files/lpc_ssp_glcd.c **** {
 963:../Source Files/lpc_ssp_glcd.c **** 	int16_t a, b, P;
 964:../Source Files/lpc_ssp_glcd.c **** 	a = 0;
 965:../Source Files/lpc_ssp_glcd.c **** 	b = radius;
 966:../Source Files/lpc_ssp_glcd.c **** 	P = 1 - radius;
 967:../Source Files/lpc_ssp_glcd.c **** 
 968:../Source Files/lpc_ssp_glcd.c **** 	do
 969:../Source Files/lpc_ssp_glcd.c **** 	{
 970:../Source Files/lpc_ssp_glcd.c **** 		if(cfg->fill)
 971:../Source Files/lpc_ssp_glcd.c **** 		{
 972:../Source Files/lpc_ssp_glcd.c **** 			GLCD_Line(x-a, y+b, x+a, y+b, cfg->fill_color);
 973:../Source Files/lpc_ssp_glcd.c **** 			GLCD_Line(x-a, y-b, x+a, y-b, cfg->fill_color);
 974:../Source Files/lpc_ssp_glcd.c **** 			GLCD_Line(x-b, y+a, x+b, y+a, cfg->fill_color);
 975:../Source Files/lpc_ssp_glcd.c **** 			GLCD_Line(x-b, y-a, x+b, y-a, cfg->fill_color);
 976:../Source Files/lpc_ssp_glcd.c **** 		}
 977:../Source Files/lpc_ssp_glcd.c **** 
 978:../Source Files/lpc_ssp_glcd.c **** 		if(P < 0)
 979:../Source Files/lpc_ssp_glcd.c **** 			P+= 3 + 2*a++;
 980:../Source Files/lpc_ssp_glcd.c **** 		else
 981:../Source Files/lpc_ssp_glcd.c **** 			P+= 5 + 2*(a++ - b--);
 982:../Source Files/lpc_ssp_glcd.c **** 	} while(a <= b);
 983:../Source Files/lpc_ssp_glcd.c **** 
 984:../Source Files/lpc_ssp_glcd.c **** 	cfg->fill = NO;
 985:../Source Files/lpc_ssp_glcd.c **** 	a = 0;
 986:../Source Files/lpc_ssp_glcd.c **** 	b = radius;
 987:../Source Files/lpc_ssp_glcd.c **** 	P = 1 - radius;
 988:../Source Files/lpc_ssp_glcd.c **** 	do
 989:../Source Files/lpc_ssp_glcd.c **** 	{
 990:../Source Files/lpc_ssp_glcd.c **** 		if(!cfg->fill && cfg->bndry)
 991:../Source Files/lpc_ssp_glcd.c **** 		{
 992:../Source Files/lpc_ssp_glcd.c **** 			GLCD_PutPixel(a+x, b+y, cfg->bcolor);
 993:../Source Files/lpc_ssp_glcd.c **** 			GLCD_PutPixel(b+x, a+y, cfg->bcolor);
 994:../Source Files/lpc_ssp_glcd.c **** 			GLCD_PutPixel(x-a, b+y, cfg->bcolor);
 995:../Source Files/lpc_ssp_glcd.c **** 			GLCD_PutPixel(x-b, a+y, cfg->bcolor);
 996:../Source Files/lpc_ssp_glcd.c **** 			GLCD_PutPixel(b+x, y-a, cfg->bcolor);
 997:../Source Files/lpc_ssp_glcd.c **** 			GLCD_PutPixel(a+x, y-b, cfg->bcolor);
 998:../Source Files/lpc_ssp_glcd.c **** 			GLCD_PutPixel(x-a, y-b, cfg->bcolor);
 999:../Source Files/lpc_ssp_glcd.c **** 			GLCD_PutPixel(x-b, y-a, cfg->bcolor);
1000:../Source Files/lpc_ssp_glcd.c **** 		}
1001:../Source Files/lpc_ssp_glcd.c **** 
1002:../Source Files/lpc_ssp_glcd.c **** 		if(P < 0)
1003:../Source Files/lpc_ssp_glcd.c **** 			P+= 3 + 2*a++;
1004:../Source Files/lpc_ssp_glcd.c **** 		else
1005:../Source Files/lpc_ssp_glcd.c **** 			P+= 5 + 2*(a++ - b--);
1006:../Source Files/lpc_ssp_glcd.c **** 	} while(a <= b);
1007:../Source Files/lpc_ssp_glcd.c **** }
1008:../Source Files/lpc_ssp_glcd.c **** 
1009:../Source Files/lpc_ssp_glcd.c **** 
1010:../Source Files/lpc_ssp_glcd.c **** /*********************************************************************//**
1011:../Source Files/lpc_ssp_glcd.c ****  * @brief	    Write text on a graphic LCD
1012:../Source Files/lpc_ssp_glcd.c ****  * @param[in]	(x,y)      The upper left coordinate of the first letter
1013:../Source Files/lpc_ssp_glcd.c ****  *              textptr    A pointer to an array of text to display
1014:../Source Files/lpc_ssp_glcd.c ****  *              row        Number of rows of pixels
1015:../Source Files/lpc_ssp_glcd.c ****  *              col        Number of Colums of pixels
1016:../Source Files/lpc_ssp_glcd.c ****  *              font       font 2 dimentional array
1017:../Source Files/lpc_ssp_glcd.c ****  *              size       The size of the text: 1 = 5x7, 2 = 10x14, ...
1018:../Source Files/lpc_ssp_glcd.c ****  *              color      font color
1019:../Source Files/lpc_ssp_glcd.c ****  * @return 		None
1020:../Source Files/lpc_ssp_glcd.c ****  **********************************************************************/
1021:../Source Files/lpc_ssp_glcd.c **** void GLCD_Text(int16_t x, int16_t y, int8_t* textptr, uint16_t length, uint8_t row, uint8_t col, in
1022:../Source Files/lpc_ssp_glcd.c **** {
1023:../Source Files/lpc_ssp_glcd.c ****    int16_t i, j, k, l, m;                     // Loop counters
1024:../Source Files/lpc_ssp_glcd.c ****    int8_t pixelData[row];                     // Stores character data
1025:../Source Files/lpc_ssp_glcd.c **** 
1026:../Source Files/lpc_ssp_glcd.c ****    for(i=0; i<length; ++i, ++x) // Loop through the passed string
1027:../Source Files/lpc_ssp_glcd.c ****    {
1028:../Source Files/lpc_ssp_glcd.c ****       memcpy(pixelData, font[textptr[i]-' '], row);
1029:../Source Files/lpc_ssp_glcd.c **** 
1030:../Source Files/lpc_ssp_glcd.c ****       if(x+row*size >= 320)          // Performs character wrapping
1031:../Source Files/lpc_ssp_glcd.c ****       {
1032:../Source Files/lpc_ssp_glcd.c ****          x = 0;                           // Set x at far left position
1033:../Source Files/lpc_ssp_glcd.c ****          y += row*size + 1;                 // Set y at next position down
1034:../Source Files/lpc_ssp_glcd.c ****       }
1035:../Source Files/lpc_ssp_glcd.c ****       for(j=0; j<row; ++j, x+=size)         // Loop through character byte data
1036:../Source Files/lpc_ssp_glcd.c ****       {
1037:../Source Files/lpc_ssp_glcd.c ****          for(k=0; k<col*size; ++k)          // Loop through the vertical pixels
1038:../Source Files/lpc_ssp_glcd.c ****          {
1039:../Source Files/lpc_ssp_glcd.c ****             if(bit_test(pixelData[j], k)) // Check if the pixel should be set
1040:../Source Files/lpc_ssp_glcd.c ****             {
1041:../Source Files/lpc_ssp_glcd.c ****                for(l=0; l<size; ++l)      // The next two loops change the
1042:../Source Files/lpc_ssp_glcd.c ****                {                          // character's size
1043:../Source Files/lpc_ssp_glcd.c ****                   for(m=0; m<size; ++m)
1044:../Source Files/lpc_ssp_glcd.c ****                   {
1045:../Source Files/lpc_ssp_glcd.c ****                      GLCD_PutPixel(x+m, y+k*size+l, color); // Draws the pixel
1046:../Source Files/lpc_ssp_glcd.c ****                   }
1047:../Source Files/lpc_ssp_glcd.c ****                }
1048:../Source Files/lpc_ssp_glcd.c ****             }
1049:../Source Files/lpc_ssp_glcd.c ****          }
1050:../Source Files/lpc_ssp_glcd.c ****       }
1051:../Source Files/lpc_ssp_glcd.c ****    }
1052:../Source Files/lpc_ssp_glcd.c **** }
1053:../Source Files/lpc_ssp_glcd.c **** 
1054:../Source Files/lpc_ssp_glcd.c **** 
1055:../Source Files/lpc_ssp_glcd.c **** /*********************************************************************//**
1056:../Source Files/lpc_ssp_glcd.c ****  * @brief		Modified version of Standard Printf statement
1057:../Source Files/lpc_ssp_glcd.c ****  *
1058:../Source Files/lpc_ssp_glcd.c ****  * @par			Supports standard formats "%c %s %d %x"
1059:../Source Files/lpc_ssp_glcd.c ****  * 				"%d" and "%x" requires non-standard qualifiers,"%dfn, %xfn":-
1060:../Source Files/lpc_ssp_glcd.c ****  *		        f supplies a fill character
1061:../Source Files/lpc_ssp_glcd.c ****  *		        n supplies a field width
1062:../Source Files/lpc_ssp_glcd.c ****  *
1063:../Source Files/lpc_ssp_glcd.c ****  *		        ENABLE RTC_SUPPORT in lpc17xx_uart.h for RTC Features
1064:../Source Files/lpc_ssp_glcd.c ****  *
1065:../Source Files/lpc_ssp_glcd.c ****  *				Supports custom formats  "%b  %u %t %y %a"
1066:../Source Files/lpc_ssp_glcd.c ****  *				"%b"	prints a 2 digit BCD value with leading zero
1067:../Source Files/lpc_ssp_glcd.c ****  *				"%u"	prints the 16 bit unsigned integer in hex format
1068:../Source Files/lpc_ssp_glcd.c ****  *				"%t"    prints current time
1069:../Source Files/lpc_ssp_glcd.c ****  *				"%y"    prints current date
1070:../Source Files/lpc_ssp_glcd.c ****  *				"%a"    prints alarm time and date
1071:../Source Files/lpc_ssp_glcd.c ****  * @param[in]	UARTx	Selected UART peripheral used to send data,
1072:../Source Files/lpc_ssp_glcd.c ****  * 				should be:
1073:../Source Files/lpc_ssp_glcd.c ****  *  			- LPC_UART0: UART0 peripheral
1074:../Source Files/lpc_ssp_glcd.c ****  * 				- LPC_UART1: UART1 peripheral
1075:../Source Files/lpc_ssp_glcd.c ****  * 				- LPC_UART2: UART2 peripheral
1076:../Source Files/lpc_ssp_glcd.c ****  * 				- LPC_UART3: UART3 peripheral
1077:../Source Files/lpc_ssp_glcd.c ****  * @param[in] 	*format Character format
1078:../Source Files/lpc_ssp_glcd.c ****  * @param[in]   ...  <multiple argument>
1079:../Source Files/lpc_ssp_glcd.c ****  *
1080:../Source Files/lpc_ssp_glcd.c ****  * @return 		return with valid character or nothing
1081:../Source Files/lpc_ssp_glcd.c ****  **********************************************************************/
1082:../Source Files/lpc_ssp_glcd.c **** int16 gprintf(int16_t x, int16_t y, int8_t size, uint16_t color, const char *format, ...)
1083:../Source Files/lpc_ssp_glcd.c **** {
1084:../Source Files/lpc_ssp_glcd.c **** 	uchar hex[]= "0123456789ABCDEF";
1085:../Source Files/lpc_ssp_glcd.c **** 	unsigned int width_dec[10] = { 1, 10, 100, 1000, 10000, 100000, 1000000, 10000000};
1086:../Source Files/lpc_ssp_glcd.c **** 	unsigned int width_hex[10] = { 0x1, 0x10, 0x100, 0x1000, 0x10000, 0x100000, 0x1000000, 0x10000000}
1087:../Source Files/lpc_ssp_glcd.c **** 	unsigned int temp;
1088:../Source Files/lpc_ssp_glcd.c **** 
1089:../Source Files/lpc_ssp_glcd.c **** 	schar format_flag, fill_char;
1090:../Source Files/lpc_ssp_glcd.c **** 	ulong32 u_val, div_val;
1091:../Source Files/lpc_ssp_glcd.c **** 	uint16 base;
1092:../Source Files/lpc_ssp_glcd.c **** 
1093:../Source Files/lpc_ssp_glcd.c **** 	schar *ptr;
1094:../Source Files/lpc_ssp_glcd.c **** #ifdef RTC_MODE
1095:../Source Files/lpc_ssp_glcd.c **** 	RTC_TIME_Type FullTime;
1096:../Source Files/lpc_ssp_glcd.c **** #endif
1097:../Source Files/lpc_ssp_glcd.c **** 	va_list ap;
1098:../Source Files/lpc_ssp_glcd.c **** 	va_start(ap, format);
1099:../Source Files/lpc_ssp_glcd.c **** 
1100:../Source Files/lpc_ssp_glcd.c **** 	for(;;)
1101:../Source Files/lpc_ssp_glcd.c **** 	{
1102:../Source Files/lpc_ssp_glcd.c **** 		while((format_flag = *format++) != '%')      // until full format string read
1103:../Source Files/lpc_ssp_glcd.c **** 		{
1104:../Source Files/lpc_ssp_glcd.c **** 			if(!format_flag)
1105:../Source Files/lpc_ssp_glcd.c **** 			{                        // until '%' or '\0'
1106:../Source Files/lpc_ssp_glcd.c **** 				return (0);
1107:../Source Files/lpc_ssp_glcd.c **** 			}
1108:../Source Files/lpc_ssp_glcd.c **** 
1109:../Source Files/lpc_ssp_glcd.c **** 		    if(x+5*size >= 320)          // Performs character wrapping
1110:../Source Files/lpc_ssp_glcd.c **** 		    {
1111:../Source Files/lpc_ssp_glcd.c **** 		       x = 0;                           // Set x at far left position
1112:../Source Files/lpc_ssp_glcd.c **** 		       y += 7*size + 1;                 // Set y at next position down
1113:../Source Files/lpc_ssp_glcd.c **** 		    }
1114:../Source Files/lpc_ssp_glcd.c **** 			GLCD_Text(x,y,&format_flag,1,5,7,default5x7,size,color);
1115:../Source Files/lpc_ssp_glcd.c **** 			x=x+5*size+1;
1116:../Source Files/lpc_ssp_glcd.c **** 		}
1117:../Source Files/lpc_ssp_glcd.c **** 
1118:../Source Files/lpc_ssp_glcd.c **** 		switch(format_flag = *format++)
1119:../Source Files/lpc_ssp_glcd.c **** 		{
1120:../Source Files/lpc_ssp_glcd.c **** 			case 'c':
1121:../Source Files/lpc_ssp_glcd.c **** 				format_flag = va_arg(ap, int);
1122:../Source Files/lpc_ssp_glcd.c **** 			    if(x+5*size >= 320)          // Performs character wrapping
1123:../Source Files/lpc_ssp_glcd.c **** 			    {
1124:../Source Files/lpc_ssp_glcd.c **** 			       x = 0;                           // Set x at far left position
1125:../Source Files/lpc_ssp_glcd.c **** 			       y += 7*size + 1;                 // Set y at next position down
1126:../Source Files/lpc_ssp_glcd.c **** 			    }
1127:../Source Files/lpc_ssp_glcd.c **** 				GLCD_Text(x,y,&format_flag,1,5,7,default5x7,size,color);
1128:../Source Files/lpc_ssp_glcd.c **** 				x=x+5*size+1;
1129:../Source Files/lpc_ssp_glcd.c **** 
1130:../Source Files/lpc_ssp_glcd.c **** 				continue;
1131:../Source Files/lpc_ssp_glcd.c **** 
1132:../Source Files/lpc_ssp_glcd.c **** 			default:
1133:../Source Files/lpc_ssp_glcd.c **** 			    if(x+5*size >= 320)          // Performs character wrapping
1134:../Source Files/lpc_ssp_glcd.c **** 			    {
1135:../Source Files/lpc_ssp_glcd.c **** 			       x = 0;                           // Set x at far left position
1136:../Source Files/lpc_ssp_glcd.c **** 			       y += 7*size + 1;                 // Set y at next position down
1137:../Source Files/lpc_ssp_glcd.c **** 			    }
1138:../Source Files/lpc_ssp_glcd.c **** 				GLCD_Text(x,y,&format_flag,1,5,7,default5x7,size,color);
1139:../Source Files/lpc_ssp_glcd.c **** 				x=x+5*size+1;
1140:../Source Files/lpc_ssp_glcd.c **** 
1141:../Source Files/lpc_ssp_glcd.c ****         		continue;
1142:../Source Files/lpc_ssp_glcd.c **** 
1143:../Source Files/lpc_ssp_glcd.c **** 			case 'b':
1144:../Source Files/lpc_ssp_glcd.c **** 				format_flag = va_arg(ap,int);
1145:../Source Files/lpc_ssp_glcd.c **** 			    if(x+5*size >= 320)          // Performs character wrapping
1146:../Source Files/lpc_ssp_glcd.c **** 			    {
1147:../Source Files/lpc_ssp_glcd.c **** 			       x = 0;                           // Set x at far left position
1148:../Source Files/lpc_ssp_glcd.c **** 			       y += 7*size + 1;                 // Set y at next position down
1149:../Source Files/lpc_ssp_glcd.c **** 			    }
1150:../Source Files/lpc_ssp_glcd.c **** 				GLCD_Text(x,y,&(hex[(uint16)format_flag >> 4]),1,5,7,default5x7,size,color);
1151:../Source Files/lpc_ssp_glcd.c **** 				x=x+5*size+1;
1152:../Source Files/lpc_ssp_glcd.c **** 			    if(x+5*size >= 320)          // Performs character wrapping
1153:../Source Files/lpc_ssp_glcd.c **** 			    {
1154:../Source Files/lpc_ssp_glcd.c **** 			       x = 0;                           // Set x at far left position
1155:../Source Files/lpc_ssp_glcd.c **** 			       y += 7*size + 1;                 // Set y at next position down
1156:../Source Files/lpc_ssp_glcd.c **** 			    }
1157:../Source Files/lpc_ssp_glcd.c **** 				GLCD_Text(x,y,&(hex[(uint16)format_flag & 0x0F]),1,5,7,default5x7,size,color);
1158:../Source Files/lpc_ssp_glcd.c **** 				x=x+5*size+1;
1159:../Source Files/lpc_ssp_glcd.c **** 
1160:../Source Files/lpc_ssp_glcd.c **** 				continue;
1161:../Source Files/lpc_ssp_glcd.c **** 
1162:../Source Files/lpc_ssp_glcd.c **** 			case 's':
1163:../Source Files/lpc_ssp_glcd.c **** 				ptr = va_arg(ap, schar *);
1164:../Source Files/lpc_ssp_glcd.c **** 				while(*ptr)
1165:../Source Files/lpc_ssp_glcd.c **** 				{
1166:../Source Files/lpc_ssp_glcd.c **** 				    if(x+5*size >= 320)          // Performs character wrapping
1167:../Source Files/lpc_ssp_glcd.c **** 				    {
1168:../Source Files/lpc_ssp_glcd.c **** 				       x = 0;                           // Set x at far left position
1169:../Source Files/lpc_ssp_glcd.c **** 				       y += 7*size + 1;                 // Set y at next position down
1170:../Source Files/lpc_ssp_glcd.c **** 				    }
1171:../Source Files/lpc_ssp_glcd.c **** 					GLCD_Text(x,y,&(*ptr++),1,5,7,default5x7,size,color);
1172:../Source Files/lpc_ssp_glcd.c **** 					x=x+5*size+1;
1173:../Source Files/lpc_ssp_glcd.c **** 				}
1174:../Source Files/lpc_ssp_glcd.c **** 
1175:../Source Files/lpc_ssp_glcd.c **** 				continue;
1176:../Source Files/lpc_ssp_glcd.c **** #ifdef RTC_MODE
1177:../Source Files/lpc_ssp_glcd.c **** 			case 't':
1178:../Source Files/lpc_ssp_glcd.c **** 				RTC_GetFullTime (LPC_RTC, &FullTime);
1179:../Source Files/lpc_ssp_glcd.c **** 			    gprintf(x,y,size,color, "%d02:%d02:%d02",FullTime.HOUR,FullTime.MIN,FullTime.SEC);
1180:../Source Files/lpc_ssp_glcd.c **** 
1181:../Source Files/lpc_ssp_glcd.c **** 				continue;
1182:../Source Files/lpc_ssp_glcd.c **** 
1183:../Source Files/lpc_ssp_glcd.c **** 			case 'y':
1184:../Source Files/lpc_ssp_glcd.c **** 				RTC_GetFullTime (LPC_RTC, &FullTime);
1185:../Source Files/lpc_ssp_glcd.c **** 			    gprintf(x,y,size,color, "%d02/%d02/%d04",FullTime.DOM,FullTime.MONTH,FullTime.YEAR);
1186:../Source Files/lpc_ssp_glcd.c **** 
1187:../Source Files/lpc_ssp_glcd.c **** 				continue;
1188:../Source Files/lpc_ssp_glcd.c **** 
1189:../Source Files/lpc_ssp_glcd.c **** 			case 'a':
1190:../Source Files/lpc_ssp_glcd.c **** 				RTC_GetFullAlarmTime (LPC_RTC, &FullTime);
1191:../Source Files/lpc_ssp_glcd.c **** 				gprintf(x,y,size,color, "Time: %d02:%d02:%d02",FullTime.HOUR,FullTime.MIN,FullTime.SEC);
1192:../Source Files/lpc_ssp_glcd.c **** 				gprintf(x,y,size,color, "  Date: %d02/%d02/%d04",FullTime.DOM,FullTime.MONTH,FullTime.YEAR);
1193:../Source Files/lpc_ssp_glcd.c **** 
1194:../Source Files/lpc_ssp_glcd.c **** 				continue;
1195:../Source Files/lpc_ssp_glcd.c **** #endif
1196:../Source Files/lpc_ssp_glcd.c **** 			case 'u':
1197:../Source Files/lpc_ssp_glcd.c **** 				base = 16;
1198:../Source Files/lpc_ssp_glcd.c **** 				div_val = 0x100000;
1199:../Source Files/lpc_ssp_glcd.c **** 				u_val = va_arg(ap, uint32_t);
1200:../Source Files/lpc_ssp_glcd.c **** 				do
1201:../Source Files/lpc_ssp_glcd.c **** 				{
1202:../Source Files/lpc_ssp_glcd.c **** 				    if(x+5*size >= 320)          // Performs character wrapping
1203:../Source Files/lpc_ssp_glcd.c **** 				    {
1204:../Source Files/lpc_ssp_glcd.c **** 				       x = 0;                           // Set x at far left position
1205:../Source Files/lpc_ssp_glcd.c **** 				       y += 7*size + 1;                 // Set y at next position down
1206:../Source Files/lpc_ssp_glcd.c **** 				    }
1207:../Source Files/lpc_ssp_glcd.c **** 					GLCD_Text(x,y,&(hex[u_val/div_val]),1,5,7,default5x7,size,color);
1208:../Source Files/lpc_ssp_glcd.c **** 					x=x+5*size+1;
1209:../Source Files/lpc_ssp_glcd.c **** 					u_val %= div_val;
1210:../Source Files/lpc_ssp_glcd.c **** 					div_val /= base;
1211:../Source Files/lpc_ssp_glcd.c **** 				}while(div_val);
1212:../Source Files/lpc_ssp_glcd.c **** 
1213:../Source Files/lpc_ssp_glcd.c **** 				continue;
1214:../Source Files/lpc_ssp_glcd.c **** 
1215:../Source Files/lpc_ssp_glcd.c **** 			case 'd':
1216:../Source Files/lpc_ssp_glcd.c **** 				base = 10;
1217:../Source Files/lpc_ssp_glcd.c **** 				fill_char = *format++;
1218:../Source Files/lpc_ssp_glcd.c **** 				format_flag = ( *format++ ) - '1';
1219:../Source Files/lpc_ssp_glcd.c **** 				div_val = width_dec[format_flag];
1220:../Source Files/lpc_ssp_glcd.c **** 				u_val = va_arg(ap,int);
1221:../Source Files/lpc_ssp_glcd.c **** 
1222:../Source Files/lpc_ssp_glcd.c **** 				if(((int)u_val) < 0)
1223:../Source Files/lpc_ssp_glcd.c **** 				{
1224:../Source Files/lpc_ssp_glcd.c **** 					u_val = - u_val;    // applied to unsigned type, result still unsigned
1225:../Source Files/lpc_ssp_glcd.c **** 					temp = '-';
1226:../Source Files/lpc_ssp_glcd.c **** 				    if(x+5*size >= 320)          // Performs character wrapping
1227:../Source Files/lpc_ssp_glcd.c **** 				    {
1228:../Source Files/lpc_ssp_glcd.c **** 				       x = 0;                           // Set x at far left position
1229:../Source Files/lpc_ssp_glcd.c **** 				       y += 7*size + 1;                 // Set y at next position down
1230:../Source Files/lpc_ssp_glcd.c **** 				    }
1231:../Source Files/lpc_ssp_glcd.c **** 				    GLCD_Text(x,y,&temp,1,5,7,default5x7,size,color);
1232:../Source Files/lpc_ssp_glcd.c **** 				    x=x+5*size+1;
1233:../Source Files/lpc_ssp_glcd.c **** 				}
1234:../Source Files/lpc_ssp_glcd.c **** 
1235:../Source Files/lpc_ssp_glcd.c **** 				goto  CONVERSION_LOOP;
1236:../Source Files/lpc_ssp_glcd.c **** 
1237:../Source Files/lpc_ssp_glcd.c **** 			case 'x':
1238:../Source Files/lpc_ssp_glcd.c **** 				base = 16;
1239:../Source Files/lpc_ssp_glcd.c **** 				fill_char = *format++;
1240:../Source Files/lpc_ssp_glcd.c **** 				format_flag = (*format++) - '1';
1241:../Source Files/lpc_ssp_glcd.c **** 				div_val = width_hex[format_flag];
1242:../Source Files/lpc_ssp_glcd.c **** 				u_val = va_arg(ap, int);
1243:../Source Files/lpc_ssp_glcd.c **** 
1244:../Source Files/lpc_ssp_glcd.c **** 				CONVERSION_LOOP:
1245:../Source Files/lpc_ssp_glcd.c **** 				while(div_val > 1 && div_val > u_val)
1246:../Source Files/lpc_ssp_glcd.c **** 				{
1247:../Source Files/lpc_ssp_glcd.c **** 					div_val /= base;
1248:../Source Files/lpc_ssp_glcd.c **** 				    if(x+5*size >= 320)          // Performs character wrapping
1249:../Source Files/lpc_ssp_glcd.c **** 				    {
1250:../Source Files/lpc_ssp_glcd.c **** 				       x = 0;                           // Set x at far left position
1251:../Source Files/lpc_ssp_glcd.c **** 				       y += 7*size + 1;                 // Set y at next position down
1252:../Source Files/lpc_ssp_glcd.c **** 				    }
1253:../Source Files/lpc_ssp_glcd.c **** 					GLCD_Text(x,y,&fill_char,1,5,7,default5x7,size,color);
1254:../Source Files/lpc_ssp_glcd.c **** 					x=x+5*size+1;
1255:../Source Files/lpc_ssp_glcd.c **** 				}
1256:../Source Files/lpc_ssp_glcd.c **** 
1257:../Source Files/lpc_ssp_glcd.c **** 				do
1258:../Source Files/lpc_ssp_glcd.c **** 				{
1259:../Source Files/lpc_ssp_glcd.c **** 				    if(x+5*size >= 320)          // Performs character wrapping
1260:../Source Files/lpc_ssp_glcd.c **** 				    {
1261:../Source Files/lpc_ssp_glcd.c **** 				       x = 0;                           // Set x at far left position
1262:../Source Files/lpc_ssp_glcd.c **** 				       y += 7*size + 1;                 // Set y at next position down
1263:../Source Files/lpc_ssp_glcd.c **** 				    }
1264:../Source Files/lpc_ssp_glcd.c **** 					GLCD_Text(x,y,&(hex[u_val/div_val]),1,5,7,default5x7,size,color);
1265:../Source Files/lpc_ssp_glcd.c **** 					x=x+5*size+1;
1266:../Source Files/lpc_ssp_glcd.c **** 					u_val %= div_val;
1267:../Source Files/lpc_ssp_glcd.c **** 					div_val /= base;
1268:../Source Files/lpc_ssp_glcd.c **** 				}while(div_val);
1269:../Source Files/lpc_ssp_glcd.c **** 		}// end of switch statement
1270:../Source Files/lpc_ssp_glcd.c **** 	}
1271:../Source Files/lpc_ssp_glcd.c **** 	return(0);
1272:../Source Files/lpc_ssp_glcd.c **** }
1273:../Source Files/lpc_ssp_glcd.c **** 
1274:../Source Files/lpc_ssp_glcd.c **** 
1275:../Source Files/lpc_ssp_glcd.c **** /*********************************************************************//**
1276:../Source Files/lpc_ssp_glcd.c ****  * @brief	    Draw Bar for Bar Graph (Dependent on Bar Graph Test)
1277:../Source Files/lpc_ssp_glcd.c ****  * @param[in]	index      Bar Number (from 1 to 10)
1278:../Source Files/lpc_ssp_glcd.c ****  *              width      Bar width
1279:../Source Files/lpc_ssp_glcd.c ****  *              per        Percentage height
1280:../Source Files/lpc_ssp_glcd.c ****  *              color      Bar Color
1281:../Source Files/lpc_ssp_glcd.c ****  * @return 		None
1282:../Source Files/lpc_ssp_glcd.c ****  **********************************************************************/
1283:../Source Files/lpc_ssp_glcd.c **** void GLCD_Bar(int16_t index,uint8_t width,int16_t per,uint16_t color)
1284:../Source Files/lpc_ssp_glcd.c **** {
1285:../Source Files/lpc_ssp_glcd.c **** 	/**************************************************************************
1286:../Source Files/lpc_ssp_glcd.c **** 	 * Par1 : const 30 indicates  ref distance line. 28 indicates spacing between
1287:../Source Files/lpc_ssp_glcd.c **** 	 * two bar graphs at multiples of 28, now as the center of bar is located
1288:../Source Files/lpc_ssp_glcd.c **** 	 * half of width should be left and other half on right, so after subracting
1289:../Source Files/lpc_ssp_glcd.c **** 	 * half width from center we get x point of bar.
1290:../Source Files/lpc_ssp_glcd.c **** 	 * Par2 : 220 is Y ref line so (220 - bar heigth) will give y point of bar.
1291:../Source Files/lpc_ssp_glcd.c **** 	 * Par4 : per*2 is scaling for 200 pixels for 100 percentage heigth.
1292:../Source Files/lpc_ssp_glcd.c **** 	 **************************************************************************/
1293:../Source Files/lpc_ssp_glcd.c **** 	if((per<=100) && (index<=10))
1294:../Source Files/lpc_ssp_glcd.c **** 	{
1295:../Source Files/lpc_ssp_glcd.c **** 		GLCD_Window_Fill(30+(index*26)-(width-(width/2)),220-(per*2),width,per*2,color);
1296:../Source Files/lpc_ssp_glcd.c **** 	}
1297:../Source Files/lpc_ssp_glcd.c **** }
1298:../Source Files/lpc_ssp_glcd.c **** 
1299:../Source Files/lpc_ssp_glcd.c **** 
1300:../Source Files/lpc_ssp_glcd.c **** /*********************************************************************//**
1301:../Source Files/lpc_ssp_glcd.c ****  * @brief	    Draw Line Bar for Bar Graph (Dependent on Bar Graph Test)
1302:../Source Files/lpc_ssp_glcd.c ****  * @param[in]	index      Bar Number (from 1 to 10)
1303:../Source Files/lpc_ssp_glcd.c ****  *              width      Bar width
1304:../Source Files/lpc_ssp_glcd.c ****  *              y          y_reference for bar
1305:../Source Files/lpc_ssp_glcd.c ****  *              per        Percentage height
1306:../Source Files/lpc_ssp_glcd.c ****  *              dec        decrement bar YES/NO or TRUE/FALSE
1307:../Source Files/lpc_ssp_glcd.c ****  *              color      Bar Color
1308:../Source Files/lpc_ssp_glcd.c ****  * @return 		None
1309:../Source Files/lpc_ssp_glcd.c ****  **********************************************************************/
1310:../Source Files/lpc_ssp_glcd.c **** void GLCD_LBar(int16_t index, uint8_t width, int16_t y, int16_t per, Bool dec,uint16_t color)
1311:../Source Files/lpc_ssp_glcd.c **** {
1312:../Source Files/lpc_ssp_glcd.c **** 	int16_t x1,x2,h,y_diff;
1313:../Source Files/lpc_ssp_glcd.c **** 
1314:../Source Files/lpc_ssp_glcd.c **** 	if(dec)
1315:../Source Files/lpc_ssp_glcd.c **** 	{
1316:../Source Files/lpc_ssp_glcd.c **** 		y_diff=y+(per);
1317:../Source Files/lpc_ssp_glcd.c **** 	}
1318:../Source Files/lpc_ssp_glcd.c **** 	else
1319:../Source Files/lpc_ssp_glcd.c **** 	{
1320:../Source Files/lpc_ssp_glcd.c **** 		y_diff=y-(per);
1321:../Source Files/lpc_ssp_glcd.c **** 	}
1322:../Source Files/lpc_ssp_glcd.c **** 
1323:../Source Files/lpc_ssp_glcd.c **** 	if((y_diff>=20) && (index<=10) && !dec)
1324:../Source Files/lpc_ssp_glcd.c **** 	{
1325:../Source Files/lpc_ssp_glcd.c **** 		for(h=0;h<=per;h++)
1326:../Source Files/lpc_ssp_glcd.c **** 		{
1327:../Source Files/lpc_ssp_glcd.c **** 			x1 = 30+(index*26)-(width-(width/2));
1328:../Source Files/lpc_ssp_glcd.c **** 			x2 = x1+width;
1329:../Source Files/lpc_ssp_glcd.c **** 			GLCD_Line(x1,y-h,x2,y-h,color);
1330:../Source Files/lpc_ssp_glcd.c **** 		}
1331:../Source Files/lpc_ssp_glcd.c **** 	}
1332:../Source Files/lpc_ssp_glcd.c **** 	else if(dec && (y_diff<=219) && (index<=10))
1333:../Source Files/lpc_ssp_glcd.c **** 	{
1334:../Source Files/lpc_ssp_glcd.c **** 		for(h=0;h<=per;h++)
1335:../Source Files/lpc_ssp_glcd.c **** 		{
1336:../Source Files/lpc_ssp_glcd.c **** 			x1 = 30+(index*26)-(width-(width/2));
1337:../Source Files/lpc_ssp_glcd.c **** 			x2 = x1+width;
1338:../Source Files/lpc_ssp_glcd.c **** 			GLCD_Line(x1,y+h,x2,y+h,color);
1339:../Source Files/lpc_ssp_glcd.c **** 		}
1340:../Source Files/lpc_ssp_glcd.c **** 	}
1341:../Source Files/lpc_ssp_glcd.c **** }
1342:../Source Files/lpc_ssp_glcd.c **** 
1343:../Source Files/lpc_ssp_glcd.c **** 
1344:../Source Files/lpc_ssp_glcd.c **** /*********************************************************************//**
1345:../Source Files/lpc_ssp_glcd.c ****  * @brief	    Display Bar Graph function
1346:../Source Files/lpc_ssp_glcd.c ****  * @param[in]	None
1347:../Source Files/lpc_ssp_glcd.c ****  * @return 		None
1348:../Source Files/lpc_ssp_glcd.c ****  **********************************************************************/
1349:../Source Files/lpc_ssp_glcd.c **** void Show_BarGraph(void)
1350:../Source Files/lpc_ssp_glcd.c **** {
1351:../Source Files/lpc_ssp_glcd.c **** 	COORDINATE_Type point1,point2,point3;
1352:../Source Files/lpc_ssp_glcd.c **** 	COLORCFG_Type tricfg;
1353:../Source Files/lpc_ssp_glcd.c ****     uint16_t y_scale,x_scale,i;
1354:../Source Files/lpc_ssp_glcd.c **** 
1355:../Source Files/lpc_ssp_glcd.c **** 	// X and Y lines
1356:../Source Files/lpc_ssp_glcd.c **** 	GLCD_Line(30,5,30,238,Black);
1357:../Source Files/lpc_ssp_glcd.c **** 	GLCD_Line(1,220,315,220,Black);
1358:../Source Files/lpc_ssp_glcd.c **** 
1359:../Source Files/lpc_ssp_glcd.c **** 	gprintf(22,5,1,Black,"Y");
1360:../Source Files/lpc_ssp_glcd.c **** 	gprintf(310,225,1,Black,"X");
1361:../Source Files/lpc_ssp_glcd.c **** 	gprintf(50,5,1,Black,"X=ADC-CH  Y=VAL  Y-MAX=4095  Y-UNIT=40.95");
1362:../Source Files/lpc_ssp_glcd.c **** 
1363:../Source Files/lpc_ssp_glcd.c **** 	// Y Line Arrows Top and Bottom
1364:../Source Files/lpc_ssp_glcd.c **** 	// Top arrow coordinates
1365:../Source Files/lpc_ssp_glcd.c **** 	point1.x = 30;
1366:../Source Files/lpc_ssp_glcd.c **** 	point1.y = 5;
1367:../Source Files/lpc_ssp_glcd.c **** 	point2.x = 28;
1368:../Source Files/lpc_ssp_glcd.c **** 	point2.y = 10;
1369:../Source Files/lpc_ssp_glcd.c **** 	point3.x = 32;
1370:../Source Files/lpc_ssp_glcd.c **** 	point3.y = 10;
1371:../Source Files/lpc_ssp_glcd.c **** 	tricfg.fill = YES;
1372:../Source Files/lpc_ssp_glcd.c **** 	tricfg.bndry= NO;
1373:../Source Files/lpc_ssp_glcd.c **** 	tricfg.fill_color=Black;
1374:../Source Files/lpc_ssp_glcd.c **** 	GLCD_Triangle(&point1,&point2,&point3,&tricfg);
1375:../Source Files/lpc_ssp_glcd.c **** 
1376:../Source Files/lpc_ssp_glcd.c **** 	// Bottom arrow coordinates
1377:../Source Files/lpc_ssp_glcd.c **** 	point1.x = 30;
1378:../Source Files/lpc_ssp_glcd.c **** 	point1.y = 238;
1379:../Source Files/lpc_ssp_glcd.c **** 	point2.x = 28;
1380:../Source Files/lpc_ssp_glcd.c **** 	point2.y = 233;
1381:../Source Files/lpc_ssp_glcd.c **** 	point3.x = 32;
1382:../Source Files/lpc_ssp_glcd.c **** 	point3.y = 233;
1383:../Source Files/lpc_ssp_glcd.c **** 	tricfg.fill = YES;
1384:../Source Files/lpc_ssp_glcd.c **** 	tricfg.bndry= NO;
1385:../Source Files/lpc_ssp_glcd.c **** 	tricfg.fill_color=Black;
1386:../Source Files/lpc_ssp_glcd.c **** 	GLCD_Triangle(&point1,&point2,&point3,&tricfg);
1387:../Source Files/lpc_ssp_glcd.c **** 
1388:../Source Files/lpc_ssp_glcd.c **** 	// X Line Arrows Left and Right
1389:../Source Files/lpc_ssp_glcd.c **** 	// Left arrow coordinates
1390:../Source Files/lpc_ssp_glcd.c **** 	point1.x = 1;
1391:../Source Files/lpc_ssp_glcd.c **** 	point1.y = 220;
1392:../Source Files/lpc_ssp_glcd.c **** 	point2.x = 6;
1393:../Source Files/lpc_ssp_glcd.c **** 	point2.y = 218;
1394:../Source Files/lpc_ssp_glcd.c **** 	point3.x = 6;
1395:../Source Files/lpc_ssp_glcd.c **** 	point3.y = 222;
1396:../Source Files/lpc_ssp_glcd.c **** 	tricfg.fill = YES;
1397:../Source Files/lpc_ssp_glcd.c **** 	tricfg.bndry= NO;
1398:../Source Files/lpc_ssp_glcd.c **** 	tricfg.fill_color=Black;
1399:../Source Files/lpc_ssp_glcd.c **** 	GLCD_Triangle(&point1,&point2,&point3,&tricfg);
1400:../Source Files/lpc_ssp_glcd.c **** 
1401:../Source Files/lpc_ssp_glcd.c **** 	// Right arrow coordinates
1402:../Source Files/lpc_ssp_glcd.c **** 	point1.x = 315;
1403:../Source Files/lpc_ssp_glcd.c **** 	point1.y = 220;
1404:../Source Files/lpc_ssp_glcd.c **** 	point2.x = 310;
1405:../Source Files/lpc_ssp_glcd.c **** 	point2.y = 218;
1406:../Source Files/lpc_ssp_glcd.c **** 	point3.x = 310;
1407:../Source Files/lpc_ssp_glcd.c **** 	point3.y = 222;
1408:../Source Files/lpc_ssp_glcd.c **** 	tricfg.fill = YES;
1409:../Source Files/lpc_ssp_glcd.c **** 	tricfg.bndry= NO;
1410:../Source Files/lpc_ssp_glcd.c **** 	tricfg.fill_color=Black;
1411:../Source Files/lpc_ssp_glcd.c **** 	GLCD_Triangle(&point1,&point2,&point3,&tricfg);
1412:../Source Files/lpc_ssp_glcd.c **** 
1413:../Source Files/lpc_ssp_glcd.c **** 	// X and Y scaling
1414:../Source Files/lpc_ssp_glcd.c **** 	gprintf(0,225,1,Black,"(0,0)");
1415:../Source Files/lpc_ssp_glcd.c **** 	for(y_scale=200,i=1; y_scale>=20; y_scale=y_scale-20,i++)
1416:../Source Files/lpc_ssp_glcd.c **** 	{
1417:../Source Files/lpc_ssp_glcd.c **** 		if(y_scale!=20)
1418:../Source Files/lpc_ssp_glcd.c **** 		{
1419:../Source Files/lpc_ssp_glcd.c **** 			gprintf(14,y_scale,1,Black,"%d02",i*10);
1420:../Source Files/lpc_ssp_glcd.c **** 		}
1421:../Source Files/lpc_ssp_glcd.c **** 		else
1422:../Source Files/lpc_ssp_glcd.c **** 		{
1423:../Source Files/lpc_ssp_glcd.c **** 			gprintf(10,y_scale,1,Black,"%d03",i*10);
1424:../Source Files/lpc_ssp_glcd.c **** 		}
1425:../Source Files/lpc_ssp_glcd.c **** 
1426:../Source Files/lpc_ssp_glcd.c **** 	}
1427:../Source Files/lpc_ssp_glcd.c **** 	for(x_scale=56,i=1; x_scale<=300; x_scale=x_scale+26,i++)
1428:../Source Files/lpc_ssp_glcd.c **** 	{
1429:../Source Files/lpc_ssp_glcd.c **** 		gprintf(x_scale,225,1,Black,"%d02",i);
1430:../Source Files/lpc_ssp_glcd.c **** 	}
1431:../Source Files/lpc_ssp_glcd.c **** }
1432:../Source Files/lpc_ssp_glcd.c **** 
1433:../Source Files/lpc_ssp_glcd.c **** 
1434:../Source Files/lpc_ssp_glcd.c **** /*********************************************************************//**
1435:../Source Files/lpc_ssp_glcd.c ****  * @brief	    This function writes commands to the GLCD
1436:../Source Files/lpc_ssp_glcd.c ****  * @param[in]	Command		command to be written on GLCD
1437:../Source Files/lpc_ssp_glcd.c ****  * @return 		status
1438:../Source Files/lpc_ssp_glcd.c ****  **********************************************************************/
1439:../Source Files/lpc_ssp_glcd.c **** uchar Write_Command_Glcd (uint8_t Command)
1440:../Source Files/lpc_ssp_glcd.c **** {
 273              		.loc 1 1440 0
 274              		.cfi_startproc
 275              		@ args = 0, pretend = 0, frame = 40
 276              		@ frame_needed = 0, uses_anonymous_args = 0
 277              	.LVL18:
 278 00a8 10B5     		push	{r4, lr}
 279              	.LCFI3:
 280              		.cfi_def_cfa_offset 8
 281              		.cfi_offset 4, -8
 282              		.cfi_offset 14, -4
 283 00aa 8AB0     		sub	sp, sp, #40
 284              	.LCFI4:
 285              		.cfi_def_cfa_offset 48
 286              		.loc 1 1440 0
 287 00ac 0AAC     		add	r4, sp, #40
 288 00ae 04F8210D 		strb	r0, [r4, #-33]!
1441:../Source Files/lpc_ssp_glcd.c **** 	SSP_DATA_SETUP_Type xferConfig;
1442:../Source Files/lpc_ssp_glcd.c **** 	uint8_t WriteStatus =0;
1443:../Source Files/lpc_ssp_glcd.c **** 	__IO uint32_t i;
1444:../Source Files/lpc_ssp_glcd.c **** 
1445:../Source Files/lpc_ssp_glcd.c **** 	GPIO_ClearValue(2, LCD_RS);  //select command mode
 289              		.loc 1 1445 0
 290 00b2 0121     		movs	r1, #1
 291 00b4 0220     		movs	r0, #2
 292              	.LVL19:
 293 00b6 FFF7FEFF 		bl	GPIO_ClearValue
 294              	.LVL20:
1446:../Source Files/lpc_ssp_glcd.c **** 
1447:../Source Files/lpc_ssp_glcd.c **** 	CS_Force1 (LPC_SSP1, DISABLE);                        /* Select device           */
 295              		.loc 1 1447 0
 296 00ba 1148     		ldr	r0, .L27
 297 00bc 0021     		movs	r1, #0
 298 00be FFF7FEFF 		bl	CS_Force1
 299              	.LVL21:
1448:../Source Files/lpc_ssp_glcd.c **** 	xferConfig.tx_data = &Command;               /* Send Instruction Byte    */
 300              		.loc 1 1448 0
 301 00c2 0494     		str	r4, [sp, #16]
1449:../Source Files/lpc_ssp_glcd.c **** 	xferConfig.rx_data = NULL;
 302              		.loc 1 1449 0
 303 00c4 0022     		movs	r2, #0
1450:../Source Files/lpc_ssp_glcd.c **** 	xferConfig.length = 1;
 304              		.loc 1 1450 0
 305 00c6 0124     		movs	r4, #1
1451:../Source Files/lpc_ssp_glcd.c **** 	WriteStatus = SSP_ReadWrite(LPC_SSP1, &xferConfig, SSP_TRANSFER_POLLING);
 306              		.loc 1 1451 0
 307 00c8 0D48     		ldr	r0, .L27
 308 00ca 04A9     		add	r1, sp, #16
1449:../Source Files/lpc_ssp_glcd.c **** 	xferConfig.rx_data = NULL;
 309              		.loc 1 1449 0
 310 00cc 0692     		str	r2, [sp, #24]
1450:../Source Files/lpc_ssp_glcd.c **** 	xferConfig.length = 1;
 311              		.loc 1 1450 0
 312 00ce 0894     		str	r4, [sp, #32]
 313              		.loc 1 1451 0
 314 00d0 FFF7FEFF 		bl	SSP_ReadWrite
 315              	.LVL22:
1452:../Source Files/lpc_ssp_glcd.c **** 
1453:../Source Files/lpc_ssp_glcd.c **** 	if(WriteStatus)
 316              		.loc 1 1453 0
 317 00d4 C0B2     		uxtb	r0, r0
 318 00d6 80B1     		cbz	r0, .L21
 319              	.LBB4:
 320              	.LBB5:
1454:../Source Files/lpc_ssp_glcd.c **** 	{
1455:../Source Files/lpc_ssp_glcd.c **** 		CS_Force1 (LPC_SSP1, ENABLE);                          /* CS high inactive        */
 321              		.loc 1 1455 0
 322 00d8 2146     		mov	r1, r4
 323 00da 0948     		ldr	r0, .L27
 324              	.LVL23:
 325 00dc FFF7FEFF 		bl	CS_Force1
 326              	.LVL24:
1456:../Source Files/lpc_ssp_glcd.c **** 		for(i=925; i>0; i--);
 327              		.loc 1 1456 0
 328 00e0 40F29D31 		movw	r1, #925
 329              	.L25:
 330              	.LVL25:
 331 00e4 0391     		str	r1, [sp, #12]
 332 00e6 039B     		ldr	r3, [sp, #12]
 333 00e8 13B1     		cbz	r3, .L26
 334              	.L23:
 335 00ea 0398     		ldr	r0, [sp, #12]
 336 00ec 411E     		subs	r1, r0, #1
 337              	.LVL26:
 338 00ee F9E7     		b	.L25
 339              	.LVL27:
 340              	.L26:
1457:../Source Files/lpc_ssp_glcd.c **** 		GPIO_SetValue(2, LCD_RS);  // select data mode
 341              		.loc 1 1457 0
 342 00f0 0220     		movs	r0, #2
 343 00f2 0121     		movs	r1, #1
 344 00f4 FFF7FEFF 		bl	GPIO_SetValue
 345              	.LVL28:
 346 00f8 0120     		movs	r0, #1
 347              	.L21:
 348              	.LBE5:
 349              	.LBE4:
1458:../Source Files/lpc_ssp_glcd.c **** 		return(1);
1459:../Source Files/lpc_ssp_glcd.c **** 	}
1460:../Source Files/lpc_ssp_glcd.c **** 	else
1461:../Source Files/lpc_ssp_glcd.c **** 		return(0);
1462:../Source Files/lpc_ssp_glcd.c **** }
 350              		.loc 1 1462 0
 351 00fa 0AB0     		add	sp, sp, #40
 352 00fc 10BD     		pop	{r4, pc}
 353              	.L28:
 354 00fe 00BF     		.align	2
 355              	.L27:
 356 0100 00000340 		.word	1073938432
 357              		.cfi_endproc
 358              	.LFE86:
 360              		.align	1
 361              		.global	Write_Data_Glcd
 362              		.thumb
 363              		.thumb_func
 365              	Write_Data_Glcd:
 366              	.LFB87:
1463:../Source Files/lpc_ssp_glcd.c **** 
1464:../Source Files/lpc_ssp_glcd.c **** 
1465:../Source Files/lpc_ssp_glcd.c **** /*********************************************************************//**
1466:../Source Files/lpc_ssp_glcd.c ****  * @brief	    This function writes data to the GLCD
1467:../Source Files/lpc_ssp_glcd.c ****  * @param[in]	data	data to be written on GLCD
1468:../Source Files/lpc_ssp_glcd.c ****  * @return 		None
1469:../Source Files/lpc_ssp_glcd.c ****  **********************************************************************/
1470:../Source Files/lpc_ssp_glcd.c **** uchar Write_Data_Glcd (uint16_t data)
1471:../Source Files/lpc_ssp_glcd.c **** {
 367              		.loc 1 1471 0
 368              		.cfi_startproc
 369              		@ args = 0, pretend = 0, frame = 24
 370              		@ frame_needed = 0, uses_anonymous_args = 0
 371              	.LVL29:
 372 0104 10B5     		push	{r4, lr}
 373              	.LCFI5:
 374              		.cfi_def_cfa_offset 8
 375              		.cfi_offset 4, -8
 376              		.cfi_offset 14, -4
1472:../Source Files/lpc_ssp_glcd.c **** 	SSP_DATA_SETUP_Type xferConfig;
1473:../Source Files/lpc_ssp_glcd.c **** 	uint8_t WriteStatus =0;
1474:../Source Files/lpc_ssp_glcd.c **** 
1475:../Source Files/lpc_ssp_glcd.c **** 	Tx_Buf1[0] = (uchar)(data>>8);    // 1st byte extract
 377              		.loc 1 1475 0
 378 0106 0F4C     		ldr	r4, .L32
1471:../Source Files/lpc_ssp_glcd.c **** {
 379              		.loc 1 1471 0
 380 0108 86B0     		sub	sp, sp, #24
 381              	.LCFI6:
 382              		.cfi_def_cfa_offset 32
 383              		.loc 1 1475 0
 384 010a 030A     		lsrs	r3, r0, #8
1476:../Source Files/lpc_ssp_glcd.c **** 	Tx_Buf1[1] = (uchar) data;        // 2nd byte extract
 385              		.loc 1 1476 0
 386 010c 6070     		strb	r0, [r4, #1]
1477:../Source Files/lpc_ssp_glcd.c **** 
1478:../Source Files/lpc_ssp_glcd.c **** 	GPIO_SetValue(2, LCD_RS);  // select data mode
 387              		.loc 1 1478 0
 388 010e 0121     		movs	r1, #1
 389 0110 0220     		movs	r0, #2
 390              	.LVL30:
1475:../Source Files/lpc_ssp_glcd.c **** 	Tx_Buf1[0] = (uchar)(data>>8);    // 1st byte extract
 391              		.loc 1 1475 0
 392 0112 2370     		strb	r3, [r4, #0]
 393              		.loc 1 1478 0
 394 0114 FFF7FEFF 		bl	GPIO_SetValue
 395              	.LVL31:
1479:../Source Files/lpc_ssp_glcd.c **** 
1480:../Source Files/lpc_ssp_glcd.c **** 	CS_Force1 (LPC_SSP1, DISABLE);                        /* Select device           */
 396              		.loc 1 1480 0
 397 0118 0B48     		ldr	r0, .L32+4
 398 011a 0021     		movs	r1, #0
 399 011c FFF7FEFF 		bl	CS_Force1
 400              	.LVL32:
1481:../Source Files/lpc_ssp_glcd.c **** 	xferConfig.tx_data = Tx_Buf1;               /* Send Instruction Byte    */
1482:../Source Files/lpc_ssp_glcd.c **** 	xferConfig.rx_data = NULL;
1483:../Source Files/lpc_ssp_glcd.c **** 	xferConfig.length = 2;
 401              		.loc 1 1483 0
 402 0120 0220     		movs	r0, #2
1482:../Source Files/lpc_ssp_glcd.c **** 	xferConfig.rx_data = NULL;
 403              		.loc 1 1482 0
 404 0122 0022     		movs	r2, #0
 405              		.loc 1 1483 0
 406 0124 0490     		str	r0, [sp, #16]
1484:../Source Files/lpc_ssp_glcd.c **** 	WriteStatus = SSP_ReadWrite(LPC_SSP1, &xferConfig, SSP_TRANSFER_POLLING);
 407              		.loc 1 1484 0
 408 0126 6946     		mov	r1, sp
 409 0128 0748     		ldr	r0, .L32+4
1481:../Source Files/lpc_ssp_glcd.c **** 	xferConfig.tx_data = Tx_Buf1;               /* Send Instruction Byte    */
 410              		.loc 1 1481 0
 411 012a 0094     		str	r4, [sp, #0]
1482:../Source Files/lpc_ssp_glcd.c **** 	xferConfig.rx_data = NULL;
 412              		.loc 1 1482 0
 413 012c 0292     		str	r2, [sp, #8]
 414              		.loc 1 1484 0
 415 012e FFF7FEFF 		bl	SSP_ReadWrite
 416              	.LVL33:
1485:../Source Files/lpc_ssp_glcd.c **** 
1486:../Source Files/lpc_ssp_glcd.c **** 	if(WriteStatus)
 417              		.loc 1 1486 0
 418 0132 C0B2     		uxtb	r0, r0
 419 0134 20B1     		cbz	r0, .L30
 420              	.LBB8:
 421              	.LBB9:
1487:../Source Files/lpc_ssp_glcd.c **** 	{
1488:../Source Files/lpc_ssp_glcd.c **** 		CS_Force1 (LPC_SSP1, ENABLE);                          /* CS high inactive        */
 422              		.loc 1 1488 0
 423 0136 0448     		ldr	r0, .L32+4
 424              	.LVL34:
 425 0138 0121     		movs	r1, #1
 426 013a FFF7FEFF 		bl	CS_Force1
 427              	.LVL35:
 428 013e 0120     		movs	r0, #1
 429              	.L30:
 430              	.LBE9:
 431              	.LBE8:
1489:../Source Files/lpc_ssp_glcd.c **** 		return(1);
1490:../Source Files/lpc_ssp_glcd.c **** 	}
1491:../Source Files/lpc_ssp_glcd.c **** 	else
1492:../Source Files/lpc_ssp_glcd.c **** 		return(0);
1493:../Source Files/lpc_ssp_glcd.c **** }
 432              		.loc 1 1493 0
 433 0140 06B0     		add	sp, sp, #24
 434 0142 10BD     		pop	{r4, pc}
 435              	.L33:
 436              		.align	2
 437              	.L32:
 438 0144 00000000 		.word	Tx_Buf1
 439 0148 00000340 		.word	1073938432
 440              		.cfi_endproc
 441              	.LFE87:
 443              		.align	1
 444              		.global	GLCD_Bargraph
 445              		.thumb
 446              		.thumb_func
 448              	GLCD_Bargraph:
 449              	.LFB73:
 503:../Source Files/lpc_ssp_glcd.c **** {
 450              		.loc 1 503 0
 451              		.cfi_startproc
 452              		@ args = 4, pretend = 0, frame = 0
 453              		@ frame_needed = 0, uses_anonymous_args = 0
 454              	.LVL36:
 455 014c 2DE9F041 		push	{r4, r5, r6, r7, r8, lr}
 456              	.LCFI7:
 457              		.cfi_def_cfa_offset 24
 458              		.cfi_offset 4, -24
 459              		.cfi_offset 5, -20
 460              		.cfi_offset 6, -16
 461              		.cfi_offset 7, -12
 462              		.cfi_offset 8, -8
 463              		.cfi_offset 14, -4
 503:../Source Files/lpc_ssp_glcd.c **** {
 464              		.loc 1 503 0
 465 0150 0646     		mov	r6, r0
 506:../Source Files/lpc_ssp_glcd.c **** 	Write_Command_Glcd(0x45);      /* Horizontal GRAM Start Address      */
 466              		.loc 1 506 0
 467 0152 4520     		movs	r0, #69
 468              	.LVL37:
 503:../Source Files/lpc_ssp_glcd.c **** {
 469              		.loc 1 503 0
 470 0154 1546     		mov	r5, r2
 471 0156 1F46     		mov	r7, r3
 472 0158 0C46     		mov	r4, r1
 473 015a BDF81880 		ldrh	r8, [sp, #24]
 506:../Source Files/lpc_ssp_glcd.c **** 	Write_Command_Glcd(0x45);      /* Horizontal GRAM Start Address      */
 474              		.loc 1 506 0
 475 015e FFF7FEFF 		bl	Write_Command_Glcd
 476              	.LVL38:
 507:../Source Files/lpc_ssp_glcd.c **** 	Write_Data_Glcd(x);
 477              		.loc 1 507 0
 478 0162 3046     		mov	r0, r6
 479 0164 FFF7FEFF 		bl	Write_Data_Glcd
 480              	.LVL39:
 509:../Source Files/lpc_ssp_glcd.c **** 	Write_Command_Glcd(0x46);      /* Horizontal GRAM End   Address (-1) */
 481              		.loc 1 509 0
 482 0168 4620     		movs	r0, #70
 483 016a FFF7FEFF 		bl	Write_Command_Glcd
 484              	.LVL40:
 510:../Source Files/lpc_ssp_glcd.c **** 	Write_Data_Glcd(x+w-1);
 485              		.loc 1 510 0
 486 016e 701E     		subs	r0, r6, #1
 487 0170 2918     		adds	r1, r5, r0
 488 0172 88B2     		uxth	r0, r1
 489 0174 FFF7FEFF 		bl	Write_Data_Glcd
 490              	.LVL41:
 512:../Source Files/lpc_ssp_glcd.c **** 	Write_Command_Glcd(0x44);      /* Vertical   GRAM Start Address      */
 491              		.loc 1 512 0
 492 0178 4420     		movs	r0, #68
 493 017a FFF7FEFF 		bl	Write_Command_Glcd
 494              	.LVL42:
 513:../Source Files/lpc_ssp_glcd.c **** 	Write_Data_Glcd(y);
 495              		.loc 1 513 0
 496 017e 2046     		mov	r0, r4
 497 0180 FFF7FEFF 		bl	Write_Data_Glcd
 498              	.LVL43:
 515:../Source Files/lpc_ssp_glcd.c **** 	Write_Command_Glcd(0x44);      /* Vertical   GRAM End   Address (-1) */
 499              		.loc 1 515 0
 500 0184 4420     		movs	r0, #68
 501 0186 FFF7FEFF 		bl	Write_Command_Glcd
 502              	.LVL44:
 516:../Source Files/lpc_ssp_glcd.c **** 	Write_Data_Glcd((y+CHAR_H-1)<<8);
 503              		.loc 1 516 0
 504 018a 04F11702 		add	r2, r4, #23
 505 018e 1302     		lsls	r3, r2, #8
 506 0190 03F47F40 		and	r0, r3, #65280
 507 0194 FFF7FEFF 		bl	Write_Data_Glcd
 508              	.LVL45:
 518:../Source Files/lpc_ssp_glcd.c **** 	Write_Command_Glcd(0x4E);     /* GDDRAM Horizontal */
 509              		.loc 1 518 0
 510 0198 4E20     		movs	r0, #78
 511 019a FFF7FEFF 		bl	Write_Command_Glcd
 512              	.LVL46:
 519:../Source Files/lpc_ssp_glcd.c **** 	Write_Data_Glcd(x);
 513              		.loc 1 519 0
 514 019e 3046     		mov	r0, r6
 515 01a0 FFF7FEFF 		bl	Write_Data_Glcd
 516              	.LVL47:
 521:../Source Files/lpc_ssp_glcd.c **** 	Write_Command_Glcd(0x4F);     /* GDDRAM Vertical */
 517              		.loc 1 521 0
 518 01a4 4F20     		movs	r0, #79
 519 01a6 FFF7FEFF 		bl	Write_Command_Glcd
 520              	.LVL48:
 522:../Source Files/lpc_ssp_glcd.c **** 	Write_Data_Glcd(y);
 521              		.loc 1 522 0
 522 01aa 2046     		mov	r0, r4
 523 01ac FFF7FEFF 		bl	Write_Data_Glcd
 524              	.LVL49:
 524:../Source Files/lpc_ssp_glcd.c **** 	Write_Command_Glcd(0x22);
 525              		.loc 1 524 0
 526 01b0 2220     		movs	r0, #34
 527 01b2 FFF7FEFF 		bl	Write_Command_Glcd
 528              	.LVL50:
 528:../Source Files/lpc_ssp_glcd.c **** 	wr_dat_start();
 529              		.loc 1 528 0
 530 01b6 FFF723FF 		bl	wr_dat_start
 531              	.LVL51:
 526:../Source Files/lpc_ssp_glcd.c **** 	val = (val * w) >> 10;                /* Scale value for 24x12 characters   */
 532              		.loc 1 526 0
 533 01ba 05FB08F6 		mul	r6, r5, r8
 534 01be 4FEAA628 		asr	r8, r6, #10
 535              	.LVL52:
 529:../Source Files/lpc_ssp_glcd.c **** 	for (i = h; i >0; i--)
 536              		.loc 1 529 0
 537 01c2 0026     		movs	r6, #0
 538              	.LVL53:
 539              	.L35:
 529:../Source Files/lpc_ssp_glcd.c **** 	for (i = h; i >0; i--)
 540              		.loc 1 529 0 is_stmt 0 discriminator 1
 541 01c4 B742     		cmp	r7, r6
 542 01c6 10D0     		beq	.L42
 543              	.L40:
 529:../Source Files/lpc_ssp_glcd.c **** 	for (i = h; i >0; i--)
 544              		.loc 1 529 0
 545 01c8 0024     		movs	r4, #0
 546              	.L39:
 547              	.LVL54:
 531:../Source Files/lpc_ssp_glcd.c **** 		for (j = 0; j <= w-1; j++)
 548              		.loc 1 531 0 is_stmt 1 discriminator 1
 549 01ca A542     		cmp	r5, r4
 550 01cc 0BDD     		ble	.L43
 551              	.L38:
 533:../Source Files/lpc_ssp_glcd.c **** 			if(j <= val)
 552              		.loc 1 533 0
 553 01ce 1FFA88F0 		uxth	r0, r8
 554 01d2 8442     		cmp	r4, r0
 535:../Source Files/lpc_ssp_glcd.c **** 				wr_dat_only(BackColor);
 555              		.loc 1 535 0
 556 01d4 D4BF     		ite	le
 557 01d6 0748     		ldrle	r0, .L44
 539:../Source Files/lpc_ssp_glcd.c **** 				wr_dat_only(TextColor);
 558              		.loc 1 539 0
 559 01d8 0748     		ldrgt	r0, .L44+4
 531:../Source Files/lpc_ssp_glcd.c **** 		for (j = 0; j <= w-1; j++)
 560              		.loc 1 531 0
 561 01da 0134     		adds	r4, r4, #1
 562              	.LVL55:
 539:../Source Files/lpc_ssp_glcd.c **** 				wr_dat_only(TextColor);
 563              		.loc 1 539 0
 564 01dc 0188     		ldrh	r1, [r0, #0]
 565 01de 88B2     		uxth	r0, r1
 566 01e0 FFF722FF 		bl	wr_dat_only
 567              	.LVL56:
 568 01e4 F1E7     		b	.L39
 569              	.L43:
 570 01e6 0136     		adds	r6, r6, #1
 571 01e8 ECE7     		b	.L35
 572              	.LVL57:
 573              	.L42:
 544:../Source Files/lpc_ssp_glcd.c **** }
 574              		.loc 1 544 0
 575 01ea BDE8F041 		pop	{r4, r5, r6, r7, r8, lr}
 543:../Source Files/lpc_ssp_glcd.c **** 	wr_dat_stop();
 576              		.loc 1 543 0
 577 01ee FFF715BF 		b	wr_dat_stop
 578              	.LVL58:
 579              	.L45:
 580 01f2 00BF     		.align	2
 581              	.L44:
 582 01f4 00000000 		.word	.LANCHOR1
 583 01f8 00000000 		.word	.LANCHOR0
 584              		.cfi_endproc
 585              	.LFE73:
 587              		.align	1
 588              		.global	GLCD_Draw_Char
 589              		.thumb
 590              		.thumb_func
 592              	GLCD_Draw_Char:
 593              	.LFB69:
 406:../Source Files/lpc_ssp_glcd.c **** {
 594              		.loc 1 406 0
 595              		.cfi_startproc
 596              		@ args = 0, pretend = 0, frame = 0
 597              		@ frame_needed = 0, uses_anonymous_args = 0
 598              	.LVL59:
 599 01fc F8B5     		push	{r3, r4, r5, r6, r7, lr}
 600              	.LCFI8:
 601              		.cfi_def_cfa_offset 24
 602              		.cfi_offset 3, -24
 603              		.cfi_offset 4, -20
 604              		.cfi_offset 5, -16
 605              		.cfi_offset 6, -12
 606              		.cfi_offset 7, -8
 607              		.cfi_offset 14, -4
 409:../Source Files/lpc_ssp_glcd.c **** 	x = x-CHAR_W;
 608              		.loc 1 409 0
 609 01fe A0F11005 		sub	r5, r0, #16
 610 0202 ADB2     		uxth	r5, r5
 611              	.LVL60:
 406:../Source Files/lpc_ssp_glcd.c **** {
 612              		.loc 1 406 0
 613 0204 0646     		mov	r6, r0
 411:../Source Files/lpc_ssp_glcd.c **** 	Write_Command_Glcd(0x45);      /* Horizontal GRAM Start Address      */
 614              		.loc 1 411 0
 615 0206 4520     		movs	r0, #69
 406:../Source Files/lpc_ssp_glcd.c **** {
 616              		.loc 1 406 0
 617 0208 0C46     		mov	r4, r1
 618 020a 1746     		mov	r7, r2
 411:../Source Files/lpc_ssp_glcd.c **** 	Write_Command_Glcd(0x45);      /* Horizontal GRAM Start Address      */
 619              		.loc 1 411 0
 620 020c FFF7FEFF 		bl	Write_Command_Glcd
 621              	.LVL61:
 412:../Source Files/lpc_ssp_glcd.c **** 	Write_Data_Glcd(x);
 622              		.loc 1 412 0
 623 0210 2846     		mov	r0, r5
 624 0212 FFF7FEFF 		bl	Write_Data_Glcd
 625              	.LVL62:
 414:../Source Files/lpc_ssp_glcd.c **** 	Write_Command_Glcd(0x46);      /* Horizontal GRAM End   Address (-1) */
 626              		.loc 1 414 0
 627 0216 4620     		movs	r0, #70
 628 0218 FFF7FEFF 		bl	Write_Command_Glcd
 629              	.LVL63:
 415:../Source Files/lpc_ssp_glcd.c **** 	Write_Data_Glcd(x+CHAR_W-1);
 630              		.loc 1 415 0
 631 021c 701E     		subs	r0, r6, #1
 632 021e 80B2     		uxth	r0, r0
 633 0220 FFF7FEFF 		bl	Write_Data_Glcd
 634              	.LVL64:
 417:../Source Files/lpc_ssp_glcd.c **** 	Write_Command_Glcd(0x44);      /* Vertical   GRAM Start Address      */
 635              		.loc 1 417 0
 636 0224 4420     		movs	r0, #68
 637 0226 FFF7FEFF 		bl	Write_Command_Glcd
 638              	.LVL65:
 418:../Source Files/lpc_ssp_glcd.c **** 	Write_Data_Glcd(y);
 639              		.loc 1 418 0
 640 022a 2046     		mov	r0, r4
 641 022c FFF7FEFF 		bl	Write_Data_Glcd
 642              	.LVL66:
 420:../Source Files/lpc_ssp_glcd.c **** 	Write_Command_Glcd(0x44);      /* Vertical   GRAM End   Address (-1) */
 643              		.loc 1 420 0
 644 0230 4420     		movs	r0, #68
 645 0232 FFF7FEFF 		bl	Write_Command_Glcd
 646              	.LVL67:
 421:../Source Files/lpc_ssp_glcd.c **** 	Write_Data_Glcd((y+CHAR_H-1)<<8);
 647              		.loc 1 421 0
 648 0236 04F11701 		add	r1, r4, #23
 649 023a 0A02     		lsls	r2, r1, #8
 650 023c 02F47F40 		and	r0, r2, #65280
 651 0240 FFF7FEFF 		bl	Write_Data_Glcd
 652              	.LVL68:
 423:../Source Files/lpc_ssp_glcd.c **** 	Write_Command_Glcd(0x4E);     /* GDDRAM Horizontal */
 653              		.loc 1 423 0
 654 0244 4E20     		movs	r0, #78
 655 0246 FFF7FEFF 		bl	Write_Command_Glcd
 656              	.LVL69:
 424:../Source Files/lpc_ssp_glcd.c **** 	Write_Data_Glcd(x);
 657              		.loc 1 424 0
 658 024a 2846     		mov	r0, r5
 659 024c FFF7FEFF 		bl	Write_Data_Glcd
 660              	.LVL70:
 426:../Source Files/lpc_ssp_glcd.c **** 	Write_Command_Glcd(0x4F);     /* GDDRAM Vertical */
 661              		.loc 1 426 0
 662 0250 4F20     		movs	r0, #79
 663 0252 FFF7FEFF 		bl	Write_Command_Glcd
 664              	.LVL71:
 427:../Source Files/lpc_ssp_glcd.c **** 	Write_Data_Glcd(y);
 665              		.loc 1 427 0
 666 0256 2046     		mov	r0, r4
 667 0258 FFF7FEFF 		bl	Write_Data_Glcd
 668              	.LVL72:
 429:../Source Files/lpc_ssp_glcd.c **** 	Write_Command_Glcd(0x22);
 669              		.loc 1 429 0
 670 025c 2220     		movs	r0, #34
 671 025e FFF7FEFF 		bl	Write_Command_Glcd
 672              	.LVL73:
 431:../Source Files/lpc_ssp_glcd.c **** 	wr_dat_start();
 673              		.loc 1 431 0
 674 0262 FFF7CDFE 		bl	wr_dat_start
 675              	.LVL74:
 676 0266 0025     		movs	r5, #0
 677              	.LVL75:
 678              	.L47:
 406:../Source Files/lpc_ssp_glcd.c **** {
 679              		.loc 1 406 0 discriminator 1
 680 0268 0024     		movs	r4, #0
 681              	.LVL76:
 682              	.L50:
 436:../Source Files/lpc_ssp_glcd.c **** 			if((c[idx] & (1 << i)) == 0x00)
 683              		.loc 1 436 0
 684 026a 7B5B     		ldrh	r3, [r7, r5]
 685 026c 43FA04F3 		asr	r3, r3, r4
 686 0270 D807     		lsls	r0, r3, #31
 438:../Source Files/lpc_ssp_glcd.c **** 				wr_dat_only(BackColor);
 687              		.loc 1 438 0
 688 0272 54BF     		ite	pl
 689 0274 0748     		ldrpl	r0, .L54
 442:../Source Files/lpc_ssp_glcd.c **** 				wr_dat_only(TextColor);
 690              		.loc 1 442 0
 691 0276 0848     		ldrmi	r0, .L54+4
 434:../Source Files/lpc_ssp_glcd.c **** 		for (i = 0; i<CHAR_W; i++)
 692              		.loc 1 434 0
 693 0278 0134     		adds	r4, r4, #1
 442:../Source Files/lpc_ssp_glcd.c **** 				wr_dat_only(TextColor);
 694              		.loc 1 442 0
 695 027a 0188     		ldrh	r1, [r0, #0]
 696 027c 88B2     		uxth	r0, r1
 697 027e FFF7D3FE 		bl	wr_dat_only
 698              	.LVL77:
 434:../Source Files/lpc_ssp_glcd.c **** 		for (i = 0; i<CHAR_W; i++)
 699              		.loc 1 434 0
 700 0282 102C     		cmp	r4, #16
 701 0284 F1D1     		bne	.L50
 702 0286 0235     		adds	r5, r5, #2
 432:../Source Files/lpc_ssp_glcd.c **** 	for (j = 0; j < CHAR_H; j++)
 703              		.loc 1 432 0
 704 0288 302D     		cmp	r5, #48
 705 028a EDD1     		bne	.L47
 706              	.L51:
 448:../Source Files/lpc_ssp_glcd.c **** }
 707              		.loc 1 448 0
 708 028c BDE8F840 		pop	{r3, r4, r5, r6, r7, lr}
 447:../Source Files/lpc_ssp_glcd.c **** 	wr_dat_stop();
 709              		.loc 1 447 0
 710 0290 FFF7C4BE 		b	wr_dat_stop
 711              	.LVL78:
 712              	.L55:
 713              		.align	2
 714              	.L54:
 715 0294 00000000 		.word	.LANCHOR1
 716 0298 00000000 		.word	.LANCHOR0
 717              		.cfi_endproc
 718              	.LFE69:
 720              		.align	1
 721              		.global	GLCD_Display_Char
 722              		.thumb
 723              		.thumb_func
 725              	GLCD_Display_Char:
 726              	.LFB70:
 459:../Source Files/lpc_ssp_glcd.c **** {
 727              		.loc 1 459 0
 728              		.cfi_startproc
 729              		@ args = 0, pretend = 0, frame = 0
 730              		@ frame_needed = 0, uses_anonymous_args = 0
 731              	.LVL79:
 460:../Source Files/lpc_ssp_glcd.c **** 	c -= 32;
 732              		.loc 1 460 0
 733 029c 203A     		subs	r2, r2, #32
 734              	.LVL80:
 461:../Source Files/lpc_ssp_glcd.c **** 	GLCD_Draw_Char(col * CHAR_W, ln * CHAR_H, (uint16_t *)&Font_24x16[c * CHAR_H]);
 735              		.loc 1 461 0
 736 029e 1823     		movs	r3, #24
 737 02a0 D2B2     		uxtb	r2, r2
 738 02a2 5843     		muls	r0, r3, r0
 739              	.LVL81:
 459:../Source Files/lpc_ssp_glcd.c **** {
 740              		.loc 1 459 0
 741 02a4 10B5     		push	{r4, lr}
 742              	.LCFI9:
 743              		.cfi_def_cfa_offset 8
 744              		.cfi_offset 4, -8
 745              		.cfi_offset 14, -4
 461:../Source Files/lpc_ssp_glcd.c **** 	GLCD_Draw_Char(col * CHAR_W, ln * CHAR_H, (uint16_t *)&Font_24x16[c * CHAR_H]);
 746              		.loc 1 461 0
 747 02a6 5343     		muls	r3, r2, r3
 748 02a8 0901     		lsls	r1, r1, #4
 749              	.LVL82:
 750 02aa 054A     		ldr	r2, .L57
 751 02ac 8CB2     		uxth	r4, r1
 752 02ae 02EB4302 		add	r2, r2, r3, lsl #1
 753 02b2 81B2     		uxth	r1, r0
 754 02b4 2046     		mov	r0, r4
 462:../Source Files/lpc_ssp_glcd.c **** }
 755              		.loc 1 462 0
 756 02b6 BDE81040 		pop	{r4, lr}
 461:../Source Files/lpc_ssp_glcd.c **** 	GLCD_Draw_Char(col * CHAR_W, ln * CHAR_H, (uint16_t *)&Font_24x16[c * CHAR_H]);
 757              		.loc 1 461 0
 758 02ba FFF7FEBF 		b	GLCD_Draw_Char
 759              	.LVL83:
 760              	.L58:
 761 02be 00BF     		.align	2
 762              	.L57:
 763 02c0 00000000 		.word	.LANCHOR2
 764              		.cfi_endproc
 765              	.LFE70:
 767              		.align	1
 768              		.global	GLCD_PutPixel
 769              		.thumb
 770              		.thumb_func
 772              	GLCD_PutPixel:
 773              	.LFB62:
 297:../Source Files/lpc_ssp_glcd.c **** {
 774              		.loc 1 297 0
 775              		.cfi_startproc
 776              		@ args = 0, pretend = 0, frame = 0
 777              		@ frame_needed = 0, uses_anonymous_args = 0
 778              	.LVL84:
 779 02c4 70B5     		push	{r4, r5, r6, lr}
 780              	.LCFI10:
 781              		.cfi_def_cfa_offset 16
 782              		.cfi_offset 4, -16
 783              		.cfi_offset 5, -12
 784              		.cfi_offset 6, -8
 785              		.cfi_offset 14, -4
 297:../Source Files/lpc_ssp_glcd.c **** {
 786              		.loc 1 297 0
 787 02c6 0446     		mov	r4, r0
 298:../Source Files/lpc_ssp_glcd.c **** 	Write_Command_Glcd(0x4E);     /* GDDRAM Horizontal */
 788              		.loc 1 298 0
 789 02c8 4E20     		movs	r0, #78
 790              	.LVL85:
 297:../Source Files/lpc_ssp_glcd.c **** {
 791              		.loc 1 297 0
 792 02ca 0D46     		mov	r5, r1
 793 02cc 1646     		mov	r6, r2
 298:../Source Files/lpc_ssp_glcd.c **** 	Write_Command_Glcd(0x4E);     /* GDDRAM Horizontal */
 794              		.loc 1 298 0
 795 02ce FFF7FEFF 		bl	Write_Command_Glcd
 796              	.LVL86:
 299:../Source Files/lpc_ssp_glcd.c **** 	Write_Data_Glcd(x);
 797              		.loc 1 299 0
 798 02d2 2046     		mov	r0, r4
 799 02d4 FFF7FEFF 		bl	Write_Data_Glcd
 800              	.LVL87:
 301:../Source Files/lpc_ssp_glcd.c **** 	Write_Command_Glcd(0x4F);     /* GDDRAM Vertical */
 801              		.loc 1 301 0
 802 02d8 4F20     		movs	r0, #79
 803 02da FFF7FEFF 		bl	Write_Command_Glcd
 804              	.LVL88:
 302:../Source Files/lpc_ssp_glcd.c **** 	Write_Data_Glcd(y);
 805              		.loc 1 302 0
 806 02de 2846     		mov	r0, r5
 807 02e0 FFF7FEFF 		bl	Write_Data_Glcd
 808              	.LVL89:
 304:../Source Files/lpc_ssp_glcd.c **** 	Write_Command_Glcd(0x22);      /* RAM data write     */
 809              		.loc 1 304 0
 810 02e4 2220     		movs	r0, #34
 811 02e6 FFF7FEFF 		bl	Write_Command_Glcd
 812              	.LVL90:
 305:../Source Files/lpc_ssp_glcd.c **** 	Write_Data_Glcd(color);
 813              		.loc 1 305 0
 814 02ea 3046     		mov	r0, r6
 306:../Source Files/lpc_ssp_glcd.c **** }
 815              		.loc 1 306 0
 816 02ec BDE87040 		pop	{r4, r5, r6, lr}
 305:../Source Files/lpc_ssp_glcd.c **** 	Write_Data_Glcd(color);
 817              		.loc 1 305 0
 818 02f0 FFF7FEBF 		b	Write_Data_Glcd
 819              	.LVL91:
 820              		.cfi_endproc
 821              	.LFE62:
 823              		.align	1
 824              		.global	GLCD_Text
 825              		.thumb
 826              		.thumb_func
 828              	GLCD_Text:
 829              	.LFB81:
1022:../Source Files/lpc_ssp_glcd.c **** {
 830              		.loc 1 1022 0
 831              		.cfi_startproc
 832              		@ args = 20, pretend = 0, frame = 64
 833              		@ frame_needed = 1, uses_anonymous_args = 0
 834              	.LVL92:
 835 02f4 2DE9F04F 		push	{r4, r5, r6, r7, r8, r9, sl, fp, lr}
 836              	.LCFI11:
 837              		.cfi_def_cfa_offset 36
 838              		.cfi_offset 4, -36
 839              		.cfi_offset 5, -32
 840              		.cfi_offset 6, -28
 841              		.cfi_offset 7, -24
 842              		.cfi_offset 8, -20
 843              		.cfi_offset 9, -16
 844              		.cfi_offset 10, -12
 845              		.cfi_offset 11, -8
 846              		.cfi_offset 14, -4
 847 02f8 91B0     		sub	sp, sp, #68
 848              	.LCFI12:
 849              		.cfi_def_cfa_offset 104
 850 02fa 00AF     		add	r7, sp, #0
 851              	.LCFI13:
 852              		.cfi_def_cfa_register 7
1022:../Source Files/lpc_ssp_glcd.c **** {
 853              		.loc 1 1022 0
 854 02fc 97F97450 		ldrsb	r5, [r7, #116]
 855 0300 3B61     		str	r3, [r7, #16]
 856 0302 B7F87830 		ldrh	r3, [r7, #120]
 857              	.LVL93:
 858 0306 97F86840 		ldrb	r4, [r7, #104]	@ zero_extendqisi2
 859              	.LVL94:
 860 030a FB60     		str	r3, [r7, #12]
 861              	.LBB10:
1033:../Source Files/lpc_ssp_glcd.c ****          y += row*size + 1;                 // Set y at next position down
 862              		.loc 1 1033 0
 863 030c ABB2     		uxth	r3, r5
 864              	.LBE10:
1022:../Source Files/lpc_ssp_glcd.c **** {
 865              		.loc 1 1022 0
 866 030e 7A61     		str	r2, [r7, #20]
 867              	.LBB11:
1033:../Source Files/lpc_ssp_glcd.c ****          y += row*size + 1;                 // Set y at next position down
 868              		.loc 1 1033 0
 869 0310 7B63     		str	r3, [r7, #52]
1037:../Source Files/lpc_ssp_glcd.c ****          for(k=0; k<col*size; ++k)          // Loop through the vertical pixels
 870              		.loc 1 1037 0
 871 0312 97F86C20 		ldrb	r2, [r7, #108]	@ zero_extendqisi2
 872              	.LVL95:
1033:../Source Files/lpc_ssp_glcd.c ****          y += row*size + 1;                 // Set y at next position down
 873              		.loc 1 1033 0
 874 0316 6343     		muls	r3, r4, r3
1030:../Source Files/lpc_ssp_glcd.c ****       if(x+row*size >= 320)          // Performs character wrapping
 875              		.loc 1 1030 0
 876 0318 05FB04F6 		mul	r6, r5, r4
1037:../Source Files/lpc_ssp_glcd.c ****          for(k=0; k<col*size; ++k)          // Loop through the vertical pixels
 877              		.loc 1 1037 0
 878 031c 6A43     		muls	r2, r5, r2
 879              	.LBE11:
1022:../Source Files/lpc_ssp_glcd.c **** {
 880              		.loc 1 1022 0
 881 031e F863     		str	r0, [r7, #60]
1024:../Source Files/lpc_ssp_glcd.c ****    int8_t pixelData[row];                     // Stores character data
 882              		.loc 1 1024 0
 883 0320 E01D     		adds	r0, r4, #7
 884              	.LVL96:
1022:../Source Files/lpc_ssp_glcd.c **** {
 885              		.loc 1 1022 0
 886 0322 3963     		str	r1, [r7, #48]
1024:../Source Files/lpc_ssp_glcd.c ****    int8_t pixelData[row];                     // Stores character data
 887              		.loc 1 1024 0
 888 0324 00F4FC71 		and	r1, r0, #504
 889              	.LVL97:
 890              	.LBB12:
1033:../Source Files/lpc_ssp_glcd.c ****          y += row*size + 1;                 // Set y at next position down
 891              		.loc 1 1033 0
 892 0328 581C     		adds	r0, r3, #1
 893              	.LBE12:
1024:../Source Files/lpc_ssp_glcd.c ****    int8_t pixelData[row];                     // Stores character data
 894              		.loc 1 1024 0
 895 032a ADEB010D 		sub	sp, sp, r1
 896              	.LBB13:
1030:../Source Files/lpc_ssp_glcd.c ****       if(x+row*size >= 320)          // Performs character wrapping
 897              		.loc 1 1030 0
 898 032e BE62     		str	r6, [r7, #40]
1033:../Source Files/lpc_ssp_glcd.c ****          y += row*size + 1;                 // Set y at next position down
 899              		.loc 1 1033 0
 900 0330 81B2     		uxth	r1, r0
1021:../Source Files/lpc_ssp_glcd.c **** void GLCD_Text(int16_t x, int16_t y, int8_t* textptr, uint16_t length, uint8_t row, uint8_t col, in
 901              		.loc 1 1021 0
 902 0332 9EB2     		uxth	r6, r3
 903 0334 BE61     		str	r6, [r7, #24]
 904              	.LBE13:
1024:../Source Files/lpc_ssp_glcd.c ****    int8_t pixelData[row];                     // Stores character data
 905              		.loc 1 1024 0
 906 0336 C7F82CD0 		str	sp, [r7, #44]
 907              	.LVL98:
 908              	.LBB14:
1033:../Source Files/lpc_ssp_glcd.c ****          y += row*size + 1;                 // Set y at next position down
 909              		.loc 1 1033 0
 910 033a 7962     		str	r1, [r7, #36]
1037:../Source Files/lpc_ssp_glcd.c ****          for(k=0; k<col*size; ++k)          // Loop through the vertical pixels
 911              		.loc 1 1037 0
 912 033c 3A62     		str	r2, [r7, #32]
 913              	.LBE14:
1026:../Source Files/lpc_ssp_glcd.c ****    for(i=0; i<length; ++i, ++x) // Loop through the passed string
 914              		.loc 1 1026 0
 915 033e 0026     		movs	r6, #0
 916              	.LVL99:
 917              	.L61:
1026:../Source Files/lpc_ssp_glcd.c ****    for(i=0; i<length; ++i, ++x) // Loop through the passed string
 918              		.loc 1 1026 0 is_stmt 0 discriminator 1
 919 0340 3B69     		ldr	r3, [r7, #16]
 920 0342 9E42     		cmp	r6, r3
 921 0344 6ADA     		bge	.L73
 922              	.L70:
 923              	.LBB15:
1028:../Source Files/lpc_ssp_glcd.c ****       memcpy(pixelData, font[textptr[i]-' '], row);
 924              		.loc 1 1028 0 is_stmt 1
 925 0346 7869     		ldr	r0, [r7, #20]
 926 0348 3A6F     		ldr	r2, [r7, #112]
 927 034a 8157     		ldrsb	r1, [r0, r6]
 928 034c F86A     		ldr	r0, [r7, #44]
 929 034e 2039     		subs	r1, r1, #32
 930 0350 04FB0121 		mla	r1, r4, r1, r2
 931 0354 2246     		mov	r2, r4
 932 0356 FFF7FEFF 		bl	memcpy
 933              	.LVL100:
1030:../Source Files/lpc_ssp_glcd.c ****       if(x+row*size >= 320)          // Performs character wrapping
 934              		.loc 1 1030 0
 935 035a FB6B     		ldr	r3, [r7, #60]
 936 035c B86A     		ldr	r0, [r7, #40]
 937 035e 1918     		adds	r1, r3, r0
 938 0360 B1F5A07F 		cmp	r1, #320
 939 0364 06DB     		blt	.L62
 940              	.LVL101:
1033:../Source Files/lpc_ssp_glcd.c ****          y += row*size + 1;                 // Set y at next position down
 941              		.loc 1 1033 0
 942 0366 7A6A     		ldr	r2, [r7, #36]
 943 0368 3B6B     		ldr	r3, [r7, #48]
 944 036a D018     		adds	r0, r2, r3
 945 036c 01B2     		sxth	r1, r0
1032:../Source Files/lpc_ssp_glcd.c ****          x = 0;                           // Set x at far left position
 946              		.loc 1 1032 0
 947 036e 0022     		movs	r2, #0
1033:../Source Files/lpc_ssp_glcd.c ****          y += row*size + 1;                 // Set y at next position down
 948              		.loc 1 1033 0
 949 0370 3963     		str	r1, [r7, #48]
1032:../Source Files/lpc_ssp_glcd.c ****          x = 0;                           // Set x at far left position
 950              		.loc 1 1032 0
 951 0372 FA63     		str	r2, [r7, #60]
 952              	.LVL102:
 953              	.L62:
1035:../Source Files/lpc_ssp_glcd.c ****       for(j=0; j<row; ++j, x+=size)         // Loop through character byte data
 954              		.loc 1 1035 0
 955 0374 FB6B     		ldr	r3, [r7, #60]
 956 0376 4FF00008 		mov	r8, #0
 957 037a BB63     		str	r3, [r7, #56]
 958              	.LVL103:
 959              	.L63:
1035:../Source Files/lpc_ssp_glcd.c ****       for(j=0; j<row; ++j, x+=size)         // Loop through character byte data
 960              		.loc 1 1035 0 is_stmt 0 discriminator 1
 961 037c A045     		cmp	r8, r4
 962 037e 45DA     		bge	.L69
 963 0380 396B     		ldr	r1, [r7, #48]
1021:../Source Files/lpc_ssp_glcd.c **** void GLCD_Text(int16_t x, int16_t y, int8_t* textptr, uint16_t length, uint8_t row, uint8_t col, in
 964              		.loc 1 1021 0 is_stmt 1
 965 0382 4FF0000C 		mov	ip, #0
 966 0386 1FFA81FB 		uxth	fp, r1
 967              	.L65:
1037:../Source Files/lpc_ssp_glcd.c ****          for(k=0; k<col*size; ++k)          // Loop through the vertical pixels
 968              		.loc 1 1037 0 discriminator 1
 969 038a 3A6A     		ldr	r2, [r7, #32]
 970 038c 9445     		cmp	ip, r2
 971 038e 35DA     		bge	.L74
 972              	.L68:
1039:../Source Files/lpc_ssp_glcd.c ****             if(bit_test(pixelData[j], k)) // Check if the pixel should be set
 973              		.loc 1 1039 0
 974 0390 FB6A     		ldr	r3, [r7, #44]
 975 0392 13F90800 		ldrsb	r0, [r3, r8]
 976 0396 40FA0CF1 		asr	r1, r0, ip
 977 039a CA07     		lsls	r2, r1, #31
 978 039c 06D4     		bmi	.L71
 979              	.L67:
 980 039e 786B     		ldr	r0, [r7, #52]
 981 03a0 0CF1010C 		add	ip, ip, #1
 982 03a4 8344     		add	fp, fp, r0
 983 03a6 1FFA8BFB 		uxth	fp, fp
 984 03aa EEE7     		b	.L65
 985              	.L71:
 986 03ac 4FF0000A 		mov	sl, #0
 987              	.L64:
 988              	.LVL104:
1041:../Source Files/lpc_ssp_glcd.c ****                for(l=0; l<size; ++l)      // The next two loops change the
 989              		.loc 1 1041 0 discriminator 1
 990 03b0 0FFA8AF2 		sxth	r2, sl
 991 03b4 ABB2     		uxth	r3, r5
 992 03b6 9542     		cmp	r5, r2
 993 03b8 FB61     		str	r3, [r7, #28]
 994 03ba F0DD     		ble	.L67
1021:../Source Files/lpc_ssp_glcd.c **** void GLCD_Text(int16_t x, int16_t y, int8_t* textptr, uint16_t length, uint8_t row, uint8_t col, in
 995              		.loc 1 1021 0
 996 03bc 0BEB0A01 		add	r1, fp, sl
 997 03c0 8BB2     		uxth	r3, r1
 998 03c2 4FF00009 		mov	r9, #0
 999              	.L66:
1021:../Source Files/lpc_ssp_glcd.c **** void GLCD_Text(int16_t x, int16_t y, int8_t* textptr, uint16_t length, uint8_t row, uint8_t col, in
 1000              		.loc 1 1021 0 is_stmt 0 discriminator 2
 1001 03c6 BA6B     		ldr	r2, [r7, #56]
1045:../Source Files/lpc_ssp_glcd.c ****                      GLCD_PutPixel(x+m, y+k*size+l, color); // Draws the pixel
 1002              		.loc 1 1045 0 is_stmt 1 discriminator 2
 1003 03c8 1946     		mov	r1, r3
1021:../Source Files/lpc_ssp_glcd.c **** void GLCD_Text(int16_t x, int16_t y, int8_t* textptr, uint16_t length, uint8_t row, uint8_t col, in
 1004              		.loc 1 1021 0 discriminator 2
 1005 03ca 09EB0200 		add	r0, r9, r2
1045:../Source Files/lpc_ssp_glcd.c ****                      GLCD_PutPixel(x+m, y+k*size+l, color); // Draws the pixel
 1006              		.loc 1 1045 0 discriminator 2
 1007 03ce 80B2     		uxth	r0, r0
 1008 03d0 FA68     		ldr	r2, [r7, #12]
 1009 03d2 7B60     		str	r3, [r7, #4]
 1010 03d4 C7F808C0 		str	ip, [r7, #8]
 1011 03d8 FFF7FEFF 		bl	GLCD_PutPixel
 1012              	.LVL105:
1043:../Source Files/lpc_ssp_glcd.c ****                   for(m=0; m<size; ++m)
 1013              		.loc 1 1043 0 discriminator 2
 1014 03dc FB69     		ldr	r3, [r7, #28]
 1015 03de 09F10109 		add	r9, r9, #1
 1016 03e2 1AB2     		sxth	r2, r3
 1017 03e4 0FFA89F1 		sxth	r1, r9
 1018 03e8 9142     		cmp	r1, r2
 1019 03ea 7B68     		ldr	r3, [r7, #4]
 1020 03ec D7F808C0 		ldr	ip, [r7, #8]
 1021 03f0 E9DB     		blt	.L66
1041:../Source Files/lpc_ssp_glcd.c ****                for(l=0; l<size; ++l)      // The next two loops change the
 1022              		.loc 1 1041 0
 1023 03f2 0AF1010A 		add	sl, sl, #1
 1024              	.LVL106:
 1025 03f6 1FFA8AFA 		uxth	sl, sl
 1026              	.LVL107:
 1027 03fa D9E7     		b	.L64
 1028              	.LVL108:
 1029              	.L74:
1021:../Source Files/lpc_ssp_glcd.c **** void GLCD_Text(int16_t x, int16_t y, int8_t* textptr, uint16_t length, uint8_t row, uint8_t col, in
 1030              		.loc 1 1021 0
 1031 03fc B86B     		ldr	r0, [r7, #56]
 1032 03fe 7B6B     		ldr	r3, [r7, #52]
 1033 0400 08F10108 		add	r8, r8, #1
 1034 0404 1918     		adds	r1, r3, r0
 1035 0406 0AB2     		sxth	r2, r1
 1036 0408 BA63     		str	r2, [r7, #56]
 1037 040a B7E7     		b	.L63
 1038              	.L69:
 1039 040c F86B     		ldr	r0, [r7, #60]
 1040 040e B969     		ldr	r1, [r7, #24]
 1041 0410 0136     		adds	r6, r6, #1
 1042 0412 4218     		adds	r2, r0, r1
 1043              	.LBE15:
1026:../Source Files/lpc_ssp_glcd.c ****    for(i=0; i<length; ++i, ++x) // Loop through the passed string
 1044              		.loc 1 1026 0
 1045 0414 531C     		adds	r3, r2, #1
 1046 0416 18B2     		sxth	r0, r3
 1047 0418 F863     		str	r0, [r7, #60]
 1048              	.LVL109:
 1049 041a 91E7     		b	.L61
 1050              	.L73:
1052:../Source Files/lpc_ssp_glcd.c **** }
 1051              		.loc 1 1052 0
 1052 041c 07F14407 		add	r7, r7, #68
 1053 0420 BD46     		mov	sp, r7
 1054 0422 BDE8F08F 		pop	{r4, r5, r6, r7, r8, r9, sl, fp, pc}
 1055              		.cfi_endproc
 1056              	.LFE81:
 1058              		.align	1
 1059              		.global	gprintf
 1060              		.thumb
 1061              		.thumb_func
 1063              	gprintf:
 1064              	.LFB82:
1083:../Source Files/lpc_ssp_glcd.c **** {
 1065              		.loc 1 1083 0
 1066              		.cfi_startproc
 1067              		@ args = 4, pretend = 0, frame = 128
 1068              		@ frame_needed = 0, uses_anonymous_args = 1
 1069              	.LVL110:
 1070 0426 2DE9F04F 		push	{r4, r5, r6, r7, r8, r9, sl, fp, lr}
 1071              	.LCFI14:
 1072              		.cfi_def_cfa_offset 36
 1073              		.cfi_offset 4, -36
 1074              		.cfi_offset 5, -32
 1075              		.cfi_offset 6, -28
 1076              		.cfi_offset 7, -24
 1077              		.cfi_offset 8, -20
 1078              		.cfi_offset 9, -16
 1079              		.cfi_offset 10, -12
 1080              		.cfi_offset 11, -8
 1081              		.cfi_offset 14, -4
 1082 042a 9A46     		mov	sl, r3
 1083 042c A7B0     		sub	sp, sp, #156
 1084              	.LCFI15:
 1085              		.cfi_def_cfa_offset 192
1084:../Source Files/lpc_ssp_glcd.c **** 	uchar hex[]= "0123456789ABCDEF";
 1086              		.loc 1 1084 0
 1087 042e A14B     		ldr	r3, .L121
 1088              	.LVL111:
1083:../Source Files/lpc_ssp_glcd.c **** {
 1089              		.loc 1 1083 0
 1090 0430 DDF8C0B0 		ldr	fp, [sp, #192]
 1091 0434 1646     		mov	r6, r2
 1092 0436 0446     		mov	r4, r0
 1093 0438 0D46     		mov	r5, r1
1084:../Source Files/lpc_ssp_glcd.c **** 	uchar hex[]= "0123456789ABCDEF";
 1094              		.loc 1 1084 0
 1095 043a 0DAA     		add	r2, sp, #52
 1096              	.LVL112:
 1097 043c 03F1100E 		add	lr, r3, #16
 1098              	.LVL113:
 1099              	.L76:
 1100 0440 1868     		ldr	r0, [r3, #0]	@ unaligned
 1101 0442 5968     		ldr	r1, [r3, #4]	@ unaligned
 1102 0444 1746     		mov	r7, r2
 1103 0446 03C7     		stmia	r7!, {r0, r1}
 1104 0448 0833     		adds	r3, r3, #8
 1105 044a 7345     		cmp	r3, lr
 1106 044c 3A46     		mov	r2, r7
 1107 044e F7D1     		bne	.L76
 1108 0450 1878     		ldrb	r0, [r3, #0]	@ zero_extendqisi2
1085:../Source Files/lpc_ssp_glcd.c **** 	unsigned int width_dec[10] = { 1, 10, 100, 1000, 10000, 100000, 1000000, 10000000};
 1109              		.loc 1 1085 0
 1110 0452 0021     		movs	r1, #0
1084:../Source Files/lpc_ssp_glcd.c **** 	uchar hex[]= "0123456789ABCDEF";
 1111              		.loc 1 1084 0
 1112 0454 3870     		strb	r0, [r7, #0]
1085:../Source Files/lpc_ssp_glcd.c **** 	unsigned int width_dec[10] = { 1, 10, 100, 1000, 10000, 100000, 1000000, 10000000};
 1113              		.loc 1 1085 0
 1114 0456 2822     		movs	r2, #40
 1115 0458 12A8     		add	r0, sp, #72
 1116 045a FFF7FEFF 		bl	memset
 1117              	.LVL114:
 1118 045e 0A21     		movs	r1, #10
 1119 0460 4FF47A72 		mov	r2, #1000
 1120 0464 1391     		str	r1, [sp, #76]
 1121 0466 6423     		movs	r3, #100
 1122 0468 1592     		str	r2, [sp, #84]
 1123 046a 9349     		ldr	r1, .L121+4
 1124 046c 934A     		ldr	r2, .L121+8
 1125 046e 1493     		str	r3, [sp, #80]
 1126 0470 42F21070 		movw	r0, #10000
 1127 0474 924B     		ldr	r3, .L121+12
 1128 0476 0127     		movs	r7, #1
 1129 0478 1690     		str	r0, [sp, #88]
 1130 047a 1791     		str	r1, [sp, #92]
 1131 047c 1992     		str	r2, [sp, #100]
1086:../Source Files/lpc_ssp_glcd.c **** 	unsigned int width_hex[10] = { 0x1, 0x10, 0x100, 0x1000, 0x10000, 0x100000, 0x1000000, 0x10000000}
 1132              		.loc 1 1086 0
 1133 047e 0021     		movs	r1, #0
 1134 0480 2822     		movs	r2, #40
 1135 0482 1CA8     		add	r0, sp, #112
1085:../Source Files/lpc_ssp_glcd.c **** 	unsigned int width_dec[10] = { 1, 10, 100, 1000, 10000, 100000, 1000000, 10000000};
 1136              		.loc 1 1085 0
 1137 0484 1297     		str	r7, [sp, #72]
 1138 0486 1893     		str	r3, [sp, #96]
1086:../Source Files/lpc_ssp_glcd.c **** 	unsigned int width_hex[10] = { 0x1, 0x10, 0x100, 0x1000, 0x10000, 0x100000, 0x1000000, 0x10000000}
 1139              		.loc 1 1086 0
 1140 0488 FFF7FEFF 		bl	memset
 1141              	.LVL115:
 1142 048c 4FF48051 		mov	r1, #4096
 1143 0490 4FF48033 		mov	r3, #65536
1109:../Source Files/lpc_ssp_glcd.c **** 		    if(x+5*size >= 320)          // Performs character wrapping
 1144              		.loc 1 1109 0
 1145 0494 4FF00509 		mov	r9, #5
1086:../Source Files/lpc_ssp_glcd.c **** 	unsigned int width_hex[10] = { 0x1, 0x10, 0x100, 0x1000, 0x10000, 0x100000, 0x1000000, 0x10000000}
 1146              		.loc 1 1086 0
 1147 0498 4FF48012 		mov	r2, #1048576
1112:../Source Files/lpc_ssp_glcd.c **** 		       y += 7*size + 1;                 // Set y at next position down
 1148              		.loc 1 1112 0
 1149 049c 4FF00708 		mov	r8, #7
1086:../Source Files/lpc_ssp_glcd.c **** 	unsigned int width_hex[10] = { 0x1, 0x10, 0x100, 0x1000, 0x10000, 0x100000, 0x1000000, 0x10000000}
 1150              		.loc 1 1086 0
 1151 04a0 1F91     		str	r1, [sp, #124]
 1152 04a2 2093     		str	r3, [sp, #128]
1098:../Source Files/lpc_ssp_glcd.c **** 	va_start(ap, format);
 1153              		.loc 1 1098 0
 1154 04a4 31A9     		add	r1, sp, #196
1112:../Source Files/lpc_ssp_glcd.c **** 		       y += 7*size + 1;                 // Set y at next position down
 1155              		.loc 1 1112 0
 1156 04a6 B3B2     		uxth	r3, r6
1086:../Source Files/lpc_ssp_glcd.c **** 	unsigned int width_hex[10] = { 0x1, 0x10, 0x100, 0x1000, 0x10000, 0x100000, 0x1000000, 0x10000000}
 1157              		.loc 1 1086 0
 1158 04a8 2192     		str	r2, [sp, #132]
1098:../Source Files/lpc_ssp_glcd.c **** 	va_start(ap, format);
 1159              		.loc 1 1098 0
 1160 04aa 0C91     		str	r1, [sp, #48]
1112:../Source Files/lpc_ssp_glcd.c **** 		       y += 7*size + 1;                 // Set y at next position down
 1161              		.loc 1 1112 0
 1162 04ac 08FB03F2 		mul	r2, r8, r3
1115:../Source Files/lpc_ssp_glcd.c **** 			x=x+5*size+1;
 1163              		.loc 1 1115 0
 1164 04b0 09FB03F1 		mul	r1, r9, r3
1086:../Source Files/lpc_ssp_glcd.c **** 	unsigned int width_hex[10] = { 0x1, 0x10, 0x100, 0x1000, 0x10000, 0x100000, 0x1000000, 0x10000000}
 1165              		.loc 1 1086 0
 1166 04b4 4FF48070 		mov	r0, #256
 1167 04b8 1C97     		str	r7, [sp, #112]
 1168 04ba 1E90     		str	r0, [sp, #120]
 1169 04bc 1027     		movs	r7, #16
 1170 04be 4FF08050 		mov	r0, #268435456
 1171 04c2 1D97     		str	r7, [sp, #116]
 1172 04c4 2390     		str	r0, [sp, #140]
 1173 04c6 4FF08077 		mov	r7, #16777216
1112:../Source Files/lpc_ssp_glcd.c **** 		       y += 7*size + 1;                 // Set y at next position down
 1174              		.loc 1 1112 0
 1175 04ca 02F10100 		add	r0, r2, #1
1115:../Source Files/lpc_ssp_glcd.c **** 			x=x+5*size+1;
 1176              		.loc 1 1115 0
 1177 04ce 01F1010C 		add	ip, r1, #1
1086:../Source Files/lpc_ssp_glcd.c **** 	unsigned int width_hex[10] = { 0x1, 0x10, 0x100, 0x1000, 0x10000, 0x100000, 0x1000000, 0x10000000}
 1178              		.loc 1 1086 0
 1179 04d2 2297     		str	r7, [sp, #136]
1112:../Source Files/lpc_ssp_glcd.c **** 		       y += 7*size + 1;                 // Set y at next position down
 1180              		.loc 1 1112 0
 1181 04d4 1FFA80F8 		uxth	r8, r0
1109:../Source Files/lpc_ssp_glcd.c **** 		    if(x+5*size >= 320)          // Performs character wrapping
 1182              		.loc 1 1109 0
 1183 04d8 09FB06F7 		mul	r7, r9, r6
1115:../Source Files/lpc_ssp_glcd.c **** 			x=x+5*size+1;
 1184              		.loc 1 1115 0
 1185 04dc 1FFA8CF9 		uxth	r9, ip
 1186              	.LVL116:
 1187              	.L77:
1102:../Source Files/lpc_ssp_glcd.c **** 		while((format_flag = *format++) != '%')      // until full format string read
 1188              		.loc 1 1102 0 discriminator 1
 1189 04e0 9BF80000 		ldrb	r0, [fp, #0]	@ zero_extendqisi2
 1190 04e4 2528     		cmp	r0, #37
 1191 04e6 8DF82A00 		strb	r0, [sp, #42]
 1192              	.LVL117:
 1193 04ea 25D0     		beq	.L119
 1194              	.L80:
1104:../Source Files/lpc_ssp_glcd.c **** 			if(!format_flag)
 1195              		.loc 1 1104 0
 1196 04ec 0028     		cmp	r0, #0
 1197 04ee 00F09A81 		beq	.L112
1109:../Source Files/lpc_ssp_glcd.c **** 		    if(x+5*size >= 320)          // Performs character wrapping
 1198              		.loc 1 1109 0
 1199 04f2 E119     		adds	r1, r4, r7
 1200 04f4 B1F5A07F 		cmp	r1, #320
 1201 04f8 03DB     		blt	.L79
 1202              	.LVL118:
1112:../Source Files/lpc_ssp_glcd.c **** 		       y += 7*size + 1;                 // Set y at next position down
 1203              		.loc 1 1112 0
 1204 04fa 08EB0503 		add	r3, r8, r5
 1205 04fe 1DB2     		sxth	r5, r3
 1206              	.LVL119:
1111:../Source Files/lpc_ssp_glcd.c **** 		       x = 0;                           // Set x at far left position
 1207              		.loc 1 1111 0
 1208 0500 0024     		movs	r4, #0
 1209              	.LVL120:
 1210              	.L79:
1102:../Source Files/lpc_ssp_glcd.c **** 		while((format_flag = *format++) != '%')      // until full format string read
 1211              		.loc 1 1102 0
 1212 0502 0BF1010E 		add	lr, fp, #1
 1213 0506 CDF824E0 		str	lr, [sp, #36]
 1214              	.LVL121:
 1215              	.L114:
1114:../Source Files/lpc_ssp_glcd.c **** 			GLCD_Text(x,y,&format_flag,1,5,7,default5x7,size,color);
 1216              		.loc 1 1114 0
 1217 050a 0523     		movs	r3, #5
 1218 050c 4FF0070C 		mov	ip, #7
 1219 0510 6C4A     		ldr	r2, .L121+16
 1220 0512 8DE80810 		stmia	sp, {r3, ip}
 1221 0516 0292     		str	r2, [sp, #8]
 1222 0518 0396     		str	r6, [sp, #12]
 1223 051a CDF810A0 		str	sl, [sp, #16]
 1224 051e 2046     		mov	r0, r4
 1225 0520 2946     		mov	r1, r5
 1226 0522 0DF12A02 		add	r2, sp, #42
 1227              	.LVL122:
 1228              	.L115:
 1229 0526 0123     		movs	r3, #1
 1230 0528 FFF7FEFF 		bl	GLCD_Text
 1231              	.LVL123:
1115:../Source Files/lpc_ssp_glcd.c **** 			x=x+5*size+1;
 1232              		.loc 1 1115 0
 1233 052c 09EB0400 		add	r0, r9, r4
 1234 0530 04B2     		sxth	r4, r0
 1235              	.LVL124:
 1236              	.L90:
1111:../Source Files/lpc_ssp_glcd.c **** 		       x = 0;                           // Set x at far left position
 1237              		.loc 1 1111 0 discriminator 1
 1238 0532 DDF824B0 		ldr	fp, [sp, #36]
 1239 0536 D3E7     		b	.L77
 1240              	.LVL125:
 1241              	.L119:
1118:../Source Files/lpc_ssp_glcd.c **** 		switch(format_flag = *format++)
 1242              		.loc 1 1118 0
 1243 0538 9BF80130 		ldrb	r3, [fp, #1]	@ zero_extendqisi2
 1244 053c 0BF10202 		add	r2, fp, #2
 1245 0540 58B2     		sxtb	r0, r3
 1246 0542 6428     		cmp	r0, #100
 1247 0544 8DF82A30 		strb	r3, [sp, #42]
 1248 0548 0992     		str	r2, [sp, #36]
 1249              	.LVL126:
 1250 054a 00F0BD80 		beq	.L84
 1251 054e 0ADC     		bgt	.L88
 1252 0550 6228     		cmp	r0, #98
 1253 0552 18D0     		beq	.L82
 1254 0554 6328     		cmp	r0, #99
 1255 0556 0DD1     		bne	.L81
1121:../Source Files/lpc_ssp_glcd.c **** 				format_flag = va_arg(ap, int);
 1256              		.loc 1 1121 0
 1257 0558 0C99     		ldr	r1, [sp, #48]
 1258 055a 0A68     		ldr	r2, [r1, #0]
 1259              	.LVL127:
 1260 055c 0B1D     		adds	r3, r1, #4
 1261 055e 0C93     		str	r3, [sp, #48]
 1262 0560 8DF82A20 		strb	r2, [sp, #42]
 1263 0564 06E0     		b	.L81
 1264              	.LVL128:
 1265              	.L88:
1118:../Source Files/lpc_ssp_glcd.c **** 		switch(format_flag = *format++)
 1266              		.loc 1 1118 0
 1267 0566 7528     		cmp	r0, #117
 1268 0568 6ED0     		beq	.L86
 1269 056a 7828     		cmp	r0, #120
 1270 056c 00F0ED80 		beq	.L87
 1271 0570 7328     		cmp	r0, #115
 1272 0572 45D0     		beq	.L120
 1273              	.LVL129:
 1274              	.L81:
1133:../Source Files/lpc_ssp_glcd.c **** 			    if(x+5*size >= 320)          // Performs character wrapping
 1275              		.loc 1 1133 0
 1276 0574 E319     		adds	r3, r4, r7
 1277 0576 B3F5A07F 		cmp	r3, #320
 1278 057a C6DB     		blt	.L114
 1279              	.LVL130:
1136:../Source Files/lpc_ssp_glcd.c **** 			       y += 7*size + 1;                 // Set y at next position down
 1280              		.loc 1 1136 0
 1281 057c 08EB0504 		add	r4, r8, r5
 1282 0580 25B2     		sxth	r5, r4
 1283              	.LVL131:
1135:../Source Files/lpc_ssp_glcd.c **** 			       x = 0;                           // Set x at far left position
 1284              		.loc 1 1135 0
 1285 0582 0024     		movs	r4, #0
 1286              	.LVL132:
 1287 0584 C1E7     		b	.L114
 1288              	.LVL133:
 1289              	.L82:
1144:../Source Files/lpc_ssp_glcd.c **** 				format_flag = va_arg(ap,int);
 1290              		.loc 1 1144 0
 1291 0586 0C98     		ldr	r0, [sp, #48]
1145:../Source Files/lpc_ssp_glcd.c **** 			    if(x+5*size >= 320)          // Performs character wrapping
 1292              		.loc 1 1145 0
 1293 0588 E219     		adds	r2, r4, r7
 1294              	.LVL134:
1144:../Source Files/lpc_ssp_glcd.c **** 				format_flag = va_arg(ap,int);
 1295              		.loc 1 1144 0
 1296 058a 0378     		ldrb	r3, [r0, #0]	@ zero_extendqisi2
 1297              	.LVL135:
 1298 058c 011D     		adds	r1, r0, #4
1145:../Source Files/lpc_ssp_glcd.c **** 			    if(x+5*size >= 320)          // Performs character wrapping
 1299              		.loc 1 1145 0
 1300 058e B2F5A07F 		cmp	r2, #320
1144:../Source Files/lpc_ssp_glcd.c **** 				format_flag = va_arg(ap,int);
 1301              		.loc 1 1144 0
 1302 0592 0C91     		str	r1, [sp, #48]
 1303              	.LVL136:
 1304 0594 8DF82A30 		strb	r3, [sp, #42]
1145:../Source Files/lpc_ssp_glcd.c **** 			    if(x+5*size >= 320)          // Performs character wrapping
 1305              		.loc 1 1145 0
 1306 0598 02DB     		blt	.L92
 1307              	.LVL137:
1148:../Source Files/lpc_ssp_glcd.c **** 			       y += 7*size + 1;                 // Set y at next position down
 1308              		.loc 1 1148 0
 1309 059a 4544     		add	r5, r8, r5
 1310              	.LVL138:
 1311 059c 2DB2     		sxth	r5, r5
 1312              	.LVL139:
1147:../Source Files/lpc_ssp_glcd.c **** 			       x = 0;                           // Set x at far left position
 1313              		.loc 1 1147 0
 1314 059e 0024     		movs	r4, #0
 1315              	.LVL140:
 1316              	.L92:
1150:../Source Files/lpc_ssp_glcd.c **** 				GLCD_Text(x,y,&(hex[(uint16)format_flag >> 4]),1,5,7,default5x7,size,color);
 1317              		.loc 1 1150 0
 1318 05a0 58B2     		sxtb	r0, r3
 1319              	.LVL141:
 1320 05a2 4FF0070E 		mov	lr, #7
 1321 05a6 0523     		movs	r3, #5
 1322 05a8 4649     		ldr	r1, .L121+16
 1323 05aa C0F30B12 		ubfx	r2, r0, #4, #12
 1324              	.LVL142:
 1325 05ae 8DE80840 		stmia	sp, {r3, lr}
 1326 05b2 2046     		mov	r0, r4
 1327              	.LVL143:
 1328 05b4 0DAB     		add	r3, sp, #52
1151:../Source Files/lpc_ssp_glcd.c **** 				x=x+5*size+1;
 1329              		.loc 1 1151 0
 1330 05b6 4C44     		add	r4, r9, r4
 1331              	.LVL144:
1150:../Source Files/lpc_ssp_glcd.c **** 				GLCD_Text(x,y,&(hex[(uint16)format_flag >> 4]),1,5,7,default5x7,size,color);
 1332              		.loc 1 1150 0
 1333 05b8 0291     		str	r1, [sp, #8]
 1334 05ba 9A18     		adds	r2, r3, r2
 1335 05bc 0396     		str	r6, [sp, #12]
 1336 05be 0123     		movs	r3, #1
 1337 05c0 CDF810A0 		str	sl, [sp, #16]
 1338 05c4 2946     		mov	r1, r5
1151:../Source Files/lpc_ssp_glcd.c **** 				x=x+5*size+1;
 1339              		.loc 1 1151 0
 1340 05c6 24B2     		sxth	r4, r4
1150:../Source Files/lpc_ssp_glcd.c **** 				GLCD_Text(x,y,&(hex[(uint16)format_flag >> 4]),1,5,7,default5x7,size,color);
 1341              		.loc 1 1150 0
 1342 05c8 FFF7FEFF 		bl	GLCD_Text
 1343              	.LVL145:
1152:../Source Files/lpc_ssp_glcd.c **** 			    if(x+5*size >= 320)          // Performs character wrapping
 1344              		.loc 1 1152 0
 1345 05cc E019     		adds	r0, r4, r7
 1346 05ce B0F5A07F 		cmp	r0, #320
 1347 05d2 02DB     		blt	.L93
 1348              	.LVL146:
1155:../Source Files/lpc_ssp_glcd.c **** 			       y += 7*size + 1;                 // Set y at next position down
 1349              		.loc 1 1155 0
 1350 05d4 4544     		add	r5, r8, r5
 1351              	.LVL147:
 1352 05d6 2DB2     		sxth	r5, r5
 1353              	.LVL148:
1154:../Source Files/lpc_ssp_glcd.c **** 			       x = 0;                           // Set x at far left position
 1354              		.loc 1 1154 0
 1355 05d8 0024     		movs	r4, #0
 1356              	.LVL149:
 1357              	.L93:
1157:../Source Files/lpc_ssp_glcd.c **** 				GLCD_Text(x,y,&(hex[(uint16)format_flag & 0x0F]),1,5,7,default5x7,size,color);
 1358              		.loc 1 1157 0
 1359 05da 9DF82A20 		ldrb	r2, [sp, #42]	@ zero_extendqisi2
 1360              	.LVL150:
 1361 05de 3949     		ldr	r1, .L121+16
 1362 05e0 0520     		movs	r0, #5
 1363 05e2 02F00F02 		and	r2, r2, #15
 1364              	.LVL151:
 1365 05e6 0723     		movs	r3, #7
 1366 05e8 0DF1340B 		add	fp, sp, #52
 1367 05ec 8DE80900 		stmia	sp, {r0, r3}
 1368 05f0 0291     		str	r1, [sp, #8]
 1369 05f2 0396     		str	r6, [sp, #12]
 1370 05f4 CDF810A0 		str	sl, [sp, #16]
 1371 05f8 2046     		mov	r0, r4
 1372 05fa 2946     		mov	r1, r5
 1373 05fc 5A44     		add	r2, fp, r2
 1374 05fe 92E7     		b	.L115
 1375              	.LVL152:
 1376              	.L120:
1163:../Source Files/lpc_ssp_glcd.c **** 				ptr = va_arg(ap, schar *);
 1377              		.loc 1 1163 0
 1378 0600 0C98     		ldr	r0, [sp, #48]
 1379 0602 021D     		adds	r2, r0, #4
 1380              	.LVL153:
 1381 0604 D0F800B0 		ldr	fp, [r0, #0]
 1382 0608 0C92     		str	r2, [sp, #48]
 1383              	.LVL154:
 1384              	.L94:
 1385 060a 5A46     		mov	r2, fp
 1386              	.LVL155:
1164:../Source Files/lpc_ssp_glcd.c **** 				while(*ptr)
 1387              		.loc 1 1164 0 discriminator 1
 1388 060c 92F90010 		ldrsb	r1, [r2, #0]
 1389 0610 0BF1010B 		add	fp, fp, #1
 1390 0614 0029     		cmp	r1, #0
 1391 0616 8CD0     		beq	.L90
 1392              	.L96:
1166:../Source Files/lpc_ssp_glcd.c **** 				    if(x+5*size >= 320)          // Performs character wrapping
 1393              		.loc 1 1166 0
 1394 0618 E319     		adds	r3, r4, r7
 1395 061a B3F5A07F 		cmp	r3, #320
 1396 061e 02DB     		blt	.L95
 1397              	.LVL156:
1169:../Source Files/lpc_ssp_glcd.c **** 				       y += 7*size + 1;                 // Set y at next position down
 1398              		.loc 1 1169 0
 1399 0620 4544     		add	r5, r8, r5
 1400              	.LVL157:
 1401 0622 2DB2     		sxth	r5, r5
 1402              	.LVL158:
1168:../Source Files/lpc_ssp_glcd.c **** 				       x = 0;                           // Set x at far left position
 1403              		.loc 1 1168 0
 1404 0624 0024     		movs	r4, #0
 1405              	.LVL159:
 1406              	.L95:
1171:../Source Files/lpc_ssp_glcd.c **** 					GLCD_Text(x,y,&(*ptr++),1,5,7,default5x7,size,color);
 1407              		.loc 1 1171 0
 1408 0626 2748     		ldr	r0, .L121+16
 1409 0628 0521     		movs	r1, #5
 1410 062a 0723     		movs	r3, #7
 1411 062c 8DE80A00 		stmia	sp, {r1, r3}
 1412 0630 0290     		str	r0, [sp, #8]
 1413 0632 0396     		str	r6, [sp, #12]
 1414 0634 2046     		mov	r0, r4
 1415 0636 CDF810A0 		str	sl, [sp, #16]
 1416 063a 2946     		mov	r1, r5
 1417 063c 0123     		movs	r3, #1
1172:../Source Files/lpc_ssp_glcd.c **** 					x=x+5*size+1;
 1418              		.loc 1 1172 0
 1419 063e 4C44     		add	r4, r9, r4
 1420              	.LVL160:
1171:../Source Files/lpc_ssp_glcd.c **** 					GLCD_Text(x,y,&(*ptr++),1,5,7,default5x7,size,color);
 1421              		.loc 1 1171 0
 1422 0640 FFF7FEFF 		bl	GLCD_Text
 1423              	.LVL161:
1172:../Source Files/lpc_ssp_glcd.c **** 					x=x+5*size+1;
 1424              		.loc 1 1172 0
 1425 0644 24B2     		sxth	r4, r4
 1426              	.LVL162:
 1427 0646 E0E7     		b	.L94
 1428              	.LVL163:
 1429              	.L86:
1199:../Source Files/lpc_ssp_glcd.c **** 				u_val = va_arg(ap, uint32_t);
 1430              		.loc 1 1199 0
 1431 0648 0C99     		ldr	r1, [sp, #48]
 1432 064a 0620     		movs	r0, #6
 1433 064c 0B1D     		adds	r3, r1, #4
 1434 064e D1F800C0 		ldr	ip, [r1, #0]
 1435              	.LVL164:
 1436 0652 0C93     		str	r3, [sp, #48]
 1437 0654 0790     		str	r0, [sp, #28]
1198:../Source Files/lpc_ssp_glcd.c **** 				div_val = 0x100000;
 1438              		.loc 1 1198 0
 1439 0656 4FF4801B 		mov	fp, #1048576
 1440              	.LVL165:
 1441              	.L98:
1202:../Source Files/lpc_ssp_glcd.c **** 				    if(x+5*size >= 320)          // Performs character wrapping
 1442              		.loc 1 1202 0
 1443 065a E219     		adds	r2, r4, r7
 1444 065c B2F5A07F 		cmp	r2, #320
 1445 0660 02DB     		blt	.L97
 1446              	.LVL166:
1205:../Source Files/lpc_ssp_glcd.c **** 				       y += 7*size + 1;                 // Set y at next position down
 1447              		.loc 1 1205 0
 1448 0662 4544     		add	r5, r8, r5
 1449              	.LVL167:
 1450 0664 2DB2     		sxth	r5, r5
 1451              	.LVL168:
1204:../Source Files/lpc_ssp_glcd.c **** 				       x = 0;                           // Set x at far left position
 1452              		.loc 1 1204 0
 1453 0666 0024     		movs	r4, #0
 1454              	.LVL169:
 1455              	.L97:
1207:../Source Files/lpc_ssp_glcd.c **** 					GLCD_Text(x,y,&(hex[u_val/div_val]),1,5,7,default5x7,size,color);
 1456              		.loc 1 1207 0
 1457 0668 BCFBFBF1 		udiv	r1, ip, fp
 1458 066c 0891     		str	r1, [sp, #32]
 1459 066e 0522     		movs	r2, #5
 1460 0670 0723     		movs	r3, #7
 1461 0672 8DE80C00 		stmia	sp, {r2, r3}
 1462 0676 DDF820E0 		ldr	lr, [sp, #32]
 1463 067a 124B     		ldr	r3, .L121+16
 1464 067c 0DAA     		add	r2, sp, #52
 1465 067e 2046     		mov	r0, r4
 1466 0680 0293     		str	r3, [sp, #8]
 1467 0682 2946     		mov	r1, r5
 1468 0684 0123     		movs	r3, #1
 1469 0686 0396     		str	r6, [sp, #12]
 1470 0688 CDF810A0 		str	sl, [sp, #16]
 1471 068c 7244     		add	r2, r2, lr
 1472 068e CDF818C0 		str	ip, [sp, #24]
 1473 0692 FFF7FEFF 		bl	GLCD_Text
 1474              	.LVL170:
1211:../Source Files/lpc_ssp_glcd.c **** 				}while(div_val);
 1475              		.loc 1 1211 0
 1476 0696 0799     		ldr	r1, [sp, #28]
1209:../Source Files/lpc_ssp_glcd.c **** 					u_val %= div_val;
 1477              		.loc 1 1209 0
 1478 0698 DDF818C0 		ldr	ip, [sp, #24]
 1479 069c 0898     		ldr	r0, [sp, #32]
1208:../Source Files/lpc_ssp_glcd.c **** 					x=x+5*size+1;
 1480              		.loc 1 1208 0
 1481 069e 4C44     		add	r4, r9, r4
 1482              	.LVL171:
1211:../Source Files/lpc_ssp_glcd.c **** 				}while(div_val);
 1483              		.loc 1 1211 0
 1484 06a0 4B1E     		subs	r3, r1, #1
1209:../Source Files/lpc_ssp_glcd.c **** 					u_val %= div_val;
 1485              		.loc 1 1209 0
 1486 06a2 0BFB10CC 		mls	ip, fp, r0, ip
1208:../Source Files/lpc_ssp_glcd.c **** 					x=x+5*size+1;
 1487              		.loc 1 1208 0
 1488 06a6 24B2     		sxth	r4, r4
 1489              	.LVL172:
1210:../Source Files/lpc_ssp_glcd.c **** 					div_val /= base;
 1490              		.loc 1 1210 0
 1491 06a8 4FEA1B1B 		lsr	fp, fp, #4
 1492              	.LVL173:
1211:../Source Files/lpc_ssp_glcd.c **** 				}while(div_val);
 1493              		.loc 1 1211 0
 1494 06ac 0793     		str	r3, [sp, #28]
 1495 06ae D4D1     		bne	.L98
 1496 06b0 3FE7     		b	.L90
 1497              	.L122:
 1498 06b2 00BF     		.align	2
 1499              	.L121:
 1500 06b4 00000000 		.word	.LC0
 1501 06b8 A0860100 		.word	100000
 1502 06bc 80969800 		.word	10000000
 1503 06c0 40420F00 		.word	1000000
 1504 06c4 00150000 		.word	.LANCHOR3+1032
 1505              	.LVL174:
 1506              	.L84:
1218:../Source Files/lpc_ssp_glcd.c **** 				format_flag = ( *format++ ) - '1';
 1507              		.loc 1 1218 0
 1508 06c8 9BF80300 		ldrb	r0, [fp, #3]	@ zero_extendqisi2
1217:../Source Files/lpc_ssp_glcd.c **** 				fill_char = *format++;
 1509              		.loc 1 1217 0
 1510 06cc 9BF80220 		ldrb	r2, [fp, #2]	@ zero_extendqisi2
 1511              	.LVL175:
1218:../Source Files/lpc_ssp_glcd.c **** 				format_flag = ( *format++ ) - '1';
 1512              		.loc 1 1218 0
 1513 06d0 3138     		subs	r0, r0, #49
 1514 06d2 C1B2     		uxtb	r1, r0
1219:../Source Files/lpc_ssp_glcd.c **** 				div_val = width_dec[format_flag];
 1515              		.loc 1 1219 0
 1516 06d4 4BB2     		sxtb	r3, r1
1218:../Source Files/lpc_ssp_glcd.c **** 				format_flag = ( *format++ ) - '1';
 1517              		.loc 1 1218 0
 1518 06d6 8DF82A10 		strb	r1, [sp, #42]
1220:../Source Files/lpc_ssp_glcd.c **** 				u_val = va_arg(ap,int);
 1519              		.loc 1 1220 0
 1520 06da 0C99     		ldr	r1, [sp, #48]
1217:../Source Files/lpc_ssp_glcd.c **** 				fill_char = *format++;
 1521              		.loc 1 1217 0
 1522 06dc 8DF82B20 		strb	r2, [sp, #43]
 1523              	.LVL176:
1220:../Source Files/lpc_ssp_glcd.c **** 				u_val = va_arg(ap,int);
 1524              		.loc 1 1220 0
 1525 06e0 D1F800C0 		ldr	ip, [r1, #0]
1219:../Source Files/lpc_ssp_glcd.c **** 				div_val = width_dec[format_flag];
 1526              		.loc 1 1219 0
 1527 06e4 26AA     		add	r2, sp, #152
1218:../Source Files/lpc_ssp_glcd.c **** 				format_flag = ( *format++ ) - '1';
 1528              		.loc 1 1218 0
 1529 06e6 0BF1040E 		add	lr, fp, #4
1219:../Source Files/lpc_ssp_glcd.c **** 				div_val = width_dec[format_flag];
 1530              		.loc 1 1219 0
 1531 06ea 02EB8300 		add	r0, r2, r3, lsl #2
1220:../Source Files/lpc_ssp_glcd.c **** 				u_val = va_arg(ap,int);
 1532              		.loc 1 1220 0
 1533 06ee 0B1D     		adds	r3, r1, #4
1222:../Source Files/lpc_ssp_glcd.c **** 				if(((int)u_val) < 0)
 1534              		.loc 1 1222 0
 1535 06f0 BCF1000F 		cmp	ip, #0
1218:../Source Files/lpc_ssp_glcd.c **** 				format_flag = ( *format++ ) - '1';
 1536              		.loc 1 1218 0
 1537 06f4 CDF824E0 		str	lr, [sp, #36]
 1538              	.LVL177:
1219:../Source Files/lpc_ssp_glcd.c **** 				div_val = width_dec[format_flag];
 1539              		.loc 1 1219 0
 1540 06f8 50F850BC 		ldr	fp, [r0, #-80]
 1541              	.LVL178:
1220:../Source Files/lpc_ssp_glcd.c **** 				u_val = va_arg(ap,int);
 1542              		.loc 1 1220 0
 1543 06fc 0C93     		str	r3, [sp, #48]
1222:../Source Files/lpc_ssp_glcd.c **** 				if(((int)u_val) < 0)
 1544              		.loc 1 1222 0
 1545 06fe 21DA     		bge	.L107
1226:../Source Files/lpc_ssp_glcd.c **** 				    if(x+5*size >= 320)          // Performs character wrapping
 1546              		.loc 1 1226 0
 1547 0700 E119     		adds	r1, r4, r7
1225:../Source Files/lpc_ssp_glcd.c **** 					temp = '-';
 1548              		.loc 1 1225 0
 1549 0702 2D20     		movs	r0, #45
1226:../Source Files/lpc_ssp_glcd.c **** 				    if(x+5*size >= 320)          // Performs character wrapping
 1550              		.loc 1 1226 0
 1551 0704 B1F5A07F 		cmp	r1, #320
1224:../Source Files/lpc_ssp_glcd.c **** 					u_val = - u_val;    // applied to unsigned type, result still unsigned
 1552              		.loc 1 1224 0
 1553 0708 CCF1000C 		rsb	ip, ip, #0
 1554              	.LVL179:
1225:../Source Files/lpc_ssp_glcd.c **** 					temp = '-';
 1555              		.loc 1 1225 0
 1556 070c 0B90     		str	r0, [sp, #44]
1226:../Source Files/lpc_ssp_glcd.c **** 				    if(x+5*size >= 320)          // Performs character wrapping
 1557              		.loc 1 1226 0
 1558 070e 02DB     		blt	.L100
 1559              	.LVL180:
1229:../Source Files/lpc_ssp_glcd.c **** 				       y += 7*size + 1;                 // Set y at next position down
 1560              		.loc 1 1229 0
 1561 0710 4544     		add	r5, r8, r5
 1562              	.LVL181:
 1563 0712 2DB2     		sxth	r5, r5
 1564              	.LVL182:
1228:../Source Files/lpc_ssp_glcd.c **** 				       x = 0;                           // Set x at far left position
 1565              		.loc 1 1228 0
 1566 0714 0024     		movs	r4, #0
 1567              	.LVL183:
 1568              	.L100:
1231:../Source Files/lpc_ssp_glcd.c **** 				    GLCD_Text(x,y,&temp,1,5,7,default5x7,size,color);
 1569              		.loc 1 1231 0
 1570 0716 0523     		movs	r3, #5
 1571 0718 4FF0070E 		mov	lr, #7
 1572              	.LVL184:
 1573 071c 8DE80840 		stmia	sp, {r3, lr}
 1574 0720 424B     		ldr	r3, .L123
 1575 0722 2046     		mov	r0, r4
 1576 0724 0293     		str	r3, [sp, #8]
 1577 0726 0BAA     		add	r2, sp, #44
 1578 0728 0396     		str	r6, [sp, #12]
 1579 072a CDF810A0 		str	sl, [sp, #16]
 1580 072e 2946     		mov	r1, r5
 1581 0730 0123     		movs	r3, #1
 1582 0732 CDF818C0 		str	ip, [sp, #24]
1232:../Source Files/lpc_ssp_glcd.c **** 				    x=x+5*size+1;
 1583              		.loc 1 1232 0
 1584 0736 4C44     		add	r4, r9, r4
 1585              	.LVL185:
1231:../Source Files/lpc_ssp_glcd.c **** 				    GLCD_Text(x,y,&temp,1,5,7,default5x7,size,color);
 1586              		.loc 1 1231 0
 1587 0738 FFF7FEFF 		bl	GLCD_Text
 1588              	.LVL186:
1216:../Source Files/lpc_ssp_glcd.c **** 				base = 10;
 1589              		.loc 1 1216 0
 1590 073c 0A22     		movs	r2, #10
1232:../Source Files/lpc_ssp_glcd.c **** 				    x=x+5*size+1;
 1591              		.loc 1 1232 0
 1592 073e 24B2     		sxth	r4, r4
 1593              	.LVL187:
1216:../Source Files/lpc_ssp_glcd.c **** 				base = 10;
 1594              		.loc 1 1216 0
 1595 0740 0792     		str	r2, [sp, #28]
 1596 0742 40E0     		b	.L116
 1597              	.LVL188:
 1598              	.L107:
 1599 0744 0A22     		movs	r2, #10
 1600 0746 0792     		str	r2, [sp, #28]
 1601 0748 1AE0     		b	.L113
 1602              	.LVL189:
 1603              	.L87:
1240:../Source Files/lpc_ssp_glcd.c **** 				format_flag = (*format++) - '1';
 1604              		.loc 1 1240 0
 1605 074a 9BF80310 		ldrb	r1, [fp, #3]	@ zero_extendqisi2
1239:../Source Files/lpc_ssp_glcd.c **** 				fill_char = *format++;
 1606              		.loc 1 1239 0
 1607 074e 9BF80220 		ldrb	r2, [fp, #2]	@ zero_extendqisi2
 1608              	.LVL190:
1240:../Source Files/lpc_ssp_glcd.c **** 				format_flag = (*format++) - '1';
 1609              		.loc 1 1240 0
 1610 0752 3139     		subs	r1, r1, #49
 1611 0754 CBB2     		uxtb	r3, r1
1241:../Source Files/lpc_ssp_glcd.c **** 				div_val = width_hex[format_flag];
 1612              		.loc 1 1241 0
 1613 0756 58B2     		sxtb	r0, r3
1239:../Source Files/lpc_ssp_glcd.c **** 				fill_char = *format++;
 1614              		.loc 1 1239 0
 1615 0758 8DF82B20 		strb	r2, [sp, #43]
 1616              	.LVL191:
1240:../Source Files/lpc_ssp_glcd.c **** 				format_flag = (*format++) - '1';
 1617              		.loc 1 1240 0
 1618 075c 8DF82A30 		strb	r3, [sp, #42]
1241:../Source Files/lpc_ssp_glcd.c **** 				div_val = width_hex[format_flag];
 1619              		.loc 1 1241 0
 1620 0760 26AA     		add	r2, sp, #152
1242:../Source Files/lpc_ssp_glcd.c **** 				u_val = va_arg(ap, int);
 1621              		.loc 1 1242 0
 1622 0762 0C9B     		ldr	r3, [sp, #48]
1241:../Source Files/lpc_ssp_glcd.c **** 				div_val = width_hex[format_flag];
 1623              		.loc 1 1241 0
 1624 0764 02EB8001 		add	r1, r2, r0, lsl #2
1240:../Source Files/lpc_ssp_glcd.c **** 				format_flag = (*format++) - '1';
 1625              		.loc 1 1240 0
 1626 0768 0BF1040E 		add	lr, fp, #4
1242:../Source Files/lpc_ssp_glcd.c **** 				u_val = va_arg(ap, int);
 1627              		.loc 1 1242 0
 1628 076c 181D     		adds	r0, r3, #4
1238:../Source Files/lpc_ssp_glcd.c **** 				base = 16;
 1629              		.loc 1 1238 0
 1630 076e 1022     		movs	r2, #16
1241:../Source Files/lpc_ssp_glcd.c **** 				div_val = width_hex[format_flag];
 1631              		.loc 1 1241 0
 1632 0770 51F828BC 		ldr	fp, [r1, #-40]
1242:../Source Files/lpc_ssp_glcd.c **** 				u_val = va_arg(ap, int);
 1633              		.loc 1 1242 0
 1634 0774 D3F800C0 		ldr	ip, [r3, #0]
1240:../Source Files/lpc_ssp_glcd.c **** 				format_flag = (*format++) - '1';
 1635              		.loc 1 1240 0
 1636 0778 CDF824E0 		str	lr, [sp, #36]
 1637              	.LVL192:
1242:../Source Files/lpc_ssp_glcd.c **** 				u_val = va_arg(ap, int);
 1638              		.loc 1 1242 0
 1639 077c 0C90     		str	r0, [sp, #48]
1238:../Source Files/lpc_ssp_glcd.c **** 				base = 16;
 1640              		.loc 1 1238 0
 1641 077e 0792     		str	r2, [sp, #28]
 1642              	.L99:
 1643              	.LVL193:
 1644              	.L113:
1245:../Source Files/lpc_ssp_glcd.c **** 				while(div_val > 1 && div_val > u_val)
 1645              		.loc 1 1245 0 discriminator 1
 1646 0780 BBF1010F 		cmp	fp, #1
 1647 0784 46D9     		bls	.L108
1245:../Source Files/lpc_ssp_glcd.c **** 				while(div_val > 1 && div_val > u_val)
 1648              		.loc 1 1245 0 is_stmt 0 discriminator 2
 1649 0786 E345     		cmp	fp, ip
 1650 0788 44D9     		bls	.L108
 1651              	.L104:
1247:../Source Files/lpc_ssp_glcd.c **** 					div_val /= base;
 1652              		.loc 1 1247 0 is_stmt 1
 1653 078a 079B     		ldr	r3, [sp, #28]
1248:../Source Files/lpc_ssp_glcd.c **** 				    if(x+5*size >= 320)          // Performs character wrapping
 1654              		.loc 1 1248 0
 1655 078c E219     		adds	r2, r4, r7
 1656 078e B2F5A07F 		cmp	r2, #320
1247:../Source Files/lpc_ssp_glcd.c **** 					div_val /= base;
 1657              		.loc 1 1247 0
 1658 0792 BBFBF3FB 		udiv	fp, fp, r3
 1659              	.LVL194:
1248:../Source Files/lpc_ssp_glcd.c **** 				    if(x+5*size >= 320)          // Performs character wrapping
 1660              		.loc 1 1248 0
 1661 0796 02DB     		blt	.L102
 1662              	.LVL195:
1251:../Source Files/lpc_ssp_glcd.c **** 				       y += 7*size + 1;                 // Set y at next position down
 1663              		.loc 1 1251 0
 1664 0798 4544     		add	r5, r8, r5
 1665              	.LVL196:
 1666 079a 2DB2     		sxth	r5, r5
 1667              	.LVL197:
1250:../Source Files/lpc_ssp_glcd.c **** 				       x = 0;                           // Set x at far left position
 1668              		.loc 1 1250 0
 1669 079c 0024     		movs	r4, #0
 1670              	.LVL198:
 1671              	.L102:
1253:../Source Files/lpc_ssp_glcd.c **** 					GLCD_Text(x,y,&fill_char,1,5,7,default5x7,size,color);
 1672              		.loc 1 1253 0
 1673 079e 0520     		movs	r0, #5
 1674 07a0 0723     		movs	r3, #7
 1675 07a2 8DE80900 		stmia	sp, {r0, r3}
 1676 07a6 2148     		ldr	r0, .L123
 1677 07a8 0396     		str	r6, [sp, #12]
 1678 07aa 0290     		str	r0, [sp, #8]
 1679 07ac CDF810A0 		str	sl, [sp, #16]
 1680 07b0 2046     		mov	r0, r4
 1681 07b2 2946     		mov	r1, r5
 1682 07b4 0DF12B02 		add	r2, sp, #43
 1683 07b8 0123     		movs	r3, #1
 1684 07ba CDF818C0 		str	ip, [sp, #24]
 1685 07be FFF7FEFF 		bl	GLCD_Text
 1686              	.LVL199:
1254:../Source Files/lpc_ssp_glcd.c **** 					x=x+5*size+1;
 1687              		.loc 1 1254 0
 1688 07c2 4C44     		add	r4, r9, r4
 1689              	.LVL200:
 1690 07c4 24B2     		sxth	r4, r4
 1691              	.LVL201:
 1692              	.L116:
 1693 07c6 DDF818C0 		ldr	ip, [sp, #24]
 1694 07ca D9E7     		b	.L113
 1695              	.LVL202:
 1696              	.L105:
1264:../Source Files/lpc_ssp_glcd.c **** 					GLCD_Text(x,y,&(hex[u_val/div_val]),1,5,7,default5x7,size,color);
 1697              		.loc 1 1264 0
 1698 07cc 0521     		movs	r1, #5
 1699 07ce 0723     		movs	r3, #7
 1700 07d0 8DE80A00 		stmia	sp, {r1, r3}
 1701 07d4 154B     		ldr	r3, .L123
 1702 07d6 BCFBFBFE 		udiv	lr, ip, fp
 1703 07da 0DAA     		add	r2, sp, #52
 1704 07dc 2046     		mov	r0, r4
 1705 07de 0293     		str	r3, [sp, #8]
 1706 07e0 2946     		mov	r1, r5
 1707 07e2 0396     		str	r6, [sp, #12]
 1708 07e4 CDF810A0 		str	sl, [sp, #16]
 1709 07e8 7244     		add	r2, r2, lr
 1710 07ea 0123     		movs	r3, #1
 1711 07ec CDF818C0 		str	ip, [sp, #24]
 1712 07f0 CDF820E0 		str	lr, [sp, #32]
 1713 07f4 FFF7FEFF 		bl	GLCD_Text
 1714              	.LVL203:
1266:../Source Files/lpc_ssp_glcd.c **** 					u_val %= div_val;
 1715              		.loc 1 1266 0
 1716 07f8 DDF818C0 		ldr	ip, [sp, #24]
 1717 07fc 0898     		ldr	r0, [sp, #32]
1267:../Source Files/lpc_ssp_glcd.c **** 					div_val /= base;
 1718              		.loc 1 1267 0
 1719 07fe 0799     		ldr	r1, [sp, #28]
1265:../Source Files/lpc_ssp_glcd.c **** 					x=x+5*size+1;
 1720              		.loc 1 1265 0
 1721 0800 4C44     		add	r4, r9, r4
 1722              	.LVL204:
1266:../Source Files/lpc_ssp_glcd.c **** 					u_val %= div_val;
 1723              		.loc 1 1266 0
 1724 0802 0BFB10CC 		mls	ip, fp, r0, ip
1267:../Source Files/lpc_ssp_glcd.c **** 					div_val /= base;
 1725              		.loc 1 1267 0
 1726 0806 BBFBF1FB 		udiv	fp, fp, r1
 1727              	.LVL205:
1265:../Source Files/lpc_ssp_glcd.c **** 					x=x+5*size+1;
 1728              		.loc 1 1265 0
 1729 080a 24B2     		sxth	r4, r4
 1730              	.LVL206:
1268:../Source Files/lpc_ssp_glcd.c **** 				}while(div_val);
 1731              		.loc 1 1268 0
 1732 080c BBF1000F 		cmp	fp, #0
 1733 0810 3FF48FAE 		beq	.L90
 1734              	.LVL207:
 1735              	.L108:
1259:../Source Files/lpc_ssp_glcd.c **** 				    if(x+5*size >= 320)          // Performs character wrapping
 1736              		.loc 1 1259 0
 1737 0814 E019     		adds	r0, r4, r7
 1738 0816 B0F5A07F 		cmp	r0, #320
 1739 081a D7DB     		blt	.L105
 1740              	.LVL208:
1262:../Source Files/lpc_ssp_glcd.c **** 				       y += 7*size + 1;                 // Set y at next position down
 1741              		.loc 1 1262 0
 1742 081c 08EB0501 		add	r1, r8, r5
 1743 0820 0DB2     		sxth	r5, r1
 1744              	.LVL209:
1261:../Source Files/lpc_ssp_glcd.c **** 				       x = 0;                           // Set x at far left position
 1745              		.loc 1 1261 0
 1746 0822 0024     		movs	r4, #0
 1747 0824 D2E7     		b	.L105
 1748              	.LVL210:
 1749              	.L112:
1272:../Source Files/lpc_ssp_glcd.c **** }
 1750              		.loc 1 1272 0
 1751 0826 27B0     		add	sp, sp, #156
 1752 0828 BDE8F08F 		pop	{r4, r5, r6, r7, r8, r9, sl, fp, pc}
 1753              	.L124:
 1754              		.align	2
 1755              	.L123:
 1756 082c 00150000 		.word	.LANCHOR3+1032
 1757              		.cfi_endproc
 1758              	.LFE82:
 1760              		.align	1
 1761              		.global	GLCD_Line
 1762              		.thumb
 1763              		.thumb_func
 1765              	GLCD_Line:
 1766              	.LFB76:
 617:../Source Files/lpc_ssp_glcd.c **** {
 1767              		.loc 1 617 0
 1768              		.cfi_startproc
 1769              		@ args = 4, pretend = 0, frame = 16
 1770              		@ frame_needed = 0, uses_anonymous_args = 0
 1771              	.LVL211:
 1772 0830 2DE9F04F 		push	{r4, r5, r6, r7, r8, r9, sl, fp, lr}
 1773              	.LCFI16:
 1774              		.cfi_def_cfa_offset 36
 1775              		.cfi_offset 4, -36
 1776              		.cfi_offset 5, -32
 1777              		.cfi_offset 6, -28
 1778              		.cfi_offset 7, -24
 1779              		.cfi_offset 8, -20
 1780              		.cfi_offset 9, -16
 1781              		.cfi_offset 10, -12
 1782              		.cfi_offset 11, -8
 1783              		.cfi_offset 14, -4
 621:../Source Files/lpc_ssp_glcd.c **** 	dx = abs((int16_t)(x2 - x1));
 1784              		.loc 1 621 0
 1785 0834 141A     		subs	r4, r2, r0
 622:../Source Files/lpc_ssp_glcd.c **** 	dy = abs((int16_t)(y2 - y1));
 1786              		.loc 1 622 0
 1787 0836 5E1A     		subs	r6, r3, r1
 621:../Source Files/lpc_ssp_glcd.c **** 	dx = abs((int16_t)(x2 - x1));
 1788              		.loc 1 621 0
 1789 0838 24B2     		sxth	r4, r4
 622:../Source Files/lpc_ssp_glcd.c **** 	dy = abs((int16_t)(y2 - y1));
 1790              		.loc 1 622 0
 1791 083a 36B2     		sxth	r6, r6
 621:../Source Files/lpc_ssp_glcd.c **** 	dx = abs((int16_t)(x2 - x1));
 1792              		.loc 1 621 0
 1793 083c 002C     		cmp	r4, #0
 1794 083e B8BF     		it	lt
 1795 0840 6442     		rsblt	r4, r4, #0
 1796              	.LVL212:
 622:../Source Files/lpc_ssp_glcd.c **** 	dy = abs((int16_t)(y2 - y1));
 1797              		.loc 1 622 0
 1798 0842 002E     		cmp	r6, #0
 1799 0844 B8BF     		it	lt
 1800 0846 7642     		rsblt	r6, r6, #0
 1801              	.LVL213:
 627:../Source Files/lpc_ssp_glcd.c **** 		addx = -1;
 1802              		.loc 1 627 0
 1803 0848 4FF6FF75 		movw	r5, #65535
 636:../Source Files/lpc_ssp_glcd.c **** 	if(dx >= dy)
 1804              		.loc 1 636 0
 1805 084c 24B2     		sxth	r4, r4
 1806              	.LVL214:
 1807 084e 36B2     		sxth	r6, r6
 1808              	.LVL215:
 617:../Source Files/lpc_ssp_glcd.c **** {
 1809              		.loc 1 617 0
 1810 0850 85B0     		sub	sp, sp, #20
 1811              	.LCFI17:
 1812              		.cfi_def_cfa_offset 56
 627:../Source Files/lpc_ssp_glcd.c **** 		addx = -1;
 1813              		.loc 1 627 0
 1814 0852 9042     		cmp	r0, r2
 1815 0854 CCBF     		ite	gt
 1816 0856 2F46     		movgt	r7, r5
 1817 0858 0127     		movle	r7, #1
 1818              	.LVL216:
 631:../Source Files/lpc_ssp_glcd.c **** 		addy = -1;
 1819              		.loc 1 631 0
 1820 085a 9942     		cmp	r1, r3
 1821 085c CCBF     		ite	gt
 1822 085e A846     		movgt	r8, r5
 1823 0860 4FF00108 		movle	r8, #1
 1824              	.LVL217:
 636:../Source Files/lpc_ssp_glcd.c **** 	if(dx >= dy)
 1825              		.loc 1 636 0
 1826 0864 B442     		cmp	r4, r6
 617:../Source Files/lpc_ssp_glcd.c **** {
 1827              		.loc 1 617 0
 1828 0866 BDF83890 		ldrh	r9, [sp, #56]
 636:../Source Files/lpc_ssp_glcd.c **** 	if(dx >= dy)
 1829              		.loc 1 636 0
 1830 086a 29DB     		blt	.L128
 638:../Source Files/lpc_ssp_glcd.c **** 		P = 2*dy - dx;
 1831              		.loc 1 638 0
 1832 086c 4FEA460B 		lsl	fp, r6, #1
 651:../Source Files/lpc_ssp_glcd.c **** 				P += 2*dy - 2*dx;
 1833              		.loc 1 651 0
 1834 0870 361B     		subs	r6, r6, r4
 1835 0872 7300     		lsls	r3, r6, #1
 1836              	.LVL218:
 638:../Source Files/lpc_ssp_glcd.c **** 		P = 2*dy - dx;
 1837              		.loc 1 638 0
 1838 0874 C4EB0B05 		rsb	r5, r4, fp
 1839              	.LVL219:
 651:../Source Files/lpc_ssp_glcd.c **** 				P += 2*dy - 2*dx;
 1840              		.loc 1 651 0
 1841 0878 0393     		str	r3, [sp, #12]
 640:../Source Files/lpc_ssp_glcd.c **** 		for(i=0; i<=dx; ++i)
 1842              		.loc 1 640 0
 1843 087a 8A46     		mov	sl, r1
 1844 087c 0026     		movs	r6, #0
 1845              	.LVL220:
 1846              	.L129:
 640:../Source Files/lpc_ssp_glcd.c **** 		for(i=0; i<=dx; ++i)
 1847              		.loc 1 640 0 is_stmt 0 discriminator 1
 1848 087e A642     		cmp	r6, r4
 1849 0880 47DC     		bgt	.L125
 1850              	.L132:
 642:../Source Files/lpc_ssp_glcd.c **** 			GLCD_PutPixel(x, y, color);
 1851              		.loc 1 642 0 is_stmt 1
 1852 0882 1FFA8AF3 		uxth	r3, sl
 1853 0886 1FFA80FE 		uxth	lr, r0
 1854 088a 1946     		mov	r1, r3
 1855 088c 7046     		mov	r0, lr
 1856              	.LVL221:
 1857 088e 4A46     		mov	r2, r9
 1858 0890 0193     		str	r3, [sp, #4]
 1859 0892 CDF808E0 		str	lr, [sp, #8]
 1860 0896 FFF7FEFF 		bl	GLCD_PutPixel
 1861              	.LVL222:
 1862 089a DDF808C0 		ldr	ip, [sp, #8]
 644:../Source Files/lpc_ssp_glcd.c **** 			if(P < 0)
 1863              		.loc 1 644 0
 1864 089e 002D     		cmp	r5, #0
 1865 08a0 0CEB0701 		add	r1, ip, r7
 1866 08a4 019B     		ldr	r3, [sp, #4]
 1867 08a6 02DA     		bge	.L130
 646:../Source Files/lpc_ssp_glcd.c **** 				P += 2*dy;
 1868              		.loc 1 646 0
 1869 08a8 5D44     		add	r5, r5, fp
 1870              	.LVL223:
 647:../Source Files/lpc_ssp_glcd.c **** 				x += addx;
 1871              		.loc 1 647 0
 1872 08aa 88B2     		uxth	r0, r1
 1873              	.LVL224:
 1874 08ac 06E0     		b	.L131
 1875              	.LVL225:
 1876              	.L130:
 651:../Source Files/lpc_ssp_glcd.c **** 				P += 2*dy - 2*dx;
 1877              		.loc 1 651 0
 1878 08ae 0398     		ldr	r0, [sp, #12]
 653:../Source Files/lpc_ssp_glcd.c **** 				y += addy;
 1879              		.loc 1 653 0
 1880 08b0 03EB080A 		add	sl, r3, r8
 1881              	.LVL226:
 651:../Source Files/lpc_ssp_glcd.c **** 				P += 2*dy - 2*dx;
 1882              		.loc 1 651 0
 1883 08b4 2D18     		adds	r5, r5, r0
 1884              	.LVL227:
 653:../Source Files/lpc_ssp_glcd.c **** 				y += addy;
 1885              		.loc 1 653 0
 1886 08b6 1FFA8AFA 		uxth	sl, sl
 652:../Source Files/lpc_ssp_glcd.c **** 				x += addx;
 1887              		.loc 1 652 0
 1888 08ba 88B2     		uxth	r0, r1
 1889              	.LVL228:
 1890              	.L131:
 640:../Source Files/lpc_ssp_glcd.c **** 		for(i=0; i<=dx; ++i)
 1891              		.loc 1 640 0
 1892 08bc 0136     		adds	r6, r6, #1
 1893              	.LVL229:
 1894 08be DEE7     		b	.L129
 1895              	.LVL230:
 1896              	.L128:
 672:../Source Files/lpc_ssp_glcd.c **** 				P += 2*dx - 2*dy;
 1897              		.loc 1 672 0
 1898 08c0 A21B     		subs	r2, r4, r6
 1899              	.LVL231:
 659:../Source Files/lpc_ssp_glcd.c **** 		P = 2*dx - dy;
 1900              		.loc 1 659 0
 1901 08c2 4FEA440A 		lsl	sl, r4, #1
 672:../Source Files/lpc_ssp_glcd.c **** 				P += 2*dx - 2*dy;
 1902              		.loc 1 672 0
 1903 08c6 5300     		lsls	r3, r2, #1
 1904              	.LVL232:
 659:../Source Files/lpc_ssp_glcd.c **** 		P = 2*dx - dy;
 1905              		.loc 1 659 0
 1906 08c8 C6EB0A05 		rsb	r5, r6, sl
 1907              	.LVL233:
 672:../Source Files/lpc_ssp_glcd.c **** 				P += 2*dx - 2*dy;
 1908              		.loc 1 672 0
 1909 08cc 0393     		str	r3, [sp, #12]
 661:../Source Files/lpc_ssp_glcd.c **** 		for(i=0; i<=dy; ++i)
 1910              		.loc 1 661 0
 1911 08ce 8346     		mov	fp, r0
 1912 08d0 0024     		movs	r4, #0
 1913              	.LVL234:
 1914              	.L133:
 661:../Source Files/lpc_ssp_glcd.c **** 		for(i=0; i<=dy; ++i)
 1915              		.loc 1 661 0 is_stmt 0 discriminator 1
 1916 08d2 B442     		cmp	r4, r6
 1917 08d4 1DDC     		bgt	.L125
 1918              	.L136:
 663:../Source Files/lpc_ssp_glcd.c **** 			GLCD_PutPixel(x, y, color);
 1919              		.loc 1 663 0 is_stmt 1
 1920 08d6 1FFA81FC 		uxth	ip, r1
 1921 08da 1FFA8BF3 		uxth	r3, fp
 1922 08de 6146     		mov	r1, ip
 1923              	.LVL235:
 1924 08e0 1846     		mov	r0, r3
 1925 08e2 4A46     		mov	r2, r9
 1926 08e4 CDF808C0 		str	ip, [sp, #8]
 1927 08e8 0193     		str	r3, [sp, #4]
 1928 08ea FFF7FEFF 		bl	GLCD_PutPixel
 1929              	.LVL236:
 1930 08ee DDF808C0 		ldr	ip, [sp, #8]
 665:../Source Files/lpc_ssp_glcd.c **** 			if(P < 0)
 1931              		.loc 1 665 0
 1932 08f2 002D     		cmp	r5, #0
 1933 08f4 0CEB0801 		add	r1, ip, r8
 1934 08f8 0198     		ldr	r0, [sp, #4]
 1935 08fa 01DA     		bge	.L134
 667:../Source Files/lpc_ssp_glcd.c **** 				P += 2*dx;
 1936              		.loc 1 667 0
 1937 08fc 5544     		add	r5, r5, sl
 1938              	.LVL237:
 1939 08fe 05E0     		b	.L140
 1940              	.L134:
 672:../Source Files/lpc_ssp_glcd.c **** 				P += 2*dx - 2*dy;
 1941              		.loc 1 672 0
 1942 0900 039A     		ldr	r2, [sp, #12]
 673:../Source Files/lpc_ssp_glcd.c **** 				x += addx;
 1943              		.loc 1 673 0
 1944 0902 00EB070B 		add	fp, r0, r7
 1945              	.LVL238:
 672:../Source Files/lpc_ssp_glcd.c **** 				P += 2*dx - 2*dy;
 1946              		.loc 1 672 0
 1947 0906 AD18     		adds	r5, r5, r2
 1948              	.LVL239:
 673:../Source Files/lpc_ssp_glcd.c **** 				x += addx;
 1949              		.loc 1 673 0
 1950 0908 1FFA8BFB 		uxth	fp, fp
 1951              	.L140:
 1952              	.LVL240:
 674:../Source Files/lpc_ssp_glcd.c **** 				y += addy;
 1953              		.loc 1 674 0
 1954 090c 89B2     		uxth	r1, r1
 1955              	.LVL241:
 661:../Source Files/lpc_ssp_glcd.c **** 		for(i=0; i<=dy; ++i)
 1956              		.loc 1 661 0
 1957 090e 0134     		adds	r4, r4, #1
 1958              	.LVL242:
 1959 0910 DFE7     		b	.L133
 1960              	.LVL243:
 1961              	.L125:
 678:../Source Files/lpc_ssp_glcd.c **** }
 1962              		.loc 1 678 0
 1963 0912 05B0     		add	sp, sp, #20
 1964 0914 BDE8F08F 		pop	{r4, r5, r6, r7, r8, r9, sl, fp, pc}
 1965              		.cfi_endproc
 1966              	.LFE76:
 1968              		.align	1
 1969              		.global	GLCD_LBar
 1970              		.thumb
 1971              		.thumb_func
 1973              	GLCD_LBar:
 1974              	.LFB84:
1311:../Source Files/lpc_ssp_glcd.c **** {
 1975              		.loc 1 1311 0
 1976              		.cfi_startproc
 1977              		@ args = 8, pretend = 0, frame = 0
 1978              		@ frame_needed = 0, uses_anonymous_args = 0
 1979              	.LVL244:
 1980 0918 2DE9F743 		push	{r0, r1, r2, r4, r5, r6, r7, r8, r9, lr}
 1981              	.LCFI18:
 1982              		.cfi_def_cfa_offset 40
 1983              		.cfi_offset 0, -40
 1984              		.cfi_offset 1, -36
 1985              		.cfi_offset 2, -32
 1986              		.cfi_offset 4, -28
 1987              		.cfi_offset 5, -24
 1988              		.cfi_offset 6, -20
 1989              		.cfi_offset 7, -16
 1990              		.cfi_offset 8, -12
 1991              		.cfi_offset 9, -8
 1992              		.cfi_offset 14, -4
1311:../Source Files/lpc_ssp_glcd.c **** {
 1993              		.loc 1 1311 0
 1994 091c 9DF82860 		ldrb	r6, [sp, #40]	@ zero_extendqisi2
 1995 0920 1446     		mov	r4, r2
 1996 0922 1D46     		mov	r5, r3
 1997 0924 BDF82C70 		ldrh	r7, [sp, #44]
1314:../Source Files/lpc_ssp_glcd.c **** 	if(dec)
 1998              		.loc 1 1314 0
 1999 0928 0EB1     		cbz	r6, .L142
1316:../Source Files/lpc_ssp_glcd.c **** 		y_diff=y+(per);
 2000              		.loc 1 1316 0
 2001 092a 9B18     		adds	r3, r3, r2
 2002              	.LVL245:
 2003 092c 00E0     		b	.L155
 2004              	.LVL246:
 2005              	.L142:
1320:../Source Files/lpc_ssp_glcd.c **** 		y_diff=y-(per);
 2006              		.loc 1 1320 0
 2007 092e D31A     		subs	r3, r2, r3
 2008              	.LVL247:
 2009              	.L155:
 2010 0930 9BB2     		uxth	r3, r3
 2011              	.LVL248:
1323:../Source Files/lpc_ssp_glcd.c **** 	if((y_diff>=20) && (index<=10) && !dec)
 2012              		.loc 1 1323 0
 2013 0932 1AB2     		sxth	r2, r3
 2014              	.LVL249:
 2015 0934 132A     		cmp	r2, #19
 2016 0936 1DDD     		ble	.L144
1323:../Source Files/lpc_ssp_glcd.c **** 	if((y_diff>=20) && (index<=10) && !dec)
 2017              		.loc 1 1323 0 is_stmt 0 discriminator 1
 2018 0938 0A28     		cmp	r0, #10
 2019 093a 1BDC     		bgt	.L144
 2020 093c 002E     		cmp	r6, #0
 2021 093e 3AD1     		bne	.L145
1327:../Source Files/lpc_ssp_glcd.c **** 			x1 = 30+(index*26)-(width-(width/2));
 2022              		.loc 1 1327 0 is_stmt 1
 2023 0940 1A22     		movs	r2, #26
 2024 0942 5043     		muls	r0, r2, r0
 2025              	.LVL250:
 2026 0944 1E30     		adds	r0, r0, #30
 2027 0946 00EB5103 		add	r3, r0, r1, lsr #1
 2028              	.LVL251:
 2029 094a 98B2     		uxth	r0, r3
 2030 094c 411A     		subs	r1, r0, r1
 2031              	.LVL252:
 2032 094e 1FFA81F8 		uxth	r8, r1
1328:../Source Files/lpc_ssp_glcd.c **** 			x2 = x1+width;
 2033              		.loc 1 1328 0
 2034 0952 1FFA80F9 		uxth	r9, r0
 2035              	.L146:
1325:../Source Files/lpc_ssp_glcd.c **** 		for(h=0;h<=per;h++)
 2036              		.loc 1 1325 0 discriminator 1
 2037 0956 32B2     		sxth	r2, r6
 2038 0958 AA42     		cmp	r2, r5
 2039 095a 2EDC     		bgt	.L141
 2040              	.L147:
 2041              	.LVL253:
1310:../Source Files/lpc_ssp_glcd.c **** void GLCD_LBar(int16_t index, uint8_t width, int16_t y, int16_t per, Bool dec,uint16_t color)
 2042              		.loc 1 1310 0 discriminator 2
 2043 095c A31B     		subs	r3, r4, r6
1329:../Source Files/lpc_ssp_glcd.c **** 			GLCD_Line(x1,y-h,x2,y-h,color);
 2044              		.loc 1 1329 0 discriminator 2
 2045 095e 19B2     		sxth	r1, r3
 2046 0960 0097     		str	r7, [sp, #0]
 2047 0962 0FFA88F0 		sxth	r0, r8
 2048 0966 0FFA89F2 		sxth	r2, r9
 2049 096a 0B46     		mov	r3, r1
 2050 096c FFF7FEFF 		bl	GLCD_Line
 2051              	.LVL254:
 2052 0970 0136     		adds	r6, r6, #1
 2053 0972 F0E7     		b	.L146
 2054              	.LVL255:
 2055              	.L144:
1332:../Source Files/lpc_ssp_glcd.c **** 	else if(dec && (y_diff<=219) && (index<=10))
 2056              		.loc 1 1332 0
 2057 0974 0EB3     		cbz	r6, .L141
1332:../Source Files/lpc_ssp_glcd.c **** 	else if(dec && (y_diff<=219) && (index<=10))
 2058              		.loc 1 1332 0 is_stmt 0 discriminator 1
 2059 0976 1BB2     		sxth	r3, r3
 2060              	.LVL256:
 2061 0978 DB2B     		cmp	r3, #219
 2062 097a 1EDC     		bgt	.L141
 2063 097c 0A28     		cmp	r0, #10
 2064              	.L156:
 2065 097e 1CDC     		bgt	.L141
1336:../Source Files/lpc_ssp_glcd.c **** 			x1 = 30+(index*26)-(width-(width/2));
 2066              		.loc 1 1336 0 is_stmt 1 discriminator 1
 2067 0980 1A26     		movs	r6, #26
 2068 0982 7043     		muls	r0, r6, r0
 2069              	.LVL257:
 2070 0984 1E30     		adds	r0, r0, #30
 2071 0986 00EB5100 		add	r0, r0, r1, lsr #1
 2072 098a 82B2     		uxth	r2, r0
 2073 098c 511A     		subs	r1, r2, r1
 2074              	.LVL258:
 2075 098e 1FFA81F8 		uxth	r8, r1
1337:../Source Files/lpc_ssp_glcd.c **** 			x2 = x1+width;
 2076              		.loc 1 1337 0 discriminator 1
 2077 0992 1FFA82F9 		uxth	r9, r2
 2078 0996 0026     		movs	r6, #0
 2079              	.L149:
1334:../Source Files/lpc_ssp_glcd.c **** 		for(h=0;h<=per;h++)
 2080              		.loc 1 1334 0 discriminator 1
 2081 0998 33B2     		sxth	r3, r6
 2082 099a AB42     		cmp	r3, r5
 2083 099c 0DDC     		bgt	.L141
 2084              	.L150:
1310:../Source Files/lpc_ssp_glcd.c **** void GLCD_LBar(int16_t index, uint8_t width, int16_t y, int16_t per, Bool dec,uint16_t color)
 2085              		.loc 1 1310 0 discriminator 2
 2086 099e 3019     		adds	r0, r6, r4
1338:../Source Files/lpc_ssp_glcd.c **** 			GLCD_Line(x1,y+h,x2,y+h,color);
 2087              		.loc 1 1338 0 discriminator 2
 2088 09a0 01B2     		sxth	r1, r0
 2089 09a2 0097     		str	r7, [sp, #0]
 2090 09a4 0FFA88F0 		sxth	r0, r8
 2091 09a8 0FFA89F2 		sxth	r2, r9
 2092 09ac 0B46     		mov	r3, r1
 2093 09ae FFF7FEFF 		bl	GLCD_Line
 2094              	.LVL259:
 2095 09b2 0136     		adds	r6, r6, #1
 2096 09b4 F0E7     		b	.L149
 2097              	.LVL260:
 2098              	.L145:
1332:../Source Files/lpc_ssp_glcd.c **** 	else if(dec && (y_diff<=219) && (index<=10))
 2099              		.loc 1 1332 0
 2100 09b6 DB2A     		cmp	r2, #219
 2101 09b8 E1E7     		b	.L156
 2102              	.LVL261:
 2103              	.L141:
1341:../Source Files/lpc_ssp_glcd.c **** }
 2104              		.loc 1 1341 0
 2105 09ba BDE8FE83 		pop	{r1, r2, r3, r4, r5, r6, r7, r8, r9, pc}
 2106              		.cfi_endproc
 2107              	.LFE84:
 2109              		.align	1
 2110              		.global	GLCD_Triangle
 2111              		.thumb
 2112              		.thumb_func
 2114              	GLCD_Triangle:
 2115              	.LFB79:
 794:../Source Files/lpc_ssp_glcd.c **** {
 2116              		.loc 1 794 0
 2117              		.cfi_startproc
 2118              		@ args = 0, pretend = 0, frame = 48
 2119              		@ frame_needed = 0, uses_anonymous_args = 0
 2120              	.LVL262:
 2121 09be 2DE9F04F 		push	{r4, r5, r6, r7, r8, r9, sl, fp, lr}
 2122              	.LCFI19:
 2123              		.cfi_def_cfa_offset 36
 2124              		.cfi_offset 4, -36
 2125              		.cfi_offset 5, -32
 2126              		.cfi_offset 6, -28
 2127              		.cfi_offset 7, -24
 2128              		.cfi_offset 8, -20
 2129              		.cfi_offset 9, -16
 2130              		.cfi_offset 10, -12
 2131              		.cfi_offset 11, -8
 2132              		.cfi_offset 14, -4
 2133 09c2 8FB0     		sub	sp, sp, #60
 2134              	.LCFI20:
 2135              		.cfi_def_cfa_offset 96
 794:../Source Files/lpc_ssp_glcd.c **** {
 2136              		.loc 1 794 0
 2137 09c4 0693     		str	r3, [sp, #24]
 795:../Source Files/lpc_ssp_glcd.c ****     if(cfg->fill)
 2138              		.loc 1 795 0
 2139 09c6 1B78     		ldrb	r3, [r3, #0]	@ zero_extendqisi2
 2140              	.LVL263:
 794:../Source Files/lpc_ssp_glcd.c **** {
 2141              		.loc 1 794 0
 2142 09c8 0746     		mov	r7, r0
 2143 09ca 0D46     		mov	r5, r1
 2144 09cc 1646     		mov	r6, r2
 795:../Source Files/lpc_ssp_glcd.c ****     if(cfg->fill)
 2145              		.loc 1 795 0
 2146 09ce 002B     		cmp	r3, #0
 2147 09d0 00F03082 		beq	.L158
 2148              	.LVL264:
 2149              	.LBB16:
 803:../Source Files/lpc_ssp_glcd.c ****     	if (p1->y > p2->y) { SWAP(p1->y,p2->y); SWAP(p1->x,p2->x); }
 2150              		.loc 1 803 0
 2151 09d4 4488     		ldrh	r4, [r0, #2]
 2152 09d6 4A88     		ldrh	r2, [r1, #2]
 2153              	.LVL265:
 2154 09d8 20B2     		sxth	r0, r4
 2155              	.LVL266:
 2156 09da 11B2     		sxth	r1, r2
 2157              	.LVL267:
 2158 09dc 8842     		cmp	r0, r1
 2159 09de 14DD     		ble	.L159
 803:../Source Files/lpc_ssp_glcd.c ****     	if (p1->y > p2->y) { SWAP(p1->y,p2->y); SWAP(p1->x,p2->x); }
 2160              		.loc 1 803 0 is_stmt 0 discriminator 1
 2161 09e0 82EA0403 		eor	r3, r2, r4
 2162 09e4 7B80     		strh	r3, [r7, #2]	@ movhi
 2163 09e6 6C88     		ldrh	r4, [r5, #2]
 2164 09e8 2888     		ldrh	r0, [r5, #0]
 2165 09ea 6340     		eors	r3, r3, r4
 2166 09ec 6B80     		strh	r3, [r5, #2]	@ movhi
 2167 09ee 7A88     		ldrh	r2, [r7, #2]
 2168 09f0 3988     		ldrh	r1, [r7, #0]
 2169 09f2 5340     		eors	r3, r3, r2
 2170 09f4 7B80     		strh	r3, [r7, #2]	@ movhi
 2171 09f6 80EA0103 		eor	r3, r0, r1
 2172 09fa 9CB2     		uxth	r4, r3
 2173 09fc 3C80     		strh	r4, [r7, #0]	@ movhi
 2174 09fe 2A88     		ldrh	r2, [r5, #0]
 2175 0a00 5440     		eors	r4, r4, r2
 2176 0a02 2C80     		strh	r4, [r5, #0]	@ movhi
 2177 0a04 3888     		ldrh	r0, [r7, #0]
 2178 0a06 4440     		eors	r4, r4, r0
 2179 0a08 3C80     		strh	r4, [r7, #0]	@ movhi
 2180              	.L159:
 804:../Source Files/lpc_ssp_glcd.c ****     	if (p1->y > p3->y) { SWAP(p1->y,p3->y); SWAP(p1->x,p3->x); }
 2181              		.loc 1 804 0 is_stmt 1
 2182 0a0a 7B88     		ldrh	r3, [r7, #2]
 2183 0a0c 7488     		ldrh	r4, [r6, #2]
 2184 0a0e 1AB2     		sxth	r2, r3
 2185 0a10 21B2     		sxth	r1, r4
 2186 0a12 8A42     		cmp	r2, r1
 2187 0a14 14DD     		ble	.L160
 804:../Source Files/lpc_ssp_glcd.c ****     	if (p1->y > p3->y) { SWAP(p1->y,p3->y); SWAP(p1->x,p3->x); }
 2188              		.loc 1 804 0 is_stmt 0 discriminator 1
 2189 0a16 84EA0300 		eor	r0, r4, r3
 2190 0a1a 7880     		strh	r0, [r7, #2]	@ movhi
 2191 0a1c 7388     		ldrh	r3, [r6, #2]
 2192 0a1e 3288     		ldrh	r2, [r6, #0]
 2193 0a20 5840     		eors	r0, r0, r3
 2194 0a22 7080     		strh	r0, [r6, #2]	@ movhi
 2195 0a24 7C88     		ldrh	r4, [r7, #2]
 2196 0a26 3988     		ldrh	r1, [r7, #0]
 2197 0a28 6040     		eors	r0, r0, r4
 2198 0a2a 7880     		strh	r0, [r7, #2]	@ movhi
 2199 0a2c 82EA0100 		eor	r0, r2, r1
 2200 0a30 83B2     		uxth	r3, r0
 2201 0a32 3B80     		strh	r3, [r7, #0]	@ movhi
 2202 0a34 3488     		ldrh	r4, [r6, #0]
 2203 0a36 6340     		eors	r3, r3, r4
 2204 0a38 3380     		strh	r3, [r6, #0]	@ movhi
 2205 0a3a 3A88     		ldrh	r2, [r7, #0]
 2206 0a3c 5340     		eors	r3, r3, r2
 2207 0a3e 3B80     		strh	r3, [r7, #0]	@ movhi
 2208              	.L160:
 805:../Source Files/lpc_ssp_glcd.c ****     	if (p2->y > p3->y) { SWAP(p2->y,p3->y); SWAP(p2->x,p3->x); }
 2209              		.loc 1 805 0 is_stmt 1
 2210 0a40 6B88     		ldrh	r3, [r5, #2]
 2211 0a42 7488     		ldrh	r4, [r6, #2]
 2212 0a44 18B2     		sxth	r0, r3
 2213 0a46 21B2     		sxth	r1, r4
 2214 0a48 8842     		cmp	r0, r1
 2215 0a4a 13DD     		ble	.L161
 805:../Source Files/lpc_ssp_glcd.c ****     	if (p2->y > p3->y) { SWAP(p2->y,p3->y); SWAP(p2->x,p3->x); }
 2216              		.loc 1 805 0 is_stmt 0 discriminator 1
 2217 0a4c 6340     		eors	r3, r3, r4
 2218 0a4e 6B80     		strh	r3, [r5, #2]	@ movhi
 2219 0a50 7288     		ldrh	r2, [r6, #2]
 2220 0a52 3088     		ldrh	r0, [r6, #0]
 2221 0a54 5340     		eors	r3, r3, r2
 2222 0a56 7380     		strh	r3, [r6, #2]	@ movhi
 2223 0a58 6C88     		ldrh	r4, [r5, #2]
 2224 0a5a 2988     		ldrh	r1, [r5, #0]
 2225 0a5c 6340     		eors	r3, r3, r4
 2226 0a5e 6B80     		strh	r3, [r5, #2]	@ movhi
 2227 0a60 80EA0103 		eor	r3, r0, r1
 2228 0a64 9CB2     		uxth	r4, r3
 2229 0a66 2C80     		strh	r4, [r5, #0]	@ movhi
 2230 0a68 3288     		ldrh	r2, [r6, #0]
 2231 0a6a 5440     		eors	r4, r4, r2
 2232 0a6c 3480     		strh	r4, [r6, #0]	@ movhi
 2233 0a6e 2888     		ldrh	r0, [r5, #0]
 2234 0a70 4440     		eors	r4, r4, r0
 2235 0a72 2C80     		strh	r4, [r5, #0]	@ movhi
 2236              	.L161:
 807:../Source Files/lpc_ssp_glcd.c ****     	t1x=t2x=p1->x; y=p1->y;   // Starting points
 2237              		.loc 1 807 0 is_stmt 1
 2238 0a74 3988     		ldrh	r1, [r7, #0]
 809:../Source Files/lpc_ssp_glcd.c ****     	dx1 = (int16_t)(p2->x - p1->x);
 2239              		.loc 1 809 0
 2240 0a76 2A88     		ldrh	r2, [r5, #0]
 807:../Source Files/lpc_ssp_glcd.c ****     	t1x=t2x=p1->x; y=p1->y;   // Starting points
 2241              		.loc 1 807 0
 2242 0a78 8CB2     		uxth	r4, r1
 2243              	.LVL268:
 809:../Source Files/lpc_ssp_glcd.c ****     	dx1 = (int16_t)(p2->x - p1->x);
 2244              		.loc 1 809 0
 2245 0a7a 101B     		subs	r0, r2, r4
 807:../Source Files/lpc_ssp_glcd.c ****     	t1x=t2x=p1->x; y=p1->y;   // Starting points
 2246              		.loc 1 807 0
 2247 0a7c 7B88     		ldrh	r3, [r7, #2]
 809:../Source Files/lpc_ssp_glcd.c ****     	dx1 = (int16_t)(p2->x - p1->x);
 2248              		.loc 1 809 0
 2249 0a7e 82B2     		uxth	r2, r0
 2250 0a80 1FFA82F9 		uxth	r9, r2
 807:../Source Files/lpc_ssp_glcd.c ****     	t1x=t2x=p1->x; y=p1->y;   // Starting points
 2251              		.loc 1 807 0
 2252 0a84 1FFA83F8 		uxth	r8, r3
 810:../Source Files/lpc_ssp_glcd.c ****     	if(dx1<0) { dx1=-dx1; signx1=-1; } else signx1=1;
 2253              		.loc 1 810 0
 2254 0a88 19F4004F 		tst	r9, #32768
 807:../Source Files/lpc_ssp_glcd.c ****     	t1x=t2x=p1->x; y=p1->y;   // Starting points
 2255              		.loc 1 807 0
 2256 0a8c CDF81480 		str	r8, [sp, #20]
 2257              	.LVL269:
 810:../Source Files/lpc_ssp_glcd.c ****     	if(dx1<0) { dx1=-dx1; signx1=-1; } else signx1=1;
 2258              		.loc 1 810 0
 2259 0a90 08D0     		beq	.L202
 810:../Source Files/lpc_ssp_glcd.c ****     	if(dx1<0) { dx1=-dx1; signx1=-1; } else signx1=1;
 2260              		.loc 1 810 0 is_stmt 0 discriminator 1
 2261 0a92 C2F10009 		rsb	r9, r2, #0
 2262 0a96 4FF6FF7C 		movw	ip, #65535
 2263 0a9a 1FFA89F9 		uxth	r9, r9
 2264              	.LVL270:
 2265 0a9e CDF820C0 		str	ip, [sp, #32]
 2266 0aa2 03E0     		b	.L162
 2267              	.LVL271:
 2268              	.L202:
 810:../Source Files/lpc_ssp_glcd.c ****     	if(dx1<0) { dx1=-dx1; signx1=-1; } else signx1=1;
 2269              		.loc 1 810 0
 2270 0aa4 4FF0010A 		mov	sl, #1
 2271 0aa8 CDF820A0 		str	sl, [sp, #32]
 2272              	.LVL272:
 2273              	.L162:
 811:../Source Files/lpc_ssp_glcd.c ****     	dy1 = (int16_t)(p2->y - p1->y);
 2274              		.loc 1 811 0 is_stmt 1
 2275 0aac B5F802B0 		ldrh	fp, [r5, #2]
 2276 0ab0 DDF81480 		ldr	r8, [sp, #20]
 2277 0ab4 C8EB0B00 		rsb	r0, r8, fp
 2278 0ab8 82B2     		uxth	r2, r0
 813:../Source Files/lpc_ssp_glcd.c ****     	dx2 = (int8_t)(p3->x - p1->x);
 2279              		.loc 1 813 0
 2280 0aba 3078     		ldrb	r0, [r6, #0]	@ zero_extendqisi2
 811:../Source Files/lpc_ssp_glcd.c ****     	dy1 = (int16_t)(p2->y - p1->y);
 2281              		.loc 1 811 0
 2282 0abc 0392     		str	r2, [sp, #12]
 2283              	.LVL273:
 813:../Source Files/lpc_ssp_glcd.c ****     	dx2 = (int8_t)(p3->x - p1->x);
 2284              		.loc 1 813 0
 2285 0abe 411A     		subs	r1, r0, r1
 2286              	.LVL274:
 2287 0ac0 4AB2     		sxtb	r2, r1
 814:../Source Files/lpc_ssp_glcd.c ****     	if(dx2<0) { dx2=-dx2; signx2=-1; } else signx2=1;
 2288              		.loc 1 814 0
 2289 0ac2 11B2     		sxth	r1, r2
 813:../Source Files/lpc_ssp_glcd.c ****     	dx2 = (int8_t)(p3->x - p1->x);
 2290              		.loc 1 813 0
 2291 0ac4 1FFA82FA 		uxth	sl, r2
 814:../Source Files/lpc_ssp_glcd.c ****     	if(dx2<0) { dx2=-dx2; signx2=-1; } else signx2=1;
 2292              		.loc 1 814 0
 2293 0ac8 0029     		cmp	r1, #0
 813:../Source Files/lpc_ssp_glcd.c ****     	dx2 = (int8_t)(p3->x - p1->x);
 2294              		.loc 1 813 0
 2295 0aca CDF810A0 		str	sl, [sp, #16]
 2296              	.LVL275:
 814:../Source Files/lpc_ssp_glcd.c ****     	if(dx2<0) { dx2=-dx2; signx2=-1; } else signx2=1;
 2297              		.loc 1 814 0
 2298 0ace 07DA     		bge	.L203
 814:../Source Files/lpc_ssp_glcd.c ****     	if(dx2<0) { dx2=-dx2; signx2=-1; } else signx2=1;
 2299              		.loc 1 814 0 is_stmt 0 discriminator 1
 2300 0ad0 5242     		negs	r2, r2
 2301              	.LVL276:
 2302 0ad2 90B2     		uxth	r0, r2
 2303 0ad4 4FF6FF78 		movw	r8, #65535
 2304 0ad8 0490     		str	r0, [sp, #16]
 2305              	.LVL277:
 2306 0ada CDF82880 		str	r8, [sp, #40]
 2307 0ade 03E0     		b	.L163
 2308              	.LVL278:
 2309              	.L203:
 814:../Source Files/lpc_ssp_glcd.c ****     	if(dx2<0) { dx2=-dx2; signx2=-1; } else signx2=1;
 2310              		.loc 1 814 0
 2311 0ae0 4FF0010C 		mov	ip, #1
 2312 0ae4 CDF828C0 		str	ip, [sp, #40]
 2313              	.LVL279:
 2314              	.L163:
 815:../Source Files/lpc_ssp_glcd.c ****     	dy2 = (int8_t)(p3->y - p1->y);
 2315              		.loc 1 815 0 is_stmt 1
 2316 0ae8 B178     		ldrb	r1, [r6, #2]	@ zero_extendqisi2
 817:../Source Files/lpc_ssp_glcd.c ****     	if (dy1 > dx1)
 2317              		.loc 1 817 0
 2318 0aea DDF80CC0 		ldr	ip, [sp, #12]
 815:../Source Files/lpc_ssp_glcd.c ****     	dy2 = (int8_t)(p3->y - p1->y);
 2319              		.loc 1 815 0
 2320 0aee CA1A     		subs	r2, r1, r3
 2321 0af0 51B2     		sxtb	r1, r2
 817:../Source Files/lpc_ssp_glcd.c ****     	if (dy1 > dx1)
 2322              		.loc 1 817 0
 2323 0af2 0FFA8CF8 		sxth	r8, ip
 2324 0af6 0FFA89F2 		sxth	r2, r9
 815:../Source Files/lpc_ssp_glcd.c ****     	dy2 = (int8_t)(p3->y - p1->y);
 2325              		.loc 1 815 0
 2326 0afa 1FFA81FA 		uxth	sl, r1
 817:../Source Files/lpc_ssp_glcd.c ****     	if (dy1 > dx1)
 2327              		.loc 1 817 0
 2328 0afe 9045     		cmp	r8, r2
 815:../Source Files/lpc_ssp_glcd.c ****     	dy2 = (int8_t)(p3->y - p1->y);
 2329              		.loc 1 815 0
 2330 0b00 0846     		mov	r0, r1	@ movhi
 2331 0b02 CDF834A0 		str	sl, [sp, #52]
 2332              	.LVL280:
 817:../Source Files/lpc_ssp_glcd.c ****     	if (dy1 > dx1)
 2333              		.loc 1 817 0
 2334 0b06 0FDD     		ble	.L204
 819:../Source Files/lpc_ssp_glcd.c ****             SWAP(dx1,dy1);
 2335              		.loc 1 819 0
 2336 0b08 DDF80CA0 		ldr	sl, [sp, #12]
 2337 0b0c 89EA0A09 		eor	r9, r9, sl
 2338              	.LVL281:
 2339 0b10 89EA0A0C 		eor	ip, r9, sl
 2340 0b14 1FFA8CF8 		uxth	r8, ip
 2341 0b18 88EA0902 		eor	r2, r8, r9
 2342 0b1c 1FFA82F9 		uxth	r9, r2
 2343              	.LVL282:
 2344 0b20 CDF80C80 		str	r8, [sp, #12]
 2345              	.LVL283:
 820:../Source Files/lpc_ssp_glcd.c ****     		changed1 = TRUE;
 2346              		.loc 1 820 0
 2347 0b24 0122     		movs	r2, #1
 2348              	.LVL284:
 2349 0b26 00E0     		b	.L225
 2350              	.LVL285:
 2351              	.L204:
 798:../Source Files/lpc_ssp_glcd.c ****     	Bool changed1 = FALSE;
 2352              		.loc 1 798 0
 2353 0b28 0022     		movs	r2, #0
 2354              	.LVL286:
 2355              	.L225:
 822:../Source Files/lpc_ssp_glcd.c ****     	if (dy2 > dx2)
 2356              		.loc 1 822 0
 2357 0b2a DDF810A0 		ldr	sl, [sp, #16]
 2358 0b2e 00B2     		sxth	r0, r0
 2359              	.LVL287:
 2360 0b30 0FFA8AFC 		sxth	ip, sl
 2361 0b34 6045     		cmp	r0, ip
 798:../Source Files/lpc_ssp_glcd.c ****     	Bool changed1 = FALSE;
 2362              		.loc 1 798 0
 2363 0b36 0792     		str	r2, [sp, #28]
 2364              	.LVL288:
 822:../Source Files/lpc_ssp_glcd.c ****     	if (dy2 > dx2)
 2365              		.loc 1 822 0
 2366 0b38 0DDD     		ble	.L205
 824:../Source Files/lpc_ssp_glcd.c ****             SWAP(dy2,dx2);
 2367              		.loc 1 824 0
 2368 0b3a 8AEA0100 		eor	r0, sl, r1
 2369 0b3e 81B2     		uxth	r1, r0
 2370              	.LVL289:
 2371 0b40 81EA0A08 		eor	r8, r1, sl
 2372 0b44 88EA0100 		eor	r0, r8, r1
 2373              	.LVL290:
 2374 0b48 81B2     		uxth	r1, r0
 2375              	.LVL291:
 825:../Source Files/lpc_ssp_glcd.c ****     		changed2 = TRUE;
 2376              		.loc 1 825 0
 2377 0b4a 0120     		movs	r0, #1
 824:../Source Files/lpc_ssp_glcd.c ****             SWAP(dy2,dx2);
 2378              		.loc 1 824 0
 2379 0b4c CDF81080 		str	r8, [sp, #16]
 2380 0b50 0D91     		str	r1, [sp, #52]
 2381              	.LVL292:
 825:../Source Files/lpc_ssp_glcd.c ****     		changed2 = TRUE;
 2382              		.loc 1 825 0
 2383 0b52 0990     		str	r0, [sp, #36]
 2384 0b54 01E0     		b	.L165
 2385              	.LVL293:
 2386              	.L205:
 799:../Source Files/lpc_ssp_glcd.c ****     	Bool changed2 = FALSE;
 2387              		.loc 1 799 0
 2388 0b56 0021     		movs	r1, #0
 2389              	.LVL294:
 2390 0b58 0991     		str	r1, [sp, #36]
 2391              	.LVL295:
 2392              	.L165:
 828:../Source Files/lpc_ssp_glcd.c ****     	e2 = (uint16_t)(dx2>>1);
 2393              		.loc 1 828 0
 2394 0b5a DDF810A0 		ldr	sl, [sp, #16]
 830:../Source Files/lpc_ssp_glcd.c ****         if(p1->y==p2->y) goto next;
 2395              		.loc 1 830 0
 2396 0b5e 9B45     		cmp	fp, r3
 828:../Source Files/lpc_ssp_glcd.c ****     	e2 = (uint16_t)(dx2>>1);
 2397              		.loc 1 828 0
 2398 0b60 4AF34E01 		sbfx	r1, sl, #1, #15
 2399 0b64 1FFA81FC 		uxth	ip, r1
 2400              	.LVL296:
 830:../Source Files/lpc_ssp_glcd.c ****         if(p1->y==p2->y) goto next;
 2401              		.loc 1 830 0
 2402 0b68 00F09580 		beq	.L166
 831:../Source Files/lpc_ssp_glcd.c ****         e1 = (uint16_t)(dx1>>1);
 2403              		.loc 1 831 0
 2404 0b6c 49F34E03 		sbfx	r3, r9, #1, #15
 2405 0b70 1FFA83FA 		uxth	sl, r3
 2406              	.LVL297:
 2407              	.LBB17:
 807:../Source Files/lpc_ssp_glcd.c ****     	t1x=t2x=p1->x; y=p1->y;   // Starting points
 2408              		.loc 1 807 0
 2409 0b74 A046     		mov	r8, r4
 833:../Source Files/lpc_ssp_glcd.c ****     	for (uint8_t i = 0; i < dx1;)
 2410              		.loc 1 833 0
 2411 0b76 4FF0000B 		mov	fp, #0
 2412              	.LVL298:
 2413              	.L167:
 833:../Source Files/lpc_ssp_glcd.c ****     	for (uint8_t i = 0; i < dx1;)
 2414              		.loc 1 833 0 is_stmt 0 discriminator 1
 2415 0b7a 0FFA89F3 		sxth	r3, r9
 2416 0b7e 9B45     		cmp	fp, r3
 2417 0b80 80F28980 		bge	.L166
 2418              	.L181:
 2419              	.LVL299:
 836:../Source Files/lpc_ssp_glcd.c ****     		if(t1x<t2x) { minx=t1x; maxx=t2x; }
 2420              		.loc 1 836 0 is_stmt 1
 2421 0b84 A045     		cmp	r8, r4
 839:../Source Files/lpc_ssp_glcd.c ****     		while(i<dx1)
 2422              		.loc 1 839 0
 2423 0b86 4FF0000E 		mov	lr, #0
 836:../Source Files/lpc_ssp_glcd.c ****     		if(t1x<t2x) { minx=t1x; maxx=t2x; }
 2424              		.loc 1 836 0
 2425 0b8a 39BF     		ittee	cc
 2426 0b8c 2246     		movcc	r2, r4
 2427 0b8e 4146     		movcc	r1, r8
 2428 0b90 4246     		movcs	r2, r8
 2429 0b92 2146     		movcs	r1, r4
 839:../Source Files/lpc_ssp_glcd.c ****     		while(i<dx1)
 2430              		.loc 1 839 0
 2431 0b94 CDF82CE0 		str	lr, [sp, #44]
 2432              	.LVL300:
 2433              	.L169:
 839:../Source Files/lpc_ssp_glcd.c ****     		while(i<dx1)
 2434              		.loc 1 839 0 is_stmt 0 discriminator 1
 2435 0b98 9B45     		cmp	fp, r3
 2436 0b9a 08DA     		bge	.L172
 2437              	.L175:
 842:../Source Files/lpc_ssp_glcd.c ****     			e1 += dy1;
 2438              		.loc 1 842 0 is_stmt 1
 2439 0b9c 0398     		ldr	r0, [sp, #12]
 841:../Source Files/lpc_ssp_glcd.c ****     			i++;
 2440              		.loc 1 841 0
 2441 0b9e 0BF1010B 		add	fp, fp, #1
 2442              	.LVL301:
 842:../Source Files/lpc_ssp_glcd.c ****     			e1 += dy1;
 2443              		.loc 1 842 0
 2444 0ba2 8244     		add	sl, sl, r0
 2445              	.LVL302:
 841:../Source Files/lpc_ssp_glcd.c ****     			i++;
 2446              		.loc 1 841 0
 2447 0ba4 5FFA8BFB 		uxtb	fp, fp
 2448              	.LVL303:
 842:../Source Files/lpc_ssp_glcd.c ****     			e1 += dy1;
 2449              		.loc 1 842 0
 2450 0ba8 1FFA8AFA 		uxth	sl, sl
 2451              	.LVL304:
 843:../Source Files/lpc_ssp_glcd.c ****     	   	   	while (e1 >= dx1)
 2452              		.loc 1 843 0
 2453 0bac 0FE0     		b	.L170
 2454              	.LVL305:
 2455              	.L172:
 2456 0bae 0023     		movs	r3, #0
 2457 0bb0 0C93     		str	r3, [sp, #48]
 2458 0bb2 2DE0     		b	.L173
 2459              	.LVL306:
 2460              	.L174:
 846:../Source Files/lpc_ssp_glcd.c ****        	   	   	   if (changed1) t1xp=signx1;//t1x += signx1;
 2461              		.loc 1 846 0
 2462 0bb4 0798     		ldr	r0, [sp, #28]
 793:../Source Files/lpc_ssp_glcd.c **** void GLCD_Triangle(COORDINATE_Type *p1, COORDINATE_Type *p2, COORDINATE_Type *p3,COLORCFG_Type *cfg
 2463              		.loc 1 793 0
 2464 0bb6 C9EB0A0A 		rsb	sl, r9, sl
 2465              	.LVL307:
 2466 0bba 1FFA8AFA 		uxth	sl, sl
 2467              	.LVL308:
 846:../Source Files/lpc_ssp_glcd.c ****        	   	   	   if (changed1) t1xp=signx1;//t1x += signx1;
 2468              		.loc 1 846 0
 2469 0bbe 0028     		cmp	r0, #0
 2470 0bc0 F5D0     		beq	.L172
 2471              	.L171:
 846:../Source Files/lpc_ssp_glcd.c ****        	   	   	   if (changed1) t1xp=signx1;//t1x += signx1;
 2472              		.loc 1 846 0 is_stmt 0 discriminator 1
 2473 0bc2 DDF820E0 		ldr	lr, [sp, #32]
 2474 0bc6 1FFA8EFE 		uxth	lr, lr
 2475 0bca CDF82CE0 		str	lr, [sp, #44]
 2476              	.LVL309:
 2477              	.L170:
 843:../Source Files/lpc_ssp_glcd.c ****     	   	   	while (e1 >= dx1)
 2478              		.loc 1 843 0 is_stmt 1 discriminator 1
 2479 0bce 9A45     		cmp	sl, r3
 2480 0bd0 F0DA     		bge	.L174
 849:../Source Files/lpc_ssp_glcd.c ****     			if (changed1) break;
 2481              		.loc 1 849 0
 2482 0bd2 0798     		ldr	r0, [sp, #28]
 2483 0bd4 0028     		cmp	r0, #0
 2484 0bd6 EAD1     		bne	.L172
 793:../Source Files/lpc_ssp_glcd.c **** void GLCD_Triangle(COORDINATE_Type *p1, COORDINATE_Type *p2, COORDINATE_Type *p3,COLORCFG_Type *cfg
 2485              		.loc 1 793 0
 2486 0bd8 DDF820E0 		ldr	lr, [sp, #32]
 2487 0bdc F044     		add	r8, r8, lr
 2488              	.LVL310:
 2489 0bde 1FFA88F8 		uxth	r8, r8
 2490              	.LVL311:
 2491 0be2 D9E7     		b	.L169
 2492              	.LVL312:
 2493              	.L178:
 2494 0be4 DDF810E0 		ldr	lr, [sp, #16]
 861:../Source Files/lpc_ssp_glcd.c ****     				if (changed2) t2xp=signx2;//t2x += signx2;
 2495              		.loc 1 861 0
 2496 0be8 0998     		ldr	r0, [sp, #36]
 793:../Source Files/lpc_ssp_glcd.c **** void GLCD_Triangle(COORDINATE_Type *p1, COORDINATE_Type *p2, COORDINATE_Type *p3,COLORCFG_Type *cfg
 2497              		.loc 1 793 0
 2498 0bea CEEB0C03 		rsb	r3, lr, ip
 2499 0bee 1FFA83FC 		uxth	ip, r3
 2500              	.LVL313:
 861:../Source Files/lpc_ssp_glcd.c ****     				if (changed2) t2xp=signx2;//t2x += signx2;
 2501              		.loc 1 861 0
 2502 0bf2 98B1     		cbz	r0, .L177
 861:../Source Files/lpc_ssp_glcd.c ****     				if (changed2) t2xp=signx2;//t2x += signx2;
 2503              		.loc 1 861 0 is_stmt 0 discriminator 1
 2504 0bf4 0A98     		ldr	r0, [sp, #40]
 2505 0bf6 83B2     		uxth	r3, r0
 2506              	.LVL314:
 2507 0bf8 0C93     		str	r3, [sp, #48]
 2508              	.LVL315:
 2509              	.L176:
 858:../Source Files/lpc_ssp_glcd.c ****     			while (e2 >= dx2)
 2510              		.loc 1 858 0 is_stmt 1 discriminator 1
 2511 0bfa DDF810E0 		ldr	lr, [sp, #16]
 2512 0bfe 0FFA8EF0 		sxth	r0, lr
 2513 0c02 8445     		cmp	ip, r0
 2514 0c04 EEDA     		bge	.L178
 864:../Source Files/lpc_ssp_glcd.c ****     			if (changed2)     break;
 2515              		.loc 1 864 0
 2516 0c06 099B     		ldr	r3, [sp, #36]
 2517 0c08 43B9     		cbnz	r3, .L177
 793:../Source Files/lpc_ssp_glcd.c **** void GLCD_Triangle(COORDINATE_Type *p1, COORDINATE_Type *p2, COORDINATE_Type *p3,COLORCFG_Type *cfg
 2518              		.loc 1 793 0
 2519 0c0a 0A98     		ldr	r0, [sp, #40]
 2520 0c0c 2418     		adds	r4, r4, r0
 2521              	.LVL316:
 2522 0c0e A4B2     		uxth	r4, r4
 2523              	.LVL317:
 2524              	.L173:
 857:../Source Files/lpc_ssp_glcd.c ****     			e2 += dy2;
 2525              		.loc 1 857 0
 2526 0c10 0D98     		ldr	r0, [sp, #52]
 2527 0c12 0CEB0003 		add	r3, ip, r0
 2528 0c16 1FFA83FC 		uxth	ip, r3
 2529              	.LVL318:
 858:../Source Files/lpc_ssp_glcd.c ****     			while (e2 >= dx2)
 2530              		.loc 1 858 0
 2531 0c1a EEE7     		b	.L176
 2532              	.LVL319:
 2533              	.L177:
 870:../Source Files/lpc_ssp_glcd.c ****     		GLCD_Line(minx,y,maxx,y,cfg->fill_color);    // Draw line from min to max points found on the
 2534              		.loc 1 870 0
 2535 0c1c DDF814E0 		ldr	lr, [sp, #20]
 2536 0c20 069B     		ldr	r3, [sp, #24]
 2537 0c22 8845     		cmp	r8, r1
 2538 0c24 38BF     		it	cc
 2539 0c26 4146     		movcc	r1, r8
 2540 0c28 9045     		cmp	r8, r2
 2541 0c2a 28BF     		it	cs
 2542 0c2c 4246     		movcs	r2, r8
 2543 0c2e 88B2     		uxth	r0, r1
 2544              	.LVL320:
 2545 0c30 92B2     		uxth	r2, r2
 2546              	.LVL321:
 2547 0c32 0FFA8EF1 		sxth	r1, lr
 2548 0c36 B3F804E0 		ldrh	lr, [r3, #4]
 2549 0c3a A042     		cmp	r0, r4
 2550 0c3c 28BF     		it	cs
 2551 0c3e 2046     		movcs	r0, r4
 2552              	.LVL322:
 2553 0c40 A242     		cmp	r2, r4
 2554 0c42 38BF     		it	cc
 2555 0c44 2246     		movcc	r2, r4
 2556              	.LVL323:
 2557 0c46 0B46     		mov	r3, r1
 2558 0c48 CDF800E0 		str	lr, [sp, #0]
 2559 0c4c 00B2     		sxth	r0, r0
 2560 0c4e 12B2     		sxth	r2, r2
 2561 0c50 CDF808C0 		str	ip, [sp, #8]
 2562 0c54 FFF7FEFF 		bl	GLCD_Line
 2563              	.LVL324:
 873:../Source Files/lpc_ssp_glcd.c ****     		if(!changed1) t1x += signx1;
 2564              		.loc 1 873 0
 2565 0c58 0799     		ldr	r1, [sp, #28]
 2566 0c5a DDF808C0 		ldr	ip, [sp, #8]
 2567 0c5e 19B9     		cbnz	r1, .L179
 873:../Source Files/lpc_ssp_glcd.c ****     		if(!changed1) t1x += signx1;
 2568              		.loc 1 873 0 is_stmt 0 discriminator 1
 2569 0c60 0898     		ldr	r0, [sp, #32]
 2570 0c62 8044     		add	r8, r8, r0
 2571              	.LVL325:
 2572 0c64 1FFA88F8 		uxth	r8, r8
 2573              	.LVL326:
 2574              	.L179:
 874:../Source Files/lpc_ssp_glcd.c ****     		t1x+=t1xp;
 2575              		.loc 1 874 0 is_stmt 1
 2576 0c68 0B9A     		ldr	r2, [sp, #44]
 875:../Source Files/lpc_ssp_glcd.c ****     		if(!changed2) t2x += signx2;
 2577              		.loc 1 875 0
 2578 0c6a 0999     		ldr	r1, [sp, #36]
 874:../Source Files/lpc_ssp_glcd.c ****     		t1x+=t1xp;
 2579              		.loc 1 874 0
 2580 0c6c 08EB0203 		add	r3, r8, r2
 2581 0c70 1FFA83F8 		uxth	r8, r3
 2582              	.LVL327:
 875:../Source Files/lpc_ssp_glcd.c ****     		if(!changed2) t2x += signx2;
 2583              		.loc 1 875 0
 2584 0c74 11B9     		cbnz	r1, .L180
 875:../Source Files/lpc_ssp_glcd.c ****     		if(!changed2) t2x += signx2;
 2585              		.loc 1 875 0 is_stmt 0 discriminator 1
 2586 0c76 0A98     		ldr	r0, [sp, #40]
 2587 0c78 2418     		adds	r4, r4, r0
 2588              	.LVL328:
 2589 0c7a A4B2     		uxth	r4, r4
 2590              	.LVL329:
 2591              	.L180:
 877:../Source Files/lpc_ssp_glcd.c ****         	y += 1;
 2592              		.loc 1 877 0 is_stmt 1
 2593 0c7c 059B     		ldr	r3, [sp, #20]
 2594              	.LVL330:
 876:../Source Files/lpc_ssp_glcd.c ****     		t2x+=t2xp;
 2595              		.loc 1 876 0
 2596 0c7e 0C99     		ldr	r1, [sp, #48]
 877:../Source Files/lpc_ssp_glcd.c ****         	y += 1;
 2597              		.loc 1 877 0
 2598 0c80 581C     		adds	r0, r3, #1
 876:../Source Files/lpc_ssp_glcd.c ****     		t2x+=t2xp;
 2599              		.loc 1 876 0
 2600 0c82 6218     		adds	r2, r4, r1
 2601 0c84 94B2     		uxth	r4, r2
 2602              	.LVL331:
 877:../Source Files/lpc_ssp_glcd.c ****         	y += 1;
 2603              		.loc 1 877 0
 2604 0c86 82B2     		uxth	r2, r0
 2605              	.LVL332:
 2606 0c88 0592     		str	r2, [sp, #20]
 878:../Source Files/lpc_ssp_glcd.c ****     		if(y==p2->y) break;
 2607              		.loc 1 878 0
 2608 0c8a B5F90230 		ldrsh	r3, [r5, #2]
 2609 0c8e 059A     		ldr	r2, [sp, #20]
 2610 0c90 9A42     		cmp	r2, r3
 2611 0c92 7FF472AF 		bne	.L167
 2612              	.LVL333:
 2613              	.L166:
 2614              	.LBE17:
 882:../Source Files/lpc_ssp_glcd.c ****     	dx1 = (int8_t)(p3->x - p2->x); if(dx1<0) { dx1=-dx1; signx1=-1; } else signx1=1;
 2615              		.loc 1 882 0
 2616 0c96 3178     		ldrb	r1, [r6, #0]	@ zero_extendqisi2
 2617 0c98 B5F800A0 		ldrh	sl, [r5, #0]
 2618 0c9c CAEB0102 		rsb	r2, sl, r1
 2619 0ca0 50B2     		sxtb	r0, r2
 2620 0ca2 01B2     		sxth	r1, r0
 2621 0ca4 0029     		cmp	r1, #0
 2622 0ca6 1FFA80F9 		uxth	r9, r0
 2623              	.LVL334:
 2624 0caa 07DA     		bge	.L210
 882:../Source Files/lpc_ssp_glcd.c ****     	dx1 = (int8_t)(p3->x - p2->x); if(dx1<0) { dx1=-dx1; signx1=-1; } else signx1=1;
 2625              		.loc 1 882 0 is_stmt 0 discriminator 1
 2626 0cac C0F10009 		rsb	r9, r0, #0
 2627 0cb0 4FF6FF70 		movw	r0, #65535
 2628              	.LVL335:
 2629 0cb4 1FFA89F9 		uxth	r9, r9
 2630              	.LVL336:
 2631 0cb8 0790     		str	r0, [sp, #28]
 2632 0cba 01E0     		b	.L182
 2633              	.LVL337:
 2634              	.L210:
 882:../Source Files/lpc_ssp_glcd.c ****     	dx1 = (int8_t)(p3->x - p2->x); if(dx1<0) { dx1=-dx1; signx1=-1; } else signx1=1;
 2635              		.loc 1 882 0
 2636 0cbc 0122     		movs	r2, #1
 2637 0cbe 0792     		str	r2, [sp, #28]
 2638              	.LVL338:
 2639              	.L182:
 883:../Source Files/lpc_ssp_glcd.c ****     	dy1 = (int8_t)(p3->y - p2->y);
 2640              		.loc 1 883 0 is_stmt 1
 2641 0cc0 B178     		ldrb	r1, [r6, #2]	@ zero_extendqisi2
 2642 0cc2 AB78     		ldrb	r3, [r5, #2]	@ zero_extendqisi2
 884:../Source Files/lpc_ssp_glcd.c ****     	t1x=p2->x;
 2643              		.loc 1 884 0
 2644 0cc4 1FFA8AF8 		uxth	r8, sl
 883:../Source Files/lpc_ssp_glcd.c ****     	dy1 = (int8_t)(p3->y - p2->y);
 2645              		.loc 1 883 0
 2646 0cc8 CA1A     		subs	r2, r1, r3
 2647 0cca 50B2     		sxtb	r0, r2
 2648 0ccc 81B2     		uxth	r1, r0
 2649 0cce 0C91     		str	r1, [sp, #48]
 2650              	.LVL339:
 886:../Source Files/lpc_ssp_glcd.c ****     	if (dy1 > dx1)
 2651              		.loc 1 886 0
 2652 0cd0 02B2     		sxth	r2, r0
 2653 0cd2 0FFA89F1 		sxth	r1, r9
 2654 0cd6 8A42     		cmp	r2, r1
 2655 0cd8 0BDD     		ble	.L211
 888:../Source Files/lpc_ssp_glcd.c ****             SWAP(dy1,dx1);
 2656              		.loc 1 888 0
 2657 0cda 89EA0002 		eor	r2, r9, r0
 2658 0cde 93B2     		uxth	r3, r2
 2659              	.LVL340:
 2660 0ce0 83EA0909 		eor	r9, r3, r9
 2661              	.LVL341:
 2662 0ce4 89EA0300 		eor	r0, r9, r3
 2663 0ce8 82B2     		uxth	r2, r0
 2664              	.LVL342:
 2665 0cea 0C92     		str	r2, [sp, #48]
 2666              	.LVL343:
 889:../Source Files/lpc_ssp_glcd.c ****     		changed1 = TRUE;
 2667              		.loc 1 889 0
 2668 0cec 0122     		movs	r2, #1
 2669 0cee 0392     		str	r2, [sp, #12]
 2670 0cf0 01E0     		b	.L183
 2671              	.LVL344:
 2672              	.L211:
 890:../Source Files/lpc_ssp_glcd.c ****     	} else changed1=FALSE;
 2673              		.loc 1 890 0
 2674 0cf2 0020     		movs	r0, #0
 2675              	.LVL345:
 2676 0cf4 0390     		str	r0, [sp, #12]
 2677              	.LVL346:
 2678              	.L183:
 892:../Source Files/lpc_ssp_glcd.c ****     	e1 = (uint8_t)(dx1>>1);
 2679              		.loc 1 892 0
 2680 0cf6 C9F3470B 		ubfx	fp, r9, #1, #8
 2681              	.LVL347:
 2682              	.LBB18:
 894:../Source Files/lpc_ssp_glcd.c ****     	for (uint8_t i = 0; i<=dx1; i++)
 2683              		.loc 1 894 0
 2684 0cfa 4FF0000A 		mov	sl, #0
 2685              	.LVL348:
 2686              	.L184:
 894:../Source Files/lpc_ssp_glcd.c ****     	for (uint8_t i = 0; i<=dx1; i++)
 2687              		.loc 1 894 0 is_stmt 0 discriminator 1
 2688 0cfe 0FFA89F3 		sxth	r3, r9
 2689 0d02 9A45     		cmp	sl, r3
 2690 0d04 00F38D80 		bgt	.L200
 2691              	.L199:
 2692              	.LVL349:
 897:../Source Files/lpc_ssp_glcd.c ****     		if(t1x<t2x) { minx=t1x; maxx=t2x; }
 2693              		.loc 1 897 0 is_stmt 1
 2694 0d08 A045     		cmp	r8, r4
 2695 0d0a 39BF     		ittee	cc
 2696 0d0c 2246     		movcc	r2, r4
 2697 0d0e 4146     		movcc	r1, r8
 2698 0d10 4246     		movcs	r2, r8
 2699 0d12 2146     		movcs	r1, r4
 2700              	.LVL350:
 2701              	.L224:
 900:../Source Files/lpc_ssp_glcd.c ****     		while(i<dx1)
 2702              		.loc 1 900 0 discriminator 1
 2703 0d14 9A45     		cmp	sl, r3
 2704 0d16 12DA     		bge	.L227
 2705              	.L191:
 793:../Source Files/lpc_ssp_glcd.c **** void GLCD_Triangle(COORDINATE_Type *p1, COORDINATE_Type *p2, COORDINATE_Type *p3,COLORCFG_Type *cfg
 2706              		.loc 1 793 0
 2707 0d18 DDF830E0 		ldr	lr, [sp, #48]
 2708 0d1c 0BEB0E00 		add	r0, fp, lr
 2709 0d20 1FFA80FB 		uxth	fp, r0
 2710              	.LVL351:
 903:../Source Files/lpc_ssp_glcd.c ****     	   	   	while (e1 >= dx1)
 2711              		.loc 1 903 0
 2712 0d24 9B45     		cmp	fp, r3
 2713 0d26 08DB     		blt	.L187
 906:../Source Files/lpc_ssp_glcd.c ****        	   	   	   	if (changed1) { t1xp=signx1; break; }//t1x += signx1;
 2714              		.loc 1 906 0
 2715 0d28 039B     		ldr	r3, [sp, #12]
 905:../Source Files/lpc_ssp_glcd.c ****     				e1 -= dx1;
 2716              		.loc 1 905 0
 2717 0d2a C9EB0B00 		rsb	r0, r9, fp
 2718              	.LVL352:
 2719 0d2e 1FFA80FB 		uxth	fp, r0
 2720              	.LVL353:
 906:../Source Files/lpc_ssp_glcd.c ****        	   	   	   	if (changed1) { t1xp=signx1; break; }//t1x += signx1;
 2721              		.loc 1 906 0
 2722 0d32 3BB1     		cbz	r3, .L213
 906:../Source Files/lpc_ssp_glcd.c ****        	   	   	   	if (changed1) { t1xp=signx1; break; }//t1x += signx1;
 2723              		.loc 1 906 0 is_stmt 0 discriminator 1
 2724 0d34 079B     		ldr	r3, [sp, #28]
 2725 0d36 9BB2     		uxth	r3, r3
 2726 0d38 02E0     		b	.L226
 2727              	.L187:
 2728              	.LVL354:
 909:../Source Files/lpc_ssp_glcd.c ****     			if (changed1) break;
 2729              		.loc 1 909 0 is_stmt 1
 2730 0d3a 0398     		ldr	r0, [sp, #12]
 2731 0d3c 58B1     		cbz	r0, .L189
 2732              	.LVL355:
 2733              	.L227:
 2734 0d3e 0023     		movs	r3, #0
 2735              	.L226:
 2736 0d40 0893     		str	r3, [sp, #32]
 2737 0d42 01E0     		b	.L188
 2738              	.LVL356:
 2739              	.L213:
 906:../Source Files/lpc_ssp_glcd.c ****        	   	   	   	if (changed1) { t1xp=signx1; break; }//t1x += signx1;
 2740              		.loc 1 906 0
 2741 0d44 0398     		ldr	r0, [sp, #12]
 2742              	.LVL357:
 2743 0d46 0890     		str	r0, [sp, #32]
 2744              	.LVL358:
 2745              	.L188:
 915:../Source Files/lpc_ssp_glcd.c ****     		while (t2x!=p3->x)
 2746              		.loc 1 915 0 discriminator 1
 2747 0d48 4FF0000E 		mov	lr, #0
 2748 0d4c B6F90030 		ldrsh	r3, [r6, #0]
 2749 0d50 CDF82CE0 		str	lr, [sp, #44]
 2750 0d54 22E0     		b	.L190
 2751              	.LVL359:
 2752              	.L189:
 793:../Source Files/lpc_ssp_glcd.c **** void GLCD_Triangle(COORDINATE_Type *p1, COORDINATE_Type *p2, COORDINATE_Type *p3,COLORCFG_Type *cfg
 2753              		.loc 1 793 0
 2754 0d56 0798     		ldr	r0, [sp, #28]
 911:../Source Files/lpc_ssp_glcd.c ****     			if(i<dx1) i++;
 2755              		.loc 1 911 0
 2756 0d58 0AF1010A 		add	sl, sl, #1
 2757              	.LVL360:
 793:../Source Files/lpc_ssp_glcd.c **** void GLCD_Triangle(COORDINATE_Type *p1, COORDINATE_Type *p2, COORDINATE_Type *p3,COLORCFG_Type *cfg
 2758              		.loc 1 793 0
 2759 0d5c 8044     		add	r8, r8, r0
 2760              	.LVL361:
 2761 0d5e 1FFA88F8 		uxth	r8, r8
 2762              	.LVL362:
 911:../Source Files/lpc_ssp_glcd.c ****     			if(i<dx1) i++;
 2763              		.loc 1 911 0
 2764 0d62 5FFA8AFA 		uxtb	sl, sl
 2765              	.LVL363:
 2766 0d66 D5E7     		b	.L224
 2767              	.LVL364:
 2768              	.L194:
 793:../Source Files/lpc_ssp_glcd.c **** void GLCD_Triangle(COORDINATE_Type *p1, COORDINATE_Type *p2, COORDINATE_Type *p3,COLORCFG_Type *cfg
 2769              		.loc 1 793 0
 2770 0d68 DDF810E0 		ldr	lr, [sp, #16]
 2771 0d6c CEEB0C00 		rsb	r0, lr, ip
 2772 0d70 1FFA80FC 		uxth	ip, r0
 2773              	.LVL365:
 921:../Source Files/lpc_ssp_glcd.c ****     				if(changed2) t2xp=signx2;
 2774              		.loc 1 921 0
 2775 0d74 0998     		ldr	r0, [sp, #36]
 2776              	.LVL366:
 2777 0d76 D0B1     		cbz	r0, .L193
 921:../Source Files/lpc_ssp_glcd.c ****     				if(changed2) t2xp=signx2;
 2778              		.loc 1 921 0 is_stmt 0 discriminator 1
 2779 0d78 DDF828E0 		ldr	lr, [sp, #40]
 2780 0d7c 1FFA8EFE 		uxth	lr, lr
 2781 0d80 CDF82CE0 		str	lr, [sp, #44]
 2782              	.LVL367:
 2783              	.L192:
 918:../Source Files/lpc_ssp_glcd.c ****     	   	   	while (e2 >= dx2)
 2784              		.loc 1 918 0 is_stmt 1 discriminator 1
 2785 0d84 DDF810E0 		ldr	lr, [sp, #16]
 2786 0d88 0FFA8EF0 		sxth	r0, lr
 2787 0d8c 8445     		cmp	ip, r0
 2788 0d8e EBDA     		bge	.L194
 924:../Source Files/lpc_ssp_glcd.c ****     			if (changed2)     break;
 2789              		.loc 1 924 0
 2790 0d90 0998     		ldr	r0, [sp, #36]
 2791 0d92 60B9     		cbnz	r0, .L193
 793:../Source Files/lpc_ssp_glcd.c **** void GLCD_Triangle(COORDINATE_Type *p1, COORDINATE_Type *p2, COORDINATE_Type *p3,COLORCFG_Type *cfg
 2792              		.loc 1 793 0
 2793 0d94 DDF828E0 		ldr	lr, [sp, #40]
 2794 0d98 7444     		add	r4, r4, lr
 2795              	.LVL368:
 2796 0d9a A4B2     		uxth	r4, r4
 2797              	.LVL369:
 2798              	.L190:
 915:../Source Files/lpc_ssp_glcd.c ****     		while (t2x!=p3->x)
 2799              		.loc 1 915 0 discriminator 1
 2800 0d9c 9C42     		cmp	r4, r3
 2801 0d9e 06D0     		beq	.L193
 2802              	.L195:
 917:../Source Files/lpc_ssp_glcd.c ****     			e2 += dy2;
 2803              		.loc 1 917 0
 2804 0da0 DDF834E0 		ldr	lr, [sp, #52]
 2805 0da4 0CEB0E00 		add	r0, ip, lr
 2806 0da8 1FFA80FC 		uxth	ip, r0
 2807              	.LVL370:
 918:../Source Files/lpc_ssp_glcd.c ****     	   	   	while (e2 >= dx2)
 2808              		.loc 1 918 0
 2809 0dac EAE7     		b	.L192
 2810              	.LVL371:
 2811              	.L193:
 931:../Source Files/lpc_ssp_glcd.c ****     		GLCD_Line(minx,y,maxx,y,cfg->fill_color);    // Draw line from min to max points found on the
 2812              		.loc 1 931 0
 2813 0dae 059B     		ldr	r3, [sp, #20]
 2814 0db0 8845     		cmp	r8, r1
 2815 0db2 38BF     		it	cc
 2816 0db4 4146     		movcc	r1, r8
 2817 0db6 88B2     		uxth	r0, r1
 2818              	.LVL372:
 2819 0db8 19B2     		sxth	r1, r3
 2820 0dba 069B     		ldr	r3, [sp, #24]
 2821 0dbc 9045     		cmp	r8, r2
 2822 0dbe 28BF     		it	cs
 2823 0dc0 4246     		movcs	r2, r8
 2824 0dc2 B3F804E0 		ldrh	lr, [r3, #4]
 2825 0dc6 92B2     		uxth	r2, r2
 2826              	.LVL373:
 2827 0dc8 A042     		cmp	r0, r4
 2828 0dca 28BF     		it	cs
 2829 0dcc 2046     		movcs	r0, r4
 2830              	.LVL374:
 2831 0dce A242     		cmp	r2, r4
 2832 0dd0 38BF     		it	cc
 2833 0dd2 2246     		movcc	r2, r4
 2834              	.LVL375:
 2835 0dd4 0B46     		mov	r3, r1
 2836 0dd6 CDF800E0 		str	lr, [sp, #0]
 2837 0dda 00B2     		sxth	r0, r0
 2838 0ddc 12B2     		sxth	r2, r2
 2839 0dde CDF808C0 		str	ip, [sp, #8]
 2840 0de2 FFF7FEFF 		bl	GLCD_Line
 2841              	.LVL376:
 933:../Source Files/lpc_ssp_glcd.c ****     		if(!changed1) t1x += signx1;
 2842              		.loc 1 933 0
 2843 0de6 0399     		ldr	r1, [sp, #12]
 2844 0de8 DDF808C0 		ldr	ip, [sp, #8]
 2845 0dec 19B9     		cbnz	r1, .L196
 933:../Source Files/lpc_ssp_glcd.c ****     		if(!changed1) t1x += signx1;
 2846              		.loc 1 933 0 is_stmt 0 discriminator 1
 2847 0dee 0798     		ldr	r0, [sp, #28]
 2848 0df0 8044     		add	r8, r8, r0
 2849              	.LVL377:
 2850 0df2 1FFA88F8 		uxth	r8, r8
 2851              	.LVL378:
 2852              	.L196:
 934:../Source Files/lpc_ssp_glcd.c ****     		t1x+=t1xp;
 2853              		.loc 1 934 0 is_stmt 1
 2854 0df6 089A     		ldr	r2, [sp, #32]
 935:../Source Files/lpc_ssp_glcd.c ****     		if(!changed2) t2x += signx2;
 2855              		.loc 1 935 0
