   1              		.syntax unified
   2              		.cpu cortex-m3
   3              		.fpu softvfp
   4              		.eabi_attribute 20, 1
   5              		.eabi_attribute 21, 1
   6              		.eabi_attribute 23, 3
   7              		.eabi_attribute 24, 1
   8              		.eabi_attribute 25, 1
   9              		.eabi_attribute 26, 1
  10              		.eabi_attribute 30, 4
  11              		.eabi_attribute 34, 1
  12              		.eabi_attribute 18, 4
  13              		.thumb
  14              		.file	"crc32.c"
  15              		.text
  16              	.Ltext0:
  17              		.cfi_sections	.debug_frame
  18              		.align	1
  19              		.global	crc32_init
  20              		.thumb
  21              		.thumb_func
  23              	crc32_init:
  24              	.LFB55:
  25              		.file 1 "../Source Files/crc32.c"
   1:../Source Files/crc32.c **** /**********************************************************************
   2:../Source Files/crc32.c **** * $Id$		crc32.c  				2006-09-01
   3:../Source Files/crc32.c **** *//**
   4:../Source Files/crc32.c **** * @file		crc32.c
   5:../Source Files/crc32.c **** * @brief	Ethernet CRC module file for NXP LPC230x Family Microprocessors
   6:../Source Files/crc32.c **** * @version	1.0
   7:../Source Files/crc32.c **** * @date		01. September. 2006
   8:../Source Files/crc32.c **** * @author	NXP MCU SW Application Team
   9:../Source Files/crc32.c **** *
  10:../Source Files/crc32.c **** * Copyright(C) 2006, NXP Semiconductor
  11:../Source Files/crc32.c **** * All rights reserved.
  12:../Source Files/crc32.c **** *
  13:../Source Files/crc32.c **** ***********************************************************************
  14:../Source Files/crc32.c **** * Software that is described herein is for illustrative purposes only
  15:../Source Files/crc32.c **** * which provides customers with programming information regarding the
  16:../Source Files/crc32.c **** * products. This software is supplied "AS IS" without any warranties.
  17:../Source Files/crc32.c **** * NXP Semiconductors assumes no responsibility or liability for the
  18:../Source Files/crc32.c **** * use of the software, conveys no license or title under any patent,
  19:../Source Files/crc32.c **** * copyright, or mask work right to the product. NXP Semiconductors
  20:../Source Files/crc32.c **** * reserves the right to make changes in the software without
  21:../Source Files/crc32.c **** * notification. NXP Semiconductors also make no representation or
  22:../Source Files/crc32.c **** * warranty that such application will be suitable for the specified
  23:../Source Files/crc32.c **** * use without further testing or modification.
  24:../Source Files/crc32.c **** **********************************************************************/
  25:../Source Files/crc32.c **** #include "lpc17xx_emac.h"                        /* LPC23xx/24xx definitions */
  26:../Source Files/crc32.c **** #include "crc32.h"
  27:../Source Files/crc32.c **** 
  28:../Source Files/crc32.c **** /******************************************************************************
  29:../Source Files/crc32.c **** ** Function name:		CRC_init
  30:../Source Files/crc32.c **** **
  31:../Source Files/crc32.c **** ** Descriptions:		Begin CRC calculation.
  32:../Source Files/crc32.c **** **
  33:../Source Files/crc32.c **** ** parameters:			pointer to the CRC area.
  34:../Source Files/crc32.c **** ** Returned value:		None
  35:../Source Files/crc32.c **** **
  36:../Source Files/crc32.c **** ******************************************************************************/
  37:../Source Files/crc32.c **** void crc32_init(uint32_t *pCRC)
  38:../Source Files/crc32.c **** {
  26              		.loc 1 38 0
  27              		.cfi_startproc
  28              		@ args = 0, pretend = 0, frame = 0
  29              		@ frame_needed = 0, uses_anonymous_args = 0
  30              		@ link register save eliminated.
  31              	.LVL0:
  39:../Source Files/crc32.c ****     *pCRC = 0xffffffff;
  32              		.loc 1 39 0
  33 0000 4FF0FF33 		mov	r3, #-1
  34 0004 0360     		str	r3, [r0, #0]
  35 0006 7047     		bx	lr
  36              		.cfi_endproc
  37              	.LFE55:
  39              		.align	1
  40              		.global	crc32_add
  41              		.thumb
  42              		.thumb_func
  44              	crc32_add:
  45              	.LFB56:
  40:../Source Files/crc32.c **** }
  41:../Source Files/crc32.c **** 
  42:../Source Files/crc32.c **** /******************************************************************************
  43:../Source Files/crc32.c **** ** Function name:		CRC32_add
  44:../Source Files/crc32.c **** **
  45:../Source Files/crc32.c **** ** Descriptions:		Calculate CRC value one at a time
  46:../Source Files/crc32.c **** **
  47:../Source Files/crc32.c **** ** parameters:			pointer to the CRC area, and passing value to get the CRC
  48:../Source Files/crc32.c **** ** Returned value:		None
  49:../Source Files/crc32.c **** **
  50:../Source Files/crc32.c **** ******************************************************************************/
  51:../Source Files/crc32.c **** void crc32_add(uint32_t *pCRC, uint8_t val8)
  52:../Source Files/crc32.c **** {
  46              		.loc 1 52 0
  47              		.cfi_startproc
  48              		@ args = 0, pretend = 0, frame = 0
  49              		@ frame_needed = 0, uses_anonymous_args = 0
  50              	.LVL1:
  51 0008 10B5     		push	{r4, lr}
  52              	.LCFI0:
  53              		.cfi_def_cfa_offset 8
  54              		.cfi_offset 4, -8
  55              		.cfi_offset 14, -4
  53:../Source Files/crc32.c ****     uint32_t i, poly;
  54:../Source Files/crc32.c ****     uint32_t entry;
  55:../Source Files/crc32.c ****     uint32_t crc_in;
  56:../Source Files/crc32.c ****     uint32_t crc_out;
  57:../Source Files/crc32.c **** 
  58:../Source Files/crc32.c ****     crc_in = *pCRC;
  56              		.loc 1 58 0
  57 000a 0268     		ldr	r2, [r0, #0]
  58              	.LVL2:
  59:../Source Files/crc32.c ****     poly = 0xEDB88320L;
  60:../Source Files/crc32.c ****     entry = (crc_in ^ ((uint32_t) val8)) & 0xFF;
  59              		.loc 1 60 0
  60 000c 0823     		movs	r3, #8
  61 000e 5140     		eors	r1, r1, r2
  62              	.LVL3:
  63 0010 C9B2     		uxtb	r1, r1
  64              	.LVL4:
  65              	.L5:
  61:../Source Files/crc32.c ****     for (i = 0; i < 8; i++)
  62:../Source Files/crc32.c ****     {
  63:../Source Files/crc32.c ****         if (entry & 1)
  66              		.loc 1 63 0
  67 0012 11F0010F 		tst	r1, #1
  68 0016 4FEA5104 		lsr	r4, r1, #1
  64:../Source Files/crc32.c ****             entry = (entry >> 1) ^ poly;
  69              		.loc 1 64 0
  70 001a 16BF     		itet	ne
  71 001c 0449     		ldrne	r1, .L8
  72              	.LVL5:
  65:../Source Files/crc32.c ****         else
  66:../Source Files/crc32.c ****             entry >>= 1;
  73              		.loc 1 66 0
  74 001e 2146     		moveq	r1, r4
  64:../Source Files/crc32.c ****             entry = (entry >> 1) ^ poly;
  75              		.loc 1 64 0
  76 0020 6140     		eorne	r1, r4, r1
  77              	.LVL6:
  61:../Source Files/crc32.c ****     for (i = 0; i < 8; i++)
  78              		.loc 1 61 0
  79 0022 013B     		subs	r3, r3, #1
  80 0024 F5D1     		bne	.L5
  81              	.LVL7:
  67:../Source Files/crc32.c ****     }
  68:../Source Files/crc32.c ****     crc_out = ((crc_in>>8) & 0x00FFFFFF) ^ entry;
  82              		.loc 1 68 0
  83 0026 81EA1222 		eor	r2, r1, r2, lsr #8
  84              	.LVL8:
  69:../Source Files/crc32.c ****     *pCRC = crc_out;
  85              		.loc 1 69 0
  86 002a 0260     		str	r2, [r0, #0]
  87 002c 10BD     		pop	{r4, pc}
  88              	.L9:
  89 002e 00BF     		.align	2
  90              	.L8:
  91 0030 2083B8ED 		.word	-306674912
  92              		.cfi_endproc
  93              	.LFE56:
  95              		.align	1
  96              		.global	crc32_end
  97              		.thumb
  98              		.thumb_func
 100              	crc32_end:
 101              	.LFB57:
  70:../Source Files/crc32.c ****     return;
  71:../Source Files/crc32.c **** }
  72:../Source Files/crc32.c **** 
  73:../Source Files/crc32.c **** /******************************************************************************
  74:../Source Files/crc32.c **** ** Function name:		CRC32_end
  75:../Source Files/crc32.c **** **
  76:../Source Files/crc32.c **** ** Descriptions:		Finish CRC calculation
  77:../Source Files/crc32.c **** **
  78:../Source Files/crc32.c **** ** parameters:			pointer to the CRC area.
  79:../Source Files/crc32.c **** ** Returned value:		None
  80:../Source Files/crc32.c **** **
  81:../Source Files/crc32.c **** ******************************************************************************/
  82:../Source Files/crc32.c **** void crc32_end(uint32_t *pCRC)
  83:../Source Files/crc32.c **** {
 102              		.loc 1 83 0
 103              		.cfi_startproc
 104              		@ args = 0, pretend = 0, frame = 0
 105              		@ frame_needed = 0, uses_anonymous_args = 0
 106              		@ link register save eliminated.
 107              	.LVL9:
  84:../Source Files/crc32.c ****     *pCRC ^= 0xffffffff;
 108              		.loc 1 84 0
 109 0034 0368     		ldr	r3, [r0, #0]
 110 0036 D943     		mvns	r1, r3
 111 0038 0160     		str	r1, [r0, #0]
 112 003a 7047     		bx	lr
 113              		.cfi_endproc
 114              	.LFE57:
 116              		.align	1
 117              		.global	crc32_bfr
 118              		.thumb
 119              		.thumb_func
 121              	crc32_bfr:
 122              	.LFB58:
  85:../Source Files/crc32.c **** }
  86:../Source Files/crc32.c **** 
  87:../Source Files/crc32.c **** /******************************************************************************
  88:../Source Files/crc32.c **** ** Function name:		CRC32_bfr
  89:../Source Files/crc32.c **** **
  90:../Source Files/crc32.c **** ** Descriptions:		Get the CRC value based on size of the string.
  91:../Source Files/crc32.c **** **
  92:../Source Files/crc32.c **** ** parameters:			Pointer to the string, size of the string.
  93:../Source Files/crc32.c **** ** Returned value:		CRC value
  94:../Source Files/crc32.c **** **
  95:../Source Files/crc32.c **** ******************************************************************************/
  96:../Source Files/crc32.c **** uint32_t crc32_bfr(void *pBfr, uint32_t size)
  97:../Source Files/crc32.c **** {
 123              		.loc 1 97 0
 124              		.cfi_startproc
 125              		@ args = 0, pretend = 0, frame = 8
 126              		@ frame_needed = 0, uses_anonymous_args = 0
 127              	.LVL10:
 128 003c 37B5     		push	{r0, r1, r2, r4, r5, lr}
 129              	.LCFI1:
 130              		.cfi_def_cfa_offset 24
 131              		.cfi_offset 0, -24
 132              		.cfi_offset 1, -20
 133              		.cfi_offset 2, -16
 134              		.cfi_offset 4, -12
 135              		.cfi_offset 5, -8
 136              		.cfi_offset 14, -4
 137              	.LVL11:
 138              	.LBB6:
 139              	.LBB7:
  39:../Source Files/crc32.c ****     *pCRC = 0xffffffff;
 140              		.loc 1 39 0
 141 003e 4FF0FF33 		mov	r3, #-1
 142 0042 0193     		str	r3, [sp, #4]
 143              	.LVL12:
  96:../Source Files/crc32.c **** uint32_t crc32_bfr(void *pBfr, uint32_t size)
 144              		.loc 1 96 0
 145 0044 4518     		adds	r5, r0, r1
 146              	.LBE7:
 147              	.LBE6:
  98:../Source Files/crc32.c ****     uint32_t crc32;
  99:../Source Files/crc32.c ****     uint8_t  *pu8;
 100:../Source Files/crc32.c **** 
 101:../Source Files/crc32.c ****     crc32_init(&crc32);
 102:../Source Files/crc32.c ****     pu8 = (uint8_t *) pBfr;
 148              		.loc 1 102 0
 149 0046 0446     		mov	r4, r0
 150              	.LVL13:
 151              	.L12:
 103:../Source Files/crc32.c ****     while (size-- != 0)
 152              		.loc 1 103 0 discriminator 1
 153 0048 AC42     		cmp	r4, r5
 154 004a 05D0     		beq	.L14
 155              	.L13:
 104:../Source Files/crc32.c ****     {
 105:../Source Files/crc32.c ****         crc32_add(&crc32, *pu8);
 156              		.loc 1 105 0
 157 004c 01A8     		add	r0, sp, #4
 158              	.LVL14:
 159 004e 14F8011B 		ldrb	r1, [r4], #1	@ zero_extendqisi2
 160              	.LVL15:
 161 0052 FFF7FEFF 		bl	crc32_add
 162              	.LVL16:
 163 0056 F7E7     		b	.L12
 164              	.L14:
 165              	.LVL17:
 106:../Source Files/crc32.c ****         pu8++ ;
 107:../Source Files/crc32.c ****     }
 108:../Source Files/crc32.c ****     crc32_end(&crc32);
 109:../Source Files/crc32.c ****     return ( crc32 );
 110:../Source Files/crc32.c **** }
 166              		.loc 1 110 0
 167 0058 0198     		ldr	r0, [sp, #4]
 168 005a C043     		mvns	r0, r0
 169 005c 3EBD     		pop	{r1, r2, r3, r4, r5, pc}
 170              		.cfi_endproc
 171              	.LFE58:
 173              		.comm	gRxBuf,130,4
 174              		.comm	gTxBuf,130,4
 175              		.comm	Rx_Buf1,64,1
 176              		.comm	Tx_Buf1,64,1
 177              		.comm	TxIntStat,1,1
 178              		.comm	rb,528,4
 179              		.comm	EscFlag,2,2
 180              	.Letext0:
 181              		.file 2 "c:\\program files\\gnu tools arm embedded\\4.7 2013q2\\bin\\../lib/gcc/arm-none-eabi/4.7.
 182              		.file 3 "C:\\E_Workspace\\LPC1768\\Eg8_TFT\\Header Files/lpc_types.h"
 183              		.file 4 "C:\\E_Workspace\\LPC1768\\Eg8_TFT\\Header Files/lpc17xx_uart.h"
 184              		.file 5 "C:\\E_Workspace\\LPC1768\\Eg8_TFT\\CM3 Core/core_cm3.h"
 185              		.file 6 "C:\\E_Workspace\\LPC1768\\Eg8_TFT\\Header Files/lpc17xx_ssp.h"
 186              		.file 7 "C:\\E_Workspace\\LPC1768\\Eg8_TFT\\Header Files/lpc17xx_emac.h"